
CUBEMX.elf:     file format elf32-littlearm

Sections:
Idx Name          Size      VMA       LMA       File off  Algn
  0 .isr_vector   000001d8  08000000  08000000  00010000  2**0
                  CONTENTS, ALLOC, LOAD, READONLY, DATA
  1 .text         00005964  080001d8  080001d8  000101d8  2**2
                  CONTENTS, ALLOC, LOAD, READONLY, CODE
  2 .rodata       00000060  08005b3c  08005b3c  00015b3c  2**1
                  CONTENTS, ALLOC, LOAD, READONLY, DATA
  3 .ARM.extab    00000000  08005b9c  08005b9c  00020010  2**0
                  CONTENTS
  4 .ARM          00000008  08005b9c  08005b9c  00015b9c  2**2
                  CONTENTS, ALLOC, LOAD, READONLY, DATA
  5 .preinit_array 00000000  08005ba4  08005ba4  00020010  2**0
                  CONTENTS, ALLOC, LOAD, DATA
  6 .init_array   00000004  08005ba4  08005ba4  00015ba4  2**2
                  CONTENTS, ALLOC, LOAD, DATA
  7 .fini_array   00000004  08005ba8  08005ba8  00015ba8  2**2
                  CONTENTS, ALLOC, LOAD, DATA
  8 .data         00000010  20000000  08005bac  00020000  2**2
                  CONTENTS, ALLOC, LOAD, DATA
  9 .bss          00000820  20000010  08005bbc  00020010  2**2
                  ALLOC
 10 ._user_heap_stack 00000600  20000830  08005bbc  00020830  2**0
                  ALLOC
 11 .ARM.attributes 00000030  00000000  00000000  00020010  2**0
                  CONTENTS, READONLY
 12 .comment      00000043  00000000  00000000  00020040  2**0
                  CONTENTS, READONLY
 13 .debug_frame  000000ac  00000000  00000000  00020084  2**2
                  CONTENTS, READONLY, DEBUGGING, OCTETS

Disassembly of section .text:

080001d8 <__do_global_dtors_aux>:
 80001d8:	b510      	push	{r4, lr}
 80001da:	4c05      	ldr	r4, [pc, #20]	; (80001f0 <__do_global_dtors_aux+0x18>)
 80001dc:	7823      	ldrb	r3, [r4, #0]
 80001de:	b933      	cbnz	r3, 80001ee <__do_global_dtors_aux+0x16>
 80001e0:	4b04      	ldr	r3, [pc, #16]	; (80001f4 <__do_global_dtors_aux+0x1c>)
 80001e2:	b113      	cbz	r3, 80001ea <__do_global_dtors_aux+0x12>
 80001e4:	4804      	ldr	r0, [pc, #16]	; (80001f8 <__do_global_dtors_aux+0x20>)
 80001e6:	f3af 8000 	nop.w
 80001ea:	2301      	movs	r3, #1
 80001ec:	7023      	strb	r3, [r4, #0]
 80001ee:	bd10      	pop	{r4, pc}
 80001f0:	20000010 	.word	0x20000010
 80001f4:	00000000 	.word	0x00000000
 80001f8:	08005b24 	.word	0x08005b24

080001fc <frame_dummy>:
 80001fc:	b508      	push	{r3, lr}
 80001fe:	4b03      	ldr	r3, [pc, #12]	; (800020c <frame_dummy+0x10>)
 8000200:	b11b      	cbz	r3, 800020a <frame_dummy+0xe>
 8000202:	4903      	ldr	r1, [pc, #12]	; (8000210 <frame_dummy+0x14>)
 8000204:	4803      	ldr	r0, [pc, #12]	; (8000214 <frame_dummy+0x18>)
 8000206:	f3af 8000 	nop.w
 800020a:	bd08      	pop	{r3, pc}
 800020c:	00000000 	.word	0x00000000
 8000210:	20000014 	.word	0x20000014
 8000214:	08005b24 	.word	0x08005b24

08000218 <__aeabi_uldivmod>:
 8000218:	b953      	cbnz	r3, 8000230 <__aeabi_uldivmod+0x18>
 800021a:	b94a      	cbnz	r2, 8000230 <__aeabi_uldivmod+0x18>
 800021c:	2900      	cmp	r1, #0
 800021e:	bf08      	it	eq
 8000220:	2800      	cmpeq	r0, #0
 8000222:	bf1c      	itt	ne
 8000224:	f04f 31ff 	movne.w	r1, #4294967295
 8000228:	f04f 30ff 	movne.w	r0, #4294967295
 800022c:	f000 b970 	b.w	8000510 <__aeabi_idiv0>
 8000230:	f1ad 0c08 	sub.w	ip, sp, #8
 8000234:	e96d ce04 	strd	ip, lr, [sp, #-16]!
 8000238:	f000 f806 	bl	8000248 <__udivmoddi4>
 800023c:	f8dd e004 	ldr.w	lr, [sp, #4]
 8000240:	e9dd 2302 	ldrd	r2, r3, [sp, #8]
 8000244:	b004      	add	sp, #16
 8000246:	4770      	bx	lr

08000248 <__udivmoddi4>:
 8000248:	e92d 47f0 	stmdb	sp!, {r4, r5, r6, r7, r8, r9, sl, lr}
 800024c:	9e08      	ldr	r6, [sp, #32]
 800024e:	460d      	mov	r5, r1
 8000250:	4604      	mov	r4, r0
 8000252:	460f      	mov	r7, r1
 8000254:	2b00      	cmp	r3, #0
 8000256:	d14a      	bne.n	80002ee <__udivmoddi4+0xa6>
 8000258:	428a      	cmp	r2, r1
 800025a:	4694      	mov	ip, r2
 800025c:	d965      	bls.n	800032a <__udivmoddi4+0xe2>
 800025e:	fab2 f382 	clz	r3, r2
 8000262:	b143      	cbz	r3, 8000276 <__udivmoddi4+0x2e>
 8000264:	fa02 fc03 	lsl.w	ip, r2, r3
 8000268:	f1c3 0220 	rsb	r2, r3, #32
 800026c:	409f      	lsls	r7, r3
 800026e:	fa20 f202 	lsr.w	r2, r0, r2
 8000272:	4317      	orrs	r7, r2
 8000274:	409c      	lsls	r4, r3
 8000276:	ea4f 4e1c 	mov.w	lr, ip, lsr #16
 800027a:	fa1f f58c 	uxth.w	r5, ip
 800027e:	fbb7 f1fe 	udiv	r1, r7, lr
 8000282:	0c22      	lsrs	r2, r4, #16
 8000284:	fb0e 7711 	mls	r7, lr, r1, r7
 8000288:	ea42 4207 	orr.w	r2, r2, r7, lsl #16
 800028c:	fb01 f005 	mul.w	r0, r1, r5
 8000290:	4290      	cmp	r0, r2
 8000292:	d90a      	bls.n	80002aa <__udivmoddi4+0x62>
 8000294:	eb1c 0202 	adds.w	r2, ip, r2
 8000298:	f101 37ff 	add.w	r7, r1, #4294967295
 800029c:	f080 811c 	bcs.w	80004d8 <__udivmoddi4+0x290>
 80002a0:	4290      	cmp	r0, r2
 80002a2:	f240 8119 	bls.w	80004d8 <__udivmoddi4+0x290>
 80002a6:	3902      	subs	r1, #2
 80002a8:	4462      	add	r2, ip
 80002aa:	1a12      	subs	r2, r2, r0
 80002ac:	b2a4      	uxth	r4, r4
 80002ae:	fbb2 f0fe 	udiv	r0, r2, lr
 80002b2:	fb0e 2210 	mls	r2, lr, r0, r2
 80002b6:	ea44 4402 	orr.w	r4, r4, r2, lsl #16
 80002ba:	fb00 f505 	mul.w	r5, r0, r5
 80002be:	42a5      	cmp	r5, r4
 80002c0:	d90a      	bls.n	80002d8 <__udivmoddi4+0x90>
 80002c2:	eb1c 0404 	adds.w	r4, ip, r4
 80002c6:	f100 32ff 	add.w	r2, r0, #4294967295
 80002ca:	f080 8107 	bcs.w	80004dc <__udivmoddi4+0x294>
 80002ce:	42a5      	cmp	r5, r4
 80002d0:	f240 8104 	bls.w	80004dc <__udivmoddi4+0x294>
 80002d4:	4464      	add	r4, ip
 80002d6:	3802      	subs	r0, #2
 80002d8:	ea40 4001 	orr.w	r0, r0, r1, lsl #16
 80002dc:	1b64      	subs	r4, r4, r5
 80002de:	2100      	movs	r1, #0
 80002e0:	b11e      	cbz	r6, 80002ea <__udivmoddi4+0xa2>
 80002e2:	40dc      	lsrs	r4, r3
 80002e4:	2300      	movs	r3, #0
 80002e6:	e9c6 4300 	strd	r4, r3, [r6]
 80002ea:	e8bd 87f0 	ldmia.w	sp!, {r4, r5, r6, r7, r8, r9, sl, pc}
 80002ee:	428b      	cmp	r3, r1
 80002f0:	d908      	bls.n	8000304 <__udivmoddi4+0xbc>
 80002f2:	2e00      	cmp	r6, #0
 80002f4:	f000 80ed 	beq.w	80004d2 <__udivmoddi4+0x28a>
 80002f8:	2100      	movs	r1, #0
 80002fa:	e9c6 0500 	strd	r0, r5, [r6]
 80002fe:	4608      	mov	r0, r1
 8000300:	e8bd 87f0 	ldmia.w	sp!, {r4, r5, r6, r7, r8, r9, sl, pc}
 8000304:	fab3 f183 	clz	r1, r3
 8000308:	2900      	cmp	r1, #0
 800030a:	d149      	bne.n	80003a0 <__udivmoddi4+0x158>
 800030c:	42ab      	cmp	r3, r5
 800030e:	d302      	bcc.n	8000316 <__udivmoddi4+0xce>
 8000310:	4282      	cmp	r2, r0
 8000312:	f200 80f8 	bhi.w	8000506 <__udivmoddi4+0x2be>
 8000316:	1a84      	subs	r4, r0, r2
 8000318:	eb65 0203 	sbc.w	r2, r5, r3
 800031c:	2001      	movs	r0, #1
 800031e:	4617      	mov	r7, r2
 8000320:	2e00      	cmp	r6, #0
 8000322:	d0e2      	beq.n	80002ea <__udivmoddi4+0xa2>
 8000324:	e9c6 4700 	strd	r4, r7, [r6]
 8000328:	e7df      	b.n	80002ea <__udivmoddi4+0xa2>
 800032a:	b902      	cbnz	r2, 800032e <__udivmoddi4+0xe6>
 800032c:	deff      	udf	#255	; 0xff
 800032e:	fab2 f382 	clz	r3, r2
 8000332:	2b00      	cmp	r3, #0
 8000334:	f040 8090 	bne.w	8000458 <__udivmoddi4+0x210>
 8000338:	1a8a      	subs	r2, r1, r2
 800033a:	ea4f 471c 	mov.w	r7, ip, lsr #16
 800033e:	fa1f fe8c 	uxth.w	lr, ip
 8000342:	2101      	movs	r1, #1
 8000344:	fbb2 f5f7 	udiv	r5, r2, r7
 8000348:	fb07 2015 	mls	r0, r7, r5, r2
 800034c:	0c22      	lsrs	r2, r4, #16
 800034e:	ea42 4200 	orr.w	r2, r2, r0, lsl #16
 8000352:	fb0e f005 	mul.w	r0, lr, r5
 8000356:	4290      	cmp	r0, r2
 8000358:	d908      	bls.n	800036c <__udivmoddi4+0x124>
 800035a:	eb1c 0202 	adds.w	r2, ip, r2
 800035e:	f105 38ff 	add.w	r8, r5, #4294967295
 8000362:	d202      	bcs.n	800036a <__udivmoddi4+0x122>
 8000364:	4290      	cmp	r0, r2
 8000366:	f200 80cb 	bhi.w	8000500 <__udivmoddi4+0x2b8>
 800036a:	4645      	mov	r5, r8
 800036c:	1a12      	subs	r2, r2, r0
 800036e:	b2a4      	uxth	r4, r4
 8000370:	fbb2 f0f7 	udiv	r0, r2, r7
 8000374:	fb07 2210 	mls	r2, r7, r0, r2
 8000378:	ea44 4402 	orr.w	r4, r4, r2, lsl #16
 800037c:	fb0e fe00 	mul.w	lr, lr, r0
 8000380:	45a6      	cmp	lr, r4
 8000382:	d908      	bls.n	8000396 <__udivmoddi4+0x14e>
 8000384:	eb1c 0404 	adds.w	r4, ip, r4
 8000388:	f100 32ff 	add.w	r2, r0, #4294967295
 800038c:	d202      	bcs.n	8000394 <__udivmoddi4+0x14c>
 800038e:	45a6      	cmp	lr, r4
 8000390:	f200 80bb 	bhi.w	800050a <__udivmoddi4+0x2c2>
 8000394:	4610      	mov	r0, r2
 8000396:	eba4 040e 	sub.w	r4, r4, lr
 800039a:	ea40 4005 	orr.w	r0, r0, r5, lsl #16
 800039e:	e79f      	b.n	80002e0 <__udivmoddi4+0x98>
 80003a0:	f1c1 0720 	rsb	r7, r1, #32
 80003a4:	408b      	lsls	r3, r1
 80003a6:	fa22 fc07 	lsr.w	ip, r2, r7
 80003aa:	ea4c 0c03 	orr.w	ip, ip, r3
 80003ae:	fa05 f401 	lsl.w	r4, r5, r1
 80003b2:	fa20 f307 	lsr.w	r3, r0, r7
 80003b6:	40fd      	lsrs	r5, r7
 80003b8:	ea4f 491c 	mov.w	r9, ip, lsr #16
 80003bc:	4323      	orrs	r3, r4
 80003be:	fbb5 f8f9 	udiv	r8, r5, r9
 80003c2:	fa1f fe8c 	uxth.w	lr, ip
 80003c6:	fb09 5518 	mls	r5, r9, r8, r5
 80003ca:	0c1c      	lsrs	r4, r3, #16
 80003cc:	ea44 4405 	orr.w	r4, r4, r5, lsl #16
 80003d0:	fb08 f50e 	mul.w	r5, r8, lr
 80003d4:	42a5      	cmp	r5, r4
 80003d6:	fa02 f201 	lsl.w	r2, r2, r1
 80003da:	fa00 f001 	lsl.w	r0, r0, r1
 80003de:	d90b      	bls.n	80003f8 <__udivmoddi4+0x1b0>
 80003e0:	eb1c 0404 	adds.w	r4, ip, r4
 80003e4:	f108 3aff 	add.w	sl, r8, #4294967295
 80003e8:	f080 8088 	bcs.w	80004fc <__udivmoddi4+0x2b4>
 80003ec:	42a5      	cmp	r5, r4
 80003ee:	f240 8085 	bls.w	80004fc <__udivmoddi4+0x2b4>
 80003f2:	f1a8 0802 	sub.w	r8, r8, #2
 80003f6:	4464      	add	r4, ip
 80003f8:	1b64      	subs	r4, r4, r5
 80003fa:	b29d      	uxth	r5, r3
 80003fc:	fbb4 f3f9 	udiv	r3, r4, r9
 8000400:	fb09 4413 	mls	r4, r9, r3, r4
 8000404:	ea45 4404 	orr.w	r4, r5, r4, lsl #16
 8000408:	fb03 fe0e 	mul.w	lr, r3, lr
 800040c:	45a6      	cmp	lr, r4
 800040e:	d908      	bls.n	8000422 <__udivmoddi4+0x1da>
 8000410:	eb1c 0404 	adds.w	r4, ip, r4
 8000414:	f103 35ff 	add.w	r5, r3, #4294967295
 8000418:	d26c      	bcs.n	80004f4 <__udivmoddi4+0x2ac>
 800041a:	45a6      	cmp	lr, r4
 800041c:	d96a      	bls.n	80004f4 <__udivmoddi4+0x2ac>
 800041e:	3b02      	subs	r3, #2
 8000420:	4464      	add	r4, ip
 8000422:	ea43 4308 	orr.w	r3, r3, r8, lsl #16
 8000426:	fba3 9502 	umull	r9, r5, r3, r2
 800042a:	eba4 040e 	sub.w	r4, r4, lr
 800042e:	42ac      	cmp	r4, r5
 8000430:	46c8      	mov	r8, r9
 8000432:	46ae      	mov	lr, r5
 8000434:	d356      	bcc.n	80004e4 <__udivmoddi4+0x29c>
 8000436:	d053      	beq.n	80004e0 <__udivmoddi4+0x298>
 8000438:	b156      	cbz	r6, 8000450 <__udivmoddi4+0x208>
 800043a:	ebb0 0208 	subs.w	r2, r0, r8
 800043e:	eb64 040e 	sbc.w	r4, r4, lr
 8000442:	fa04 f707 	lsl.w	r7, r4, r7
 8000446:	40ca      	lsrs	r2, r1
 8000448:	40cc      	lsrs	r4, r1
 800044a:	4317      	orrs	r7, r2
 800044c:	e9c6 7400 	strd	r7, r4, [r6]
 8000450:	4618      	mov	r0, r3
 8000452:	2100      	movs	r1, #0
 8000454:	e8bd 87f0 	ldmia.w	sp!, {r4, r5, r6, r7, r8, r9, sl, pc}
 8000458:	f1c3 0120 	rsb	r1, r3, #32
 800045c:	fa02 fc03 	lsl.w	ip, r2, r3
 8000460:	fa20 f201 	lsr.w	r2, r0, r1
 8000464:	fa25 f101 	lsr.w	r1, r5, r1
 8000468:	409d      	lsls	r5, r3
 800046a:	432a      	orrs	r2, r5
 800046c:	ea4f 471c 	mov.w	r7, ip, lsr #16
 8000470:	fa1f fe8c 	uxth.w	lr, ip
 8000474:	fbb1 f0f7 	udiv	r0, r1, r7
 8000478:	fb07 1510 	mls	r5, r7, r0, r1
 800047c:	0c11      	lsrs	r1, r2, #16
 800047e:	ea41 4105 	orr.w	r1, r1, r5, lsl #16
 8000482:	fb00 f50e 	mul.w	r5, r0, lr
 8000486:	428d      	cmp	r5, r1
 8000488:	fa04 f403 	lsl.w	r4, r4, r3
 800048c:	d908      	bls.n	80004a0 <__udivmoddi4+0x258>
 800048e:	eb1c 0101 	adds.w	r1, ip, r1
 8000492:	f100 38ff 	add.w	r8, r0, #4294967295
 8000496:	d22f      	bcs.n	80004f8 <__udivmoddi4+0x2b0>
 8000498:	428d      	cmp	r5, r1
 800049a:	d92d      	bls.n	80004f8 <__udivmoddi4+0x2b0>
 800049c:	3802      	subs	r0, #2
 800049e:	4461      	add	r1, ip
 80004a0:	1b49      	subs	r1, r1, r5
 80004a2:	b292      	uxth	r2, r2
 80004a4:	fbb1 f5f7 	udiv	r5, r1, r7
 80004a8:	fb07 1115 	mls	r1, r7, r5, r1
 80004ac:	ea42 4201 	orr.w	r2, r2, r1, lsl #16
 80004b0:	fb05 f10e 	mul.w	r1, r5, lr
 80004b4:	4291      	cmp	r1, r2
 80004b6:	d908      	bls.n	80004ca <__udivmoddi4+0x282>
 80004b8:	eb1c 0202 	adds.w	r2, ip, r2
 80004bc:	f105 38ff 	add.w	r8, r5, #4294967295
 80004c0:	d216      	bcs.n	80004f0 <__udivmoddi4+0x2a8>
 80004c2:	4291      	cmp	r1, r2
 80004c4:	d914      	bls.n	80004f0 <__udivmoddi4+0x2a8>
 80004c6:	3d02      	subs	r5, #2
 80004c8:	4462      	add	r2, ip
 80004ca:	1a52      	subs	r2, r2, r1
 80004cc:	ea45 4100 	orr.w	r1, r5, r0, lsl #16
 80004d0:	e738      	b.n	8000344 <__udivmoddi4+0xfc>
 80004d2:	4631      	mov	r1, r6
 80004d4:	4630      	mov	r0, r6
 80004d6:	e708      	b.n	80002ea <__udivmoddi4+0xa2>
 80004d8:	4639      	mov	r1, r7
 80004da:	e6e6      	b.n	80002aa <__udivmoddi4+0x62>
 80004dc:	4610      	mov	r0, r2
 80004de:	e6fb      	b.n	80002d8 <__udivmoddi4+0x90>
 80004e0:	4548      	cmp	r0, r9
 80004e2:	d2a9      	bcs.n	8000438 <__udivmoddi4+0x1f0>
 80004e4:	ebb9 0802 	subs.w	r8, r9, r2
 80004e8:	eb65 0e0c 	sbc.w	lr, r5, ip
 80004ec:	3b01      	subs	r3, #1
 80004ee:	e7a3      	b.n	8000438 <__udivmoddi4+0x1f0>
 80004f0:	4645      	mov	r5, r8
 80004f2:	e7ea      	b.n	80004ca <__udivmoddi4+0x282>
 80004f4:	462b      	mov	r3, r5
 80004f6:	e794      	b.n	8000422 <__udivmoddi4+0x1da>
 80004f8:	4640      	mov	r0, r8
 80004fa:	e7d1      	b.n	80004a0 <__udivmoddi4+0x258>
 80004fc:	46d0      	mov	r8, sl
 80004fe:	e77b      	b.n	80003f8 <__udivmoddi4+0x1b0>
 8000500:	3d02      	subs	r5, #2
 8000502:	4462      	add	r2, ip
 8000504:	e732      	b.n	800036c <__udivmoddi4+0x124>
 8000506:	4608      	mov	r0, r1
 8000508:	e70a      	b.n	8000320 <__udivmoddi4+0xd8>
 800050a:	4464      	add	r4, ip
 800050c:	3802      	subs	r0, #2
 800050e:	e742      	b.n	8000396 <__udivmoddi4+0x14e>

08000510 <__aeabi_idiv0>:
 8000510:	4770      	bx	lr
 8000512:	bf00      	nop

08000514 <Encoders_IRQ>:
 8000514:	4a07      	ldr	r2, [pc, #28]	; (8000534 <Encoders_IRQ+0x20>)
 8000516:	b530      	push	{r4, r5, lr}
 8000518:	4603      	mov	r3, r0
 800051a:	f100 0510 	add.w	r5, r0, #16
 800051e:	6818      	ldr	r0, [r3, #0]
 8000520:	6859      	ldr	r1, [r3, #4]
 8000522:	4614      	mov	r4, r2
 8000524:	c403      	stmia	r4!, {r0, r1}
 8000526:	3308      	adds	r3, #8
 8000528:	42ab      	cmp	r3, r5
 800052a:	4622      	mov	r2, r4
 800052c:	d1f7      	bne.n	800051e <Encoders_IRQ+0xa>
 800052e:	6818      	ldr	r0, [r3, #0]
 8000530:	6020      	str	r0, [r4, #0]
 8000532:	bd30      	pop	{r4, r5, pc}
 8000534:	200000c0 	.word	0x200000c0

08000538 <Current_IRQ>:
 8000538:	b530      	push	{r4, r5, lr}
 800053a:	b170      	cbz	r0, 800055a <Current_IRQ+0x22>
 800053c:	4c07      	ldr	r4, [pc, #28]	; (800055c <Current_IRQ+0x24>)
 800053e:	4603      	mov	r3, r0
 8000540:	f100 0510 	add.w	r5, r0, #16
 8000544:	6818      	ldr	r0, [r3, #0]
 8000546:	6859      	ldr	r1, [r3, #4]
 8000548:	4622      	mov	r2, r4
 800054a:	c203      	stmia	r2!, {r0, r1}
 800054c:	3308      	adds	r3, #8
 800054e:	42ab      	cmp	r3, r5
 8000550:	4614      	mov	r4, r2
 8000552:	d1f7      	bne.n	8000544 <Current_IRQ+0xc>
 8000554:	4b02      	ldr	r3, [pc, #8]	; (8000560 <Current_IRQ+0x28>)
 8000556:	2201      	movs	r2, #1
 8000558:	701a      	strb	r2, [r3, #0]
 800055a:	bd30      	pop	{r4, r5, pc}
 800055c:	200000b0 	.word	0x200000b0
 8000560:	2000006c 	.word	0x2000006c

08000564 <BLDC_main>:
 8000564:	b500      	push	{lr}
 8000566:	f44f 707a 	mov.w	r0, #1000	; 0x3e8
 800056a:	b089      	sub	sp, #36	; 0x24
 800056c:	f001 fc04 	bl	8001d78 <HAL_Delay>
 8000570:	2128      	movs	r1, #40	; 0x28
 8000572:	483b      	ldr	r0, [pc, #236]	; (8000660 <BLDC_main+0xfc>)
 8000574:	f000 f9f4 	bl	8000960 <SetSampleTime>
 8000578:	ed9f 1a3a 	vldr	s2, [pc, #232]	; 8000664 <BLDC_main+0x100>
 800057c:	eddf 0a3a 	vldr	s1, [pc, #232]	; 8000668 <BLDC_main+0x104>
 8000580:	ed9f 0a3a 	vldr	s0, [pc, #232]	; 800066c <BLDC_main+0x108>
 8000584:	4836      	ldr	r0, [pc, #216]	; (8000660 <BLDC_main+0xfc>)
 8000586:	eef7 1a00 	vmov.f32	s3, #112	; 0x3f800000  1.0
 800058a:	f000 f987 	bl	800089c <SetTunings>
 800058e:	eddf 0a38 	vldr	s1, [pc, #224]	; 8000670 <BLDC_main+0x10c>
 8000592:	ed9f 0a34 	vldr	s0, [pc, #208]	; 8000664 <BLDC_main+0x100>
 8000596:	4832      	ldr	r0, [pc, #200]	; (8000660 <BLDC_main+0xfc>)
 8000598:	f000 f9fc 	bl	8000994 <SetOutputLimits>
 800059c:	4830      	ldr	r0, [pc, #192]	; (8000660 <BLDC_main+0xfc>)
 800059e:	2100      	movs	r1, #0
 80005a0:	f000 fa4d 	bl	8000a3e <SetControllerDirection>
 80005a4:	2101      	movs	r1, #1
 80005a6:	482e      	ldr	r0, [pc, #184]	; (8000660 <BLDC_main+0xfc>)
 80005a8:	f000 fa38 	bl	8000a1c <SetMode>
 80005ac:	482c      	ldr	r0, [pc, #176]	; (8000660 <BLDC_main+0xfc>)
 80005ae:	f000 fa1d 	bl	80009ec <Initialize>
 80005b2:	2164      	movs	r1, #100	; 0x64
 80005b4:	482f      	ldr	r0, [pc, #188]	; (8000674 <BLDC_main+0x110>)
 80005b6:	f000 f9d3 	bl	8000960 <SetSampleTime>
 80005ba:	ed9f 1a2a 	vldr	s2, [pc, #168]	; 8000664 <BLDC_main+0x100>
 80005be:	eddf 0a2e 	vldr	s1, [pc, #184]	; 8000678 <BLDC_main+0x114>
 80005c2:	ed9f 0a2e 	vldr	s0, [pc, #184]	; 800067c <BLDC_main+0x118>
 80005c6:	482b      	ldr	r0, [pc, #172]	; (8000674 <BLDC_main+0x110>)
 80005c8:	eef7 1a00 	vmov.f32	s3, #112	; 0x3f800000  1.0
 80005cc:	f000 f966 	bl	800089c <SetTunings>
 80005d0:	eddf 0a2b 	vldr	s1, [pc, #172]	; 8000680 <BLDC_main+0x11c>
 80005d4:	ed9f 0a23 	vldr	s0, [pc, #140]	; 8000664 <BLDC_main+0x100>
 80005d8:	4826      	ldr	r0, [pc, #152]	; (8000674 <BLDC_main+0x110>)
 80005da:	f000 f9db 	bl	8000994 <SetOutputLimits>
 80005de:	4825      	ldr	r0, [pc, #148]	; (8000674 <BLDC_main+0x110>)
 80005e0:	2100      	movs	r1, #0
 80005e2:	f000 fa2c 	bl	8000a3e <SetControllerDirection>
 80005e6:	2101      	movs	r1, #1
 80005e8:	4822      	ldr	r0, [pc, #136]	; (8000674 <BLDC_main+0x110>)
 80005ea:	f000 fa17 	bl	8000a1c <SetMode>
 80005ee:	4821      	ldr	r0, [pc, #132]	; (8000674 <BLDC_main+0x110>)
 80005f0:	f000 f9fc 	bl	80009ec <Initialize>
 80005f4:	2164      	movs	r1, #100	; 0x64
 80005f6:	4823      	ldr	r0, [pc, #140]	; (8000684 <BLDC_main+0x120>)
 80005f8:	f000 f9b2 	bl	8000960 <SetSampleTime>
 80005fc:	ed9f 1a19 	vldr	s2, [pc, #100]	; 8000664 <BLDC_main+0x100>
 8000600:	4820      	ldr	r0, [pc, #128]	; (8000684 <BLDC_main+0x120>)
 8000602:	eef0 0a41 	vmov.f32	s1, s2
 8000606:	eef7 1a00 	vmov.f32	s3, #112	; 0x3f800000  1.0
 800060a:	eeb2 0a04 	vmov.f32	s0, #36	; 0x41200000  10.0
 800060e:	f000 f945 	bl	800089c <SetTunings>
 8000612:	eddf 0a1d 	vldr	s1, [pc, #116]	; 8000688 <BLDC_main+0x124>
 8000616:	ed9f 0a1d 	vldr	s0, [pc, #116]	; 800068c <BLDC_main+0x128>
 800061a:	481a      	ldr	r0, [pc, #104]	; (8000684 <BLDC_main+0x120>)
 800061c:	f000 f9ba 	bl	8000994 <SetOutputLimits>
 8000620:	4818      	ldr	r0, [pc, #96]	; (8000684 <BLDC_main+0x120>)
 8000622:	2100      	movs	r1, #0
 8000624:	f000 fa0b 	bl	8000a3e <SetControllerDirection>
 8000628:	2101      	movs	r1, #1
 800062a:	4816      	ldr	r0, [pc, #88]	; (8000684 <BLDC_main+0x120>)
 800062c:	f000 f9f6 	bl	8000a1c <SetMode>
 8000630:	4814      	ldr	r0, [pc, #80]	; (8000684 <BLDC_main+0x120>)
 8000632:	f000 f9db 	bl	80009ec <Initialize>
 8000636:	4816      	ldr	r0, [pc, #88]	; (8000690 <BLDC_main+0x12c>)
 8000638:	f000 f832 	bl	80006a0 <ORBIS_init>
 800063c:	4815      	ldr	r0, [pc, #84]	; (8000694 <BLDC_main+0x130>)
 800063e:	f000 fa29 	bl	8000a94 <current_init>
 8000642:	2064      	movs	r0, #100	; 0x64
 8000644:	f001 fb98 	bl	8001d78 <HAL_Delay>
 8000648:	2300      	movs	r3, #0
 800064a:	9307      	str	r3, [sp, #28]
 800064c:	4b12      	ldr	r3, [pc, #72]	; (8000698 <BLDC_main+0x134>)
 800064e:	781a      	ldrb	r2, [r3, #0]
 8000650:	4b12      	ldr	r3, [pc, #72]	; (800069c <BLDC_main+0x138>)
 8000652:	68db      	ldr	r3, [r3, #12]
 8000654:	b902      	cbnz	r2, 8000658 <BLDC_main+0xf4>
 8000656:	e7fe      	b.n	8000656 <BLDC_main+0xf2>
 8000658:	9a07      	ldr	r2, [sp, #28]
 800065a:	4413      	add	r3, r2
 800065c:	9307      	str	r3, [sp, #28]
 800065e:	e7fa      	b.n	8000656 <BLDC_main+0xf2>
 8000660:	20000070 	.word	0x20000070
 8000664:	00000000 	.word	0x00000000
 8000668:	3a83126f 	.word	0x3a83126f
 800066c:	3ba3d70a 	.word	0x3ba3d70a
 8000670:	44bb6000 	.word	0x44bb6000
 8000674:	200000d4 	.word	0x200000d4
 8000678:	3dcccccd 	.word	0x3dcccccd
 800067c:	3727c5ac 	.word	0x3727c5ac
 8000680:	43fa0000 	.word	0x43fa0000
 8000684:	2000002c 	.word	0x2000002c
 8000688:	4a742400 	.word	0x4a742400
 800068c:	ca742400 	.word	0xca742400
 8000690:	08000515 	.word	0x08000515
 8000694:	08000539 	.word	0x08000539
 8000698:	2000006c 	.word	0x2000006c
 800069c:	200000b0 	.word	0x200000b0

080006a0 <ORBIS_init>:
 80006a0:	b570      	push	{r4, r5, r6, lr}
 80006a2:	4e16      	ldr	r6, [pc, #88]	; (80006fc <ORBIS_init+0x5c>)
 80006a4:	4d16      	ldr	r5, [pc, #88]	; (8000700 <ORBIS_init+0x60>)
 80006a6:	4604      	mov	r4, r0
 80006a8:	2201      	movs	r2, #1
 80006aa:	4630      	mov	r0, r6
 80006ac:	2140      	movs	r1, #64	; 0x40
 80006ae:	f002 ffab 	bl	8003608 <HAL_GPIO_WritePin>
 80006b2:	4628      	mov	r0, r5
 80006b4:	2201      	movs	r2, #1
 80006b6:	2104      	movs	r1, #4
 80006b8:	f002 ffa6 	bl	8003608 <HAL_GPIO_WritePin>
 80006bc:	4b11      	ldr	r3, [pc, #68]	; (8000704 <ORBIS_init+0x64>)
 80006be:	601c      	str	r4, [r3, #0]
 80006c0:	4c11      	ldr	r4, [pc, #68]	; (8000708 <ORBIS_init+0x68>)
 80006c2:	2374      	movs	r3, #116	; 0x74
 80006c4:	7023      	strb	r3, [r4, #0]
 80006c6:	4630      	mov	r0, r6
 80006c8:	2200      	movs	r2, #0
 80006ca:	2140      	movs	r1, #64	; 0x40
 80006cc:	f002 ff9c 	bl	8003608 <HAL_GPIO_WritePin>
 80006d0:	4628      	mov	r0, r5
 80006d2:	2200      	movs	r2, #0
 80006d4:	2104      	movs	r1, #4
 80006d6:	f002 ff97 	bl	8003608 <HAL_GPIO_WritePin>
 80006da:	4621      	mov	r1, r4
 80006dc:	4a0b      	ldr	r2, [pc, #44]	; (800070c <ORBIS_init+0x6c>)
 80006de:	480c      	ldr	r0, [pc, #48]	; (8000710 <ORBIS_init+0x70>)
 80006e0:	2305      	movs	r3, #5
 80006e2:	f003 fe37 	bl	8004354 <HAL_SPI_TransmitReceive_DMA>
 80006e6:	4a0b      	ldr	r2, [pc, #44]	; (8000714 <ORBIS_init+0x74>)
 80006e8:	490b      	ldr	r1, [pc, #44]	; (8000718 <ORBIS_init+0x78>)
 80006ea:	480c      	ldr	r0, [pc, #48]	; (800071c <ORBIS_init+0x7c>)
 80006ec:	2305      	movs	r3, #5
 80006ee:	f003 fe31 	bl	8004354 <HAL_SPI_TransmitReceive_DMA>
 80006f2:	e8bd 4070 	ldmia.w	sp!, {r4, r5, r6, lr}
 80006f6:	480a      	ldr	r0, [pc, #40]	; (8000720 <ORBIS_init+0x80>)
 80006f8:	f004 b94e 	b.w	8004998 <HAL_TIM_Base_Start_IT>
 80006fc:	48000400 	.word	0x48000400
 8000700:	48000c00 	.word	0x48000c00
 8000704:	20000114 	.word	0x20000114
 8000708:	2000011d 	.word	0x2000011d
 800070c:	20000118 	.word	0x20000118
 8000710:	200005dc 	.word	0x200005dc
 8000714:	20000122 	.word	0x20000122
 8000718:	20000127 	.word	0x20000127
 800071c:	20000640 	.word	0x20000640
 8000720:	200006f0 	.word	0x200006f0

08000724 <HAL_SPI_TxRxCpltCallback>:
 8000724:	4b38      	ldr	r3, [pc, #224]	; (8000808 <HAL_SPI_TxRxCpltCallback+0xe4>)
 8000726:	4298      	cmp	r0, r3
 8000728:	b570      	push	{r4, r5, r6, lr}
 800072a:	4604      	mov	r4, r0
 800072c:	d146      	bne.n	80007bc <HAL_SPI_TxRxCpltCallback+0x98>
 800072e:	4837      	ldr	r0, [pc, #220]	; (800080c <HAL_SPI_TxRxCpltCallback+0xe8>)
 8000730:	4d37      	ldr	r5, [pc, #220]	; (8000810 <HAL_SPI_TxRxCpltCallback+0xec>)
 8000732:	2201      	movs	r2, #1
 8000734:	2140      	movs	r1, #64	; 0x40
 8000736:	f002 ff67 	bl	8003608 <HAL_GPIO_WritePin>
 800073a:	4b36      	ldr	r3, [pc, #216]	; (8000814 <HAL_SPI_TxRxCpltCallback+0xf0>)
 800073c:	4836      	ldr	r0, [pc, #216]	; (8000818 <HAL_SPI_TxRxCpltCallback+0xf4>)
 800073e:	781a      	ldrb	r2, [r3, #0]
 8000740:	785b      	ldrb	r3, [r3, #1]
 8000742:	6082      	str	r2, [r0, #8]
 8000744:	0192      	lsls	r2, r2, #6
 8000746:	ea42 0293 	orr.w	r2, r2, r3, lsr #2
 800074a:	f241 53f9 	movw	r3, #5625	; 0x15f9
 800074e:	435a      	muls	r2, r3
 8000750:	682b      	ldr	r3, [r5, #0]
 8000752:	4932      	ldr	r1, [pc, #200]	; (800081c <HAL_SPI_TxRxCpltCallback+0xf8>)
 8000754:	0a12      	lsrs	r2, r2, #8
 8000756:	1ad3      	subs	r3, r2, r3
 8000758:	428b      	cmp	r3, r1
 800075a:	6002      	str	r2, [r0, #0]
 800075c:	4930      	ldr	r1, [pc, #192]	; (8000820 <HAL_SPI_TxRxCpltCallback+0xfc>)
 800075e:	dd45      	ble.n	80007ec <HAL_SPI_TxRxCpltCallback+0xc8>
 8000760:	f5a3 23af 	sub.w	r3, r3, #358400	; 0x57800
 8000764:	f5a3 63c8 	sub.w	r3, r3, #1600	; 0x640
 8000768:	ee07 3a90 	vmov	s15, r3
 800076c:	ed91 7a00 	vldr	s14, [r1]
 8000770:	eef8 7ae7 	vcvt.f32.s32	s15, s15
 8000774:	4b2b      	ldr	r3, [pc, #172]	; (8000824 <HAL_SPI_TxRxCpltCallback+0x100>)
 8000776:	602a      	str	r2, [r5, #0]
 8000778:	881a      	ldrh	r2, [r3, #0]
 800077a:	ee77 7a87 	vadd.f32	s15, s15, s14
 800077e:	2a0a      	cmp	r2, #10
 8000780:	edc1 7a00 	vstr	s15, [r1]
 8000784:	d117      	bne.n	80007b6 <HAL_SPI_TxRxCpltCallback+0x92>
 8000786:	ed9f 7a28 	vldr	s14, [pc, #160]	; 8000828 <HAL_SPI_TxRxCpltCallback+0x104>
 800078a:	eec7 6a87 	vdiv.f32	s13, s15, s14
 800078e:	2200      	movs	r2, #0
 8000790:	600a      	str	r2, [r1, #0]
 8000792:	2200      	movs	r2, #0
 8000794:	801a      	strh	r2, [r3, #0]
 8000796:	eeb2 7a04 	vmov.f32	s14, #36	; 0x41200000  10.0
 800079a:	eec6 7a87 	vdiv.f32	s15, s13, s14
 800079e:	ed9f 7a23 	vldr	s14, [pc, #140]	; 800082c <HAL_SPI_TxRxCpltCallback+0x108>
 80007a2:	ee67 7a87 	vmul.f32	s15, s15, s14
 80007a6:	ed9f 7a22 	vldr	s14, [pc, #136]	; 8000830 <HAL_SPI_TxRxCpltCallback+0x10c>
 80007aa:	ee67 7a87 	vmul.f32	s15, s15, s14
 80007ae:	eefd 7ae7 	vcvt.s32.f32	s15, s15
 80007b2:	edc0 7a03 	vstr	s15, [r0, #12]
 80007b6:	881a      	ldrh	r2, [r3, #0]
 80007b8:	3201      	adds	r2, #1
 80007ba:	801a      	strh	r2, [r3, #0]
 80007bc:	4b1d      	ldr	r3, [pc, #116]	; (8000834 <HAL_SPI_TxRxCpltCallback+0x110>)
 80007be:	429c      	cmp	r4, r3
 80007c0:	d10e      	bne.n	80007e0 <HAL_SPI_TxRxCpltCallback+0xbc>
 80007c2:	2201      	movs	r2, #1
 80007c4:	2104      	movs	r1, #4
 80007c6:	481c      	ldr	r0, [pc, #112]	; (8000838 <HAL_SPI_TxRxCpltCallback+0x114>)
 80007c8:	f002 ff1e 	bl	8003608 <HAL_GPIO_WritePin>
 80007cc:	4b1b      	ldr	r3, [pc, #108]	; (800083c <HAL_SPI_TxRxCpltCallback+0x118>)
 80007ce:	4a12      	ldr	r2, [pc, #72]	; (8000818 <HAL_SPI_TxRxCpltCallback+0xf4>)
 80007d0:	8859      	ldrh	r1, [r3, #2]
 80007d2:	8251      	strh	r1, [r2, #18]
 80007d4:	7819      	ldrb	r1, [r3, #0]
 80007d6:	785b      	ldrb	r3, [r3, #1]
 80007d8:	089b      	lsrs	r3, r3, #2
 80007da:	ea43 1381 	orr.w	r3, r3, r1, lsl #6
 80007de:	6053      	str	r3, [r2, #4]
 80007e0:	4b17      	ldr	r3, [pc, #92]	; (8000840 <HAL_SPI_TxRxCpltCallback+0x11c>)
 80007e2:	480d      	ldr	r0, [pc, #52]	; (8000818 <HAL_SPI_TxRxCpltCallback+0xf4>)
 80007e4:	681b      	ldr	r3, [r3, #0]
 80007e6:	e8bd 4070 	ldmia.w	sp!, {r4, r5, r6, lr}
 80007ea:	4718      	bx	r3
 80007ec:	4e15      	ldr	r6, [pc, #84]	; (8000844 <HAL_SPI_TxRxCpltCallback+0x120>)
 80007ee:	ed91 7a00 	vldr	s14, [r1]
 80007f2:	42b3      	cmp	r3, r6
 80007f4:	bfbc      	itt	lt
 80007f6:	f503 23af 	addlt.w	r3, r3, #358400	; 0x57800
 80007fa:	f503 63c8 	addlt.w	r3, r3, #1600	; 0x640
 80007fe:	ee07 3a90 	vmov	s15, r3
 8000802:	eef8 7ae7 	vcvt.f32.s32	s15, s15
 8000806:	e7b5      	b.n	8000774 <HAL_SPI_TxRxCpltCallback+0x50>
 8000808:	200005dc 	.word	0x200005dc
 800080c:	48000400 	.word	0x48000400
 8000810:	20000144 	.word	0x20000144
 8000814:	20000118 	.word	0x20000118
 8000818:	20000130 	.word	0x20000130
 800081c:	0002bf20 	.word	0x0002bf20
 8000820:	20000148 	.word	0x20000148
 8000824:	2000012c 	.word	0x2000012c
 8000828:	43b40000 	.word	0x43b40000
 800082c:	461c4000 	.word	0x461c4000
 8000830:	42700000 	.word	0x42700000
 8000834:	20000640 	.word	0x20000640
 8000838:	48000c00 	.word	0x48000c00
 800083c:	20000122 	.word	0x20000122
 8000840:	20000114 	.word	0x20000114
 8000844:	fffd40e0 	.word	0xfffd40e0

08000848 <HAL_TIM_PeriodElapsedCallback>:
 8000848:	b510      	push	{r4, lr}
 800084a:	480c      	ldr	r0, [pc, #48]	; (800087c <HAL_TIM_PeriodElapsedCallback+0x34>)
 800084c:	2200      	movs	r2, #0
 800084e:	2140      	movs	r1, #64	; 0x40
 8000850:	f002 feda 	bl	8003608 <HAL_GPIO_WritePin>
 8000854:	480a      	ldr	r0, [pc, #40]	; (8000880 <HAL_TIM_PeriodElapsedCallback+0x38>)
 8000856:	2200      	movs	r2, #0
 8000858:	2104      	movs	r1, #4
 800085a:	f002 fed5 	bl	8003608 <HAL_GPIO_WritePin>
 800085e:	4a09      	ldr	r2, [pc, #36]	; (8000884 <HAL_TIM_PeriodElapsedCallback+0x3c>)
 8000860:	4909      	ldr	r1, [pc, #36]	; (8000888 <HAL_TIM_PeriodElapsedCallback+0x40>)
 8000862:	480a      	ldr	r0, [pc, #40]	; (800088c <HAL_TIM_PeriodElapsedCallback+0x44>)
 8000864:	2305      	movs	r3, #5
 8000866:	f003 fd75 	bl	8004354 <HAL_SPI_TransmitReceive_DMA>
 800086a:	e8bd 4010 	ldmia.w	sp!, {r4, lr}
 800086e:	4a08      	ldr	r2, [pc, #32]	; (8000890 <HAL_TIM_PeriodElapsedCallback+0x48>)
 8000870:	4908      	ldr	r1, [pc, #32]	; (8000894 <HAL_TIM_PeriodElapsedCallback+0x4c>)
 8000872:	4809      	ldr	r0, [pc, #36]	; (8000898 <HAL_TIM_PeriodElapsedCallback+0x50>)
 8000874:	2305      	movs	r3, #5
 8000876:	f003 bd6d 	b.w	8004354 <HAL_SPI_TransmitReceive_DMA>
 800087a:	bf00      	nop
 800087c:	48000400 	.word	0x48000400
 8000880:	48000c00 	.word	0x48000c00
 8000884:	20000118 	.word	0x20000118
 8000888:	2000011d 	.word	0x2000011d
 800088c:	200005dc 	.word	0x200005dc
 8000890:	20000122 	.word	0x20000122
 8000894:	20000127 	.word	0x20000127
 8000898:	20000640 	.word	0x20000640

0800089c <SetTunings>:
 800089c:	ed9f 7a2e 	vldr	s14, [pc, #184]	; 8000958 <SetTunings+0xbc>
 80008a0:	eeb4 0ac7 	vcmpe.f32	s0, s14
 80008a4:	eef1 fa10 	vmrs	APSR_nzcv, fpscr
 80008a8:	d454      	bmi.n	8000954 <SetTunings+0xb8>
 80008aa:	eef4 0ac7 	vcmpe.f32	s1, s14
 80008ae:	eef1 fa10 	vmrs	APSR_nzcv, fpscr
 80008b2:	d44f      	bmi.n	8000954 <SetTunings+0xb8>
 80008b4:	eeb4 1ac7 	vcmpe.f32	s2, s14
 80008b8:	eef1 fa10 	vmrs	APSR_nzcv, fpscr
 80008bc:	d44a      	bmi.n	8000954 <SetTunings+0xb8>
 80008be:	eef4 1ac7 	vcmpe.f32	s3, s14
 80008c2:	eef1 fa10 	vmrs	APSR_nzcv, fpscr
 80008c6:	d445      	bmi.n	8000954 <SetTunings+0xb8>
 80008c8:	eef7 7a00 	vmov.f32	s15, #112	; 0x3f800000  1.0
 80008cc:	eef4 1ae7 	vcmpe.f32	s3, s15
 80008d0:	eef1 fa10 	vmrs	APSR_nzcv, fpscr
 80008d4:	dc3e      	bgt.n	8000954 <SetTunings+0xb8>
 80008d6:	edd0 6a0a 	vldr	s13, [r0, #40]	; 0x28
 80008da:	eddf 5a20 	vldr	s11, [pc, #128]	; 800095c <SetTunings+0xc0>
 80008de:	ed80 0a05 	vstr	s0, [r0, #20]
 80008e2:	eef8 6a66 	vcvt.f32.u32	s13, s13
 80008e6:	eef4 1ac7 	vcmpe.f32	s3, s14
 80008ea:	ee86 6aa5 	vdiv.f32	s12, s13, s11
 80008ee:	eef1 fa10 	vmrs	APSR_nzcv, fpscr
 80008f2:	eec1 6a06 	vdiv.f32	s13, s2, s12
 80008f6:	bfcc      	ite	gt
 80008f8:	2301      	movgt	r3, #1
 80008fa:	2300      	movle	r3, #0
 80008fc:	f880 3034 	strb.w	r3, [r0, #52]	; 0x34
 8000900:	eef4 1ae7 	vcmpe.f32	s3, s15
 8000904:	eef1 fa10 	vmrs	APSR_nzcv, fpscr
 8000908:	bf4c      	ite	mi
 800090a:	2301      	movmi	r3, #1
 800090c:	2300      	movpl	r3, #0
 800090e:	f880 3035 	strb.w	r3, [r0, #53]	; 0x35
 8000912:	6b03      	ldr	r3, [r0, #48]	; 0x30
 8000914:	edc0 6a07 	vstr	s13, [r0, #28]
 8000918:	ee60 0a86 	vmul.f32	s1, s1, s12
 800091c:	2b01      	cmp	r3, #1
 800091e:	edc0 0a06 	vstr	s1, [r0, #24]
 8000922:	d10b      	bne.n	800093c <SetTunings+0xa0>
 8000924:	ee37 0a40 	vsub.f32	s0, s14, s0
 8000928:	ee77 0a60 	vsub.f32	s1, s14, s1
 800092c:	ee37 7a66 	vsub.f32	s14, s14, s13
 8000930:	ed80 0a05 	vstr	s0, [r0, #20]
 8000934:	edc0 0a06 	vstr	s1, [r0, #24]
 8000938:	ed80 7a07 	vstr	s14, [r0, #28]
 800093c:	ed90 7a05 	vldr	s14, [r0, #20]
 8000940:	ee77 7ae1 	vsub.f32	s15, s15, s3
 8000944:	ee67 6a21 	vmul.f32	s13, s14, s3
 8000948:	ee67 7a87 	vmul.f32	s15, s15, s14
 800094c:	edc0 6a0e 	vstr	s13, [r0, #56]	; 0x38
 8000950:	edc0 7a0f 	vstr	s15, [r0, #60]	; 0x3c
 8000954:	4770      	bx	lr
 8000956:	bf00      	nop
 8000958:	00000000 	.word	0x00000000
 800095c:	49742400 	.word	0x49742400

08000960 <SetSampleTime>:
 8000960:	2900      	cmp	r1, #0
 8000962:	dd16      	ble.n	8000992 <SetSampleTime+0x32>
 8000964:	ee07 1a90 	vmov	s15, r1
 8000968:	eef8 6ae7 	vcvt.f32.s32	s13, s15
 800096c:	edd0 7a0a 	vldr	s15, [r0, #40]	; 0x28
 8000970:	6281      	str	r1, [r0, #40]	; 0x28
 8000972:	eef8 7a67 	vcvt.f32.u32	s15, s15
 8000976:	ee86 7aa7 	vdiv.f32	s14, s13, s15
 800097a:	edd0 7a06 	vldr	s15, [r0, #24]
 800097e:	edd0 6a07 	vldr	s13, [r0, #28]
 8000982:	ee67 7a87 	vmul.f32	s15, s15, s14
 8000986:	edc0 7a06 	vstr	s15, [r0, #24]
 800098a:	eec6 7a87 	vdiv.f32	s15, s13, s14
 800098e:	edc0 7a07 	vstr	s15, [r0, #28]
 8000992:	4770      	bx	lr

08000994 <SetOutputLimits>:
 8000994:	eeb4 0ae0 	vcmpe.f32	s0, s1
 8000998:	eef1 fa10 	vmrs	APSR_nzcv, fpscr
 800099c:	dc25      	bgt.n	80009ea <SetOutputLimits+0x56>
 800099e:	edd0 7a01 	vldr	s15, [r0, #4]
 80009a2:	ed80 0a08 	vstr	s0, [r0, #32]
 80009a6:	eef4 7ae0 	vcmpe.f32	s15, s1
 80009aa:	eef1 fa10 	vmrs	APSR_nzcv, fpscr
 80009ae:	edc0 0a09 	vstr	s1, [r0, #36]	; 0x24
 80009b2:	dd0b      	ble.n	80009cc <SetOutputLimits+0x38>
 80009b4:	edc0 0a01 	vstr	s1, [r0, #4]
 80009b8:	edd0 7a03 	vldr	s15, [r0, #12]
 80009bc:	eef4 7ae0 	vcmpe.f32	s15, s1
 80009c0:	eef1 fa10 	vmrs	APSR_nzcv, fpscr
 80009c4:	dd0a      	ble.n	80009dc <SetOutputLimits+0x48>
 80009c6:	edc0 0a03 	vstr	s1, [r0, #12]
 80009ca:	4770      	bx	lr
 80009cc:	eef4 7ac0 	vcmpe.f32	s15, s0
 80009d0:	eef1 fa10 	vmrs	APSR_nzcv, fpscr
 80009d4:	bf48      	it	mi
 80009d6:	ed80 0a01 	vstrmi	s0, [r0, #4]
 80009da:	e7ed      	b.n	80009b8 <SetOutputLimits+0x24>
 80009dc:	eef4 7ac0 	vcmpe.f32	s15, s0
 80009e0:	eef1 fa10 	vmrs	APSR_nzcv, fpscr
 80009e4:	bf48      	it	mi
 80009e6:	ed80 0a03 	vstrmi	s0, [r0, #12]
 80009ea:	4770      	bx	lr

080009ec <Initialize>:
 80009ec:	edd0 7a01 	vldr	s15, [r0, #4]
 80009f0:	ed90 7a09 	vldr	s14, [r0, #36]	; 0x24
 80009f4:	6803      	ldr	r3, [r0, #0]
 80009f6:	6103      	str	r3, [r0, #16]
 80009f8:	eef4 7ac7 	vcmpe.f32	s15, s14
 80009fc:	eef1 fa10 	vmrs	APSR_nzcv, fpscr
 8000a00:	edc0 7a03 	vstr	s15, [r0, #12]
 8000a04:	dd02      	ble.n	8000a0c <Initialize+0x20>
 8000a06:	ed80 7a03 	vstr	s14, [r0, #12]
 8000a0a:	e006      	b.n	8000a1a <Initialize+0x2e>
 8000a0c:	ed90 7a08 	vldr	s14, [r0, #32]
 8000a10:	eef4 7ac7 	vcmpe.f32	s15, s14
 8000a14:	eef1 fa10 	vmrs	APSR_nzcv, fpscr
 8000a18:	d4f5      	bmi.n	8000a06 <Initialize+0x1a>
 8000a1a:	4770      	bx	lr

08000a1c <SetMode>:
 8000a1c:	b508      	push	{r3, lr}
 8000a1e:	1e4b      	subs	r3, r1, #1
 8000a20:	4259      	negs	r1, r3
 8000a22:	4159      	adcs	r1, r3
 8000a24:	f890 302c 	ldrb.w	r3, [r0, #44]	; 0x2c
 8000a28:	fab3 f383 	clz	r3, r3
 8000a2c:	095b      	lsrs	r3, r3, #5
 8000a2e:	428b      	cmp	r3, r1
 8000a30:	4602      	mov	r2, r0
 8000a32:	d101      	bne.n	8000a38 <SetMode+0x1c>
 8000a34:	f7ff ffda 	bl	80009ec <Initialize>
 8000a38:	f882 102c 	strb.w	r1, [r2, #44]	; 0x2c
 8000a3c:	bd08      	pop	{r3, pc}

08000a3e <SetControllerDirection>:
 8000a3e:	6301      	str	r1, [r0, #48]	; 0x30
 8000a40:	4770      	bx	lr
	...

08000a44 <ADC_CAL_init>:
 8000a44:	b51f      	push	{r0, r1, r2, r3, r4, lr}
 8000a46:	b1c8      	cbz	r0, 8000a7c <ADC_CAL_init+0x38>
 8000a48:	217f      	movs	r1, #127	; 0x7f
 8000a4a:	f001 fed3 	bl	80027f4 <HAL_ADCEx_Calibration_Start>
 8000a4e:	4604      	mov	r4, r0
 8000a50:	b9b8      	cbnz	r0, 8000a82 <ADC_CAL_init+0x3e>
 8000a52:	4b0d      	ldr	r3, [pc, #52]	; (8000a88 <ADC_CAL_init+0x44>)
 8000a54:	9001      	str	r0, [sp, #4]
 8000a56:	f44f 6216 	mov.w	r2, #2400	; 0x960
 8000a5a:	9002      	str	r0, [sp, #8]
 8000a5c:	9003      	str	r0, [sp, #12]
 8000a5e:	601a      	str	r2, [r3, #0]
 8000a60:	480a      	ldr	r0, [pc, #40]	; (8000a8c <ADC_CAL_init+0x48>)
 8000a62:	605a      	str	r2, [r3, #4]
 8000a64:	609a      	str	r2, [r3, #8]
 8000a66:	f001 ffe3 	bl	8002a30 <HAL_DAC_Init>
 8000a6a:	4808      	ldr	r0, [pc, #32]	; (8000a8c <ADC_CAL_init+0x48>)
 8000a6c:	4621      	mov	r1, r4
 8000a6e:	f001 fff2 	bl	8002a56 <HAL_DAC_Start>
 8000a72:	4b07      	ldr	r3, [pc, #28]	; (8000a90 <ADC_CAL_init+0x4c>)
 8000a74:	8818      	ldrh	r0, [r3, #0]
 8000a76:	b200      	sxth	r0, r0
 8000a78:	b004      	add	sp, #16
 8000a7a:	bd10      	pop	{r4, pc}
 8000a7c:	f04f 30ff 	mov.w	r0, #4294967295
 8000a80:	e7fa      	b.n	8000a78 <ADC_CAL_init+0x34>
 8000a82:	f06f 0001 	mvn.w	r0, #1
 8000a86:	e7f7      	b.n	8000a78 <ADC_CAL_init+0x34>
 8000a88:	20000180 	.word	0x20000180
 8000a8c:	200003ac 	.word	0x200003ac
 8000a90:	20000150 	.word	0x20000150

08000a94 <current_init>:
 8000a94:	b538      	push	{r3, r4, r5, lr}
 8000a96:	4d07      	ldr	r5, [pc, #28]	; (8000ab4 <current_init+0x20>)
 8000a98:	4604      	mov	r4, r0
 8000a9a:	4628      	mov	r0, r5
 8000a9c:	f7ff ffd2 	bl	8000a44 <ADC_CAL_init>
 8000aa0:	4b05      	ldr	r3, [pc, #20]	; (8000ab8 <current_init+0x24>)
 8000aa2:	4906      	ldr	r1, [pc, #24]	; (8000abc <current_init+0x28>)
 8000aa4:	601c      	str	r4, [r3, #0]
 8000aa6:	4628      	mov	r0, r5
 8000aa8:	2208      	movs	r2, #8
 8000aaa:	e8bd 4038 	ldmia.w	sp!, {r3, r4, r5, lr}
 8000aae:	f001 bdef 	b.w	8002690 <HAL_ADC_Start_DMA>
 8000ab2:	bf00      	nop
 8000ab4:	20000214 	.word	0x20000214
 8000ab8:	2000014c 	.word	0x2000014c
 8000abc:	2000018c 	.word	0x2000018c

08000ac0 <HAL_ADC_ConvHalfCpltCallback>:
 8000ac0:	4b4d      	ldr	r3, [pc, #308]	; (8000bf8 <HAL_ADC_ConvHalfCpltCallback+0x138>)
 8000ac2:	4298      	cmp	r0, r3
 8000ac4:	e92d 47f0 	stmdb	sp!, {r4, r5, r6, r7, r8, r9, sl, lr}
 8000ac8:	4604      	mov	r4, r0
 8000aca:	d160      	bne.n	8000b8e <HAL_ADC_ConvHalfCpltCallback+0xce>
 8000acc:	4b4b      	ldr	r3, [pc, #300]	; (8000bfc <HAL_ADC_ConvHalfCpltCallback+0x13c>)
 8000ace:	4a4c      	ldr	r2, [pc, #304]	; (8000c00 <HAL_ADC_ConvHalfCpltCallback+0x140>)
 8000ad0:	681b      	ldr	r3, [r3, #0]
 8000ad2:	68d1      	ldr	r1, [r2, #12]
 8000ad4:	881b      	ldrh	r3, [r3, #0]
 8000ad6:	f8df c13c 	ldr.w	ip, [pc, #316]	; 8000c14 <HAL_ADC_ConvHalfCpltCallback+0x154>
 8000ada:	f8df 8144 	ldr.w	r8, [pc, #324]	; 8000c20 <HAL_ADC_ConvHalfCpltCallback+0x160>
 8000ade:	f640 30b8 	movw	r0, #3000	; 0xbb8
 8000ae2:	4343      	muls	r3, r0
 8000ae4:	0909      	lsrs	r1, r1, #4
 8000ae6:	fbb3 f3f1 	udiv	r3, r3, r1
 8000aea:	b21b      	sxth	r3, r3
 8000aec:	f8ac 3000 	strh.w	r3, [ip]
 8000af0:	6893      	ldr	r3, [r2, #8]
 8000af2:	f8bc 0000 	ldrh.w	r0, [ip]
 8000af6:	f8d8 1000 	ldr.w	r1, [r8]
 8000afa:	2799      	movs	r7, #153	; 0x99
 8000afc:	b200      	sxth	r0, r0
 8000afe:	091b      	lsrs	r3, r3, #4
 8000b00:	f640 7eff 	movw	lr, #4095	; 0xfff
 8000b04:	2664      	movs	r6, #100	; 0x64
 8000b06:	4343      	muls	r3, r0
 8000b08:	fbb3 f3fe 	udiv	r3, r3, lr
 8000b0c:	437b      	muls	r3, r7
 8000b0e:	fbb3 f3f6 	udiv	r3, r3, r6
 8000b12:	1a5b      	subs	r3, r3, r1
 8000b14:	6851      	ldr	r1, [r2, #4]
 8000b16:	f8bc a000 	ldrh.w	sl, [ip]
 8000b1a:	f8d8 9004 	ldr.w	r9, [r8, #4]
 8000b1e:	6812      	ldr	r2, [r2, #0]
 8000b20:	4838      	ldr	r0, [pc, #224]	; (8000c04 <HAL_ADC_ConvHalfCpltCallback+0x144>)
 8000b22:	fa0f fa8a 	sxth.w	sl, sl
 8000b26:	0909      	lsrs	r1, r1, #4
 8000b28:	fb0a f101 	mul.w	r1, sl, r1
 8000b2c:	fbb1 f1fe 	udiv	r1, r1, lr
 8000b30:	4379      	muls	r1, r7
 8000b32:	fbb1 f1f6 	udiv	r1, r1, r6
 8000b36:	eba1 0109 	sub.w	r1, r1, r9
 8000b3a:	f8bc 9000 	ldrh.w	r9, [ip]
 8000b3e:	f8d8 c008 	ldr.w	ip, [r8, #8]
 8000b42:	f06f 0531 	mvn.w	r5, #49	; 0x31
 8000b46:	436b      	muls	r3, r5
 8000b48:	fa0f f989 	sxth.w	r9, r9
 8000b4c:	0912      	lsrs	r2, r2, #4
 8000b4e:	4369      	muls	r1, r5
 8000b50:	2b00      	cmp	r3, #0
 8000b52:	fb09 f202 	mul.w	r2, r9, r2
 8000b56:	fbb2 f2fe 	udiv	r2, r2, lr
 8000b5a:	fb07 f202 	mul.w	r2, r7, r2
 8000b5e:	fbb2 f2f6 	udiv	r2, r2, r6
 8000b62:	eba2 020c 	sub.w	r2, r2, ip
 8000b66:	fb05 f202 	mul.w	r2, r5, r2
 8000b6a:	6003      	str	r3, [r0, #0]
 8000b6c:	bfb8      	it	lt
 8000b6e:	425b      	neglt	r3, r3
 8000b70:	2900      	cmp	r1, #0
 8000b72:	6041      	str	r1, [r0, #4]
 8000b74:	bfb8      	it	lt
 8000b76:	4249      	neglt	r1, r1
 8000b78:	2a00      	cmp	r2, #0
 8000b7a:	6082      	str	r2, [r0, #8]
 8000b7c:	440b      	add	r3, r1
 8000b7e:	bfb8      	it	lt
 8000b80:	4252      	neglt	r2, r2
 8000b82:	4413      	add	r3, r2
 8000b84:	105b      	asrs	r3, r3, #1
 8000b86:	60c3      	str	r3, [r0, #12]
 8000b88:	4b1f      	ldr	r3, [pc, #124]	; (8000c08 <HAL_ADC_ConvHalfCpltCallback+0x148>)
 8000b8a:	681b      	ldr	r3, [r3, #0]
 8000b8c:	4798      	blx	r3
 8000b8e:	4b1f      	ldr	r3, [pc, #124]	; (8000c0c <HAL_ADC_ConvHalfCpltCallback+0x14c>)
 8000b90:	429c      	cmp	r4, r3
 8000b92:	d12f      	bne.n	8000bf4 <HAL_ADC_ConvHalfCpltCallback+0x134>
 8000b94:	491e      	ldr	r1, [pc, #120]	; (8000c10 <HAL_ADC_ConvHalfCpltCallback+0x150>)
 8000b96:	4a1f      	ldr	r2, [pc, #124]	; (8000c14 <HAL_ADC_ConvHalfCpltCallback+0x154>)
 8000b98:	680b      	ldr	r3, [r1, #0]
 8000b9a:	8814      	ldrh	r4, [r2, #0]
 8000b9c:	481e      	ldr	r0, [pc, #120]	; (8000c18 <HAL_ADC_ConvHalfCpltCallback+0x158>)
 8000b9e:	b224      	sxth	r4, r4
 8000ba0:	091b      	lsrs	r3, r3, #4
 8000ba2:	4363      	muls	r3, r4
 8000ba4:	f640 74ff 	movw	r4, #4095	; 0xfff
 8000ba8:	fbb3 f3f4 	udiv	r3, r3, r4
 8000bac:	7183      	strb	r3, [r0, #6]
 8000bae:	684b      	ldr	r3, [r1, #4]
 8000bb0:	8815      	ldrh	r5, [r2, #0]
 8000bb2:	091b      	lsrs	r3, r3, #4
 8000bb4:	b22d      	sxth	r5, r5
 8000bb6:	436b      	muls	r3, r5
 8000bb8:	fbb3 f3f4 	udiv	r3, r3, r4
 8000bbc:	71c3      	strb	r3, [r0, #7]
 8000bbe:	688b      	ldr	r3, [r1, #8]
 8000bc0:	8815      	ldrh	r5, [r2, #0]
 8000bc2:	091b      	lsrs	r3, r3, #4
 8000bc4:	b22d      	sxth	r5, r5
 8000bc6:	436b      	muls	r3, r5
 8000bc8:	2522      	movs	r5, #34	; 0x22
 8000bca:	436b      	muls	r3, r5
 8000bcc:	fbb3 f3f4 	udiv	r3, r3, r4
 8000bd0:	6003      	str	r3, [r0, #0]
 8000bd2:	68cb      	ldr	r3, [r1, #12]
 8000bd4:	8812      	ldrh	r2, [r2, #0]
 8000bd6:	091b      	lsrs	r3, r3, #4
 8000bd8:	b212      	sxth	r2, r2
 8000bda:	4353      	muls	r3, r2
 8000bdc:	2239      	movs	r2, #57	; 0x39
 8000bde:	4353      	muls	r3, r2
 8000be0:	f649 72f6 	movw	r2, #40950	; 0x9ff6
 8000be4:	fbb3 f3f2 	udiv	r3, r3, r2
 8000be8:	8083      	strh	r3, [r0, #4]
 8000bea:	4b0c      	ldr	r3, [pc, #48]	; (8000c1c <HAL_ADC_ConvHalfCpltCallback+0x15c>)
 8000bec:	e8bd 47f0 	ldmia.w	sp!, {r4, r5, r6, r7, r8, r9, sl, lr}
 8000bf0:	681b      	ldr	r3, [r3, #0]
 8000bf2:	4718      	bx	r3
 8000bf4:	e8bd 87f0 	ldmia.w	sp!, {r4, r5, r6, r7, r8, r9, sl, pc}
 8000bf8:	20000214 	.word	0x20000214
 8000bfc:	20000000 	.word	0x20000000
 8000c00:	2000018c 	.word	0x2000018c
 8000c04:	200001ac 	.word	0x200001ac
 8000c08:	2000014c 	.word	0x2000014c
 8000c0c:	20000280 	.word	0x20000280
 8000c10:	20000158 	.word	0x20000158
 8000c14:	20000150 	.word	0x20000150
 8000c18:	20000178 	.word	0x20000178
 8000c1c:	20000154 	.word	0x20000154
 8000c20:	20000180 	.word	0x20000180

08000c24 <HAL_ADC_ConvCpltCallback>:
 8000c24:	4b4d      	ldr	r3, [pc, #308]	; (8000d5c <HAL_ADC_ConvCpltCallback+0x138>)
 8000c26:	4298      	cmp	r0, r3
 8000c28:	e92d 47f0 	stmdb	sp!, {r4, r5, r6, r7, r8, r9, sl, lr}
 8000c2c:	4604      	mov	r4, r0
 8000c2e:	d160      	bne.n	8000cf2 <HAL_ADC_ConvCpltCallback+0xce>
 8000c30:	4b4b      	ldr	r3, [pc, #300]	; (8000d60 <HAL_ADC_ConvCpltCallback+0x13c>)
 8000c32:	4a4c      	ldr	r2, [pc, #304]	; (8000d64 <HAL_ADC_ConvCpltCallback+0x140>)
 8000c34:	681b      	ldr	r3, [r3, #0]
 8000c36:	69d1      	ldr	r1, [r2, #28]
 8000c38:	881b      	ldrh	r3, [r3, #0]
 8000c3a:	f8df c13c 	ldr.w	ip, [pc, #316]	; 8000d78 <HAL_ADC_ConvCpltCallback+0x154>
 8000c3e:	f8df 8144 	ldr.w	r8, [pc, #324]	; 8000d84 <HAL_ADC_ConvCpltCallback+0x160>
 8000c42:	f640 30b8 	movw	r0, #3000	; 0xbb8
 8000c46:	4343      	muls	r3, r0
 8000c48:	0909      	lsrs	r1, r1, #4
 8000c4a:	fbb3 f3f1 	udiv	r3, r3, r1
 8000c4e:	b21b      	sxth	r3, r3
 8000c50:	f8ac 3000 	strh.w	r3, [ip]
 8000c54:	6993      	ldr	r3, [r2, #24]
 8000c56:	f8bc 0000 	ldrh.w	r0, [ip]
 8000c5a:	f8d8 1000 	ldr.w	r1, [r8]
 8000c5e:	2799      	movs	r7, #153	; 0x99
 8000c60:	b200      	sxth	r0, r0
 8000c62:	091b      	lsrs	r3, r3, #4
 8000c64:	f640 7eff 	movw	lr, #4095	; 0xfff
 8000c68:	2664      	movs	r6, #100	; 0x64
 8000c6a:	4343      	muls	r3, r0
 8000c6c:	fbb3 f3fe 	udiv	r3, r3, lr
 8000c70:	437b      	muls	r3, r7
 8000c72:	fbb3 f3f6 	udiv	r3, r3, r6
 8000c76:	1a5b      	subs	r3, r3, r1
 8000c78:	6951      	ldr	r1, [r2, #20]
 8000c7a:	f8bc a000 	ldrh.w	sl, [ip]
 8000c7e:	f8d8 9004 	ldr.w	r9, [r8, #4]
 8000c82:	6912      	ldr	r2, [r2, #16]
 8000c84:	4838      	ldr	r0, [pc, #224]	; (8000d68 <HAL_ADC_ConvCpltCallback+0x144>)
 8000c86:	fa0f fa8a 	sxth.w	sl, sl
 8000c8a:	0909      	lsrs	r1, r1, #4
 8000c8c:	fb0a f101 	mul.w	r1, sl, r1
 8000c90:	fbb1 f1fe 	udiv	r1, r1, lr
 8000c94:	4379      	muls	r1, r7
 8000c96:	fbb1 f1f6 	udiv	r1, r1, r6
 8000c9a:	eba1 0109 	sub.w	r1, r1, r9
 8000c9e:	f8bc 9000 	ldrh.w	r9, [ip]
 8000ca2:	f8d8 c008 	ldr.w	ip, [r8, #8]
 8000ca6:	f06f 0531 	mvn.w	r5, #49	; 0x31
 8000caa:	436b      	muls	r3, r5
 8000cac:	fa0f f989 	sxth.w	r9, r9
 8000cb0:	0912      	lsrs	r2, r2, #4
 8000cb2:	4369      	muls	r1, r5
 8000cb4:	2b00      	cmp	r3, #0
 8000cb6:	fb09 f202 	mul.w	r2, r9, r2
 8000cba:	fbb2 f2fe 	udiv	r2, r2, lr
 8000cbe:	fb07 f202 	mul.w	r2, r7, r2
 8000cc2:	fbb2 f2f6 	udiv	r2, r2, r6
 8000cc6:	eba2 020c 	sub.w	r2, r2, ip
 8000cca:	fb05 f202 	mul.w	r2, r5, r2
 8000cce:	6003      	str	r3, [r0, #0]
 8000cd0:	bfb8      	it	lt
 8000cd2:	425b      	neglt	r3, r3
 8000cd4:	2900      	cmp	r1, #0
 8000cd6:	6041      	str	r1, [r0, #4]
 8000cd8:	bfb8      	it	lt
 8000cda:	4249      	neglt	r1, r1
 8000cdc:	2a00      	cmp	r2, #0
 8000cde:	6082      	str	r2, [r0, #8]
 8000ce0:	440b      	add	r3, r1
 8000ce2:	bfb8      	it	lt
 8000ce4:	4252      	neglt	r2, r2
 8000ce6:	4413      	add	r3, r2
 8000ce8:	105b      	asrs	r3, r3, #1
 8000cea:	60c3      	str	r3, [r0, #12]
 8000cec:	4b1f      	ldr	r3, [pc, #124]	; (8000d6c <HAL_ADC_ConvCpltCallback+0x148>)
 8000cee:	681b      	ldr	r3, [r3, #0]
 8000cf0:	4798      	blx	r3
 8000cf2:	4b1f      	ldr	r3, [pc, #124]	; (8000d70 <HAL_ADC_ConvCpltCallback+0x14c>)
 8000cf4:	429c      	cmp	r4, r3
 8000cf6:	d12f      	bne.n	8000d58 <HAL_ADC_ConvCpltCallback+0x134>
 8000cf8:	491e      	ldr	r1, [pc, #120]	; (8000d74 <HAL_ADC_ConvCpltCallback+0x150>)
 8000cfa:	4a1f      	ldr	r2, [pc, #124]	; (8000d78 <HAL_ADC_ConvCpltCallback+0x154>)
 8000cfc:	690b      	ldr	r3, [r1, #16]
 8000cfe:	8814      	ldrh	r4, [r2, #0]
 8000d00:	481e      	ldr	r0, [pc, #120]	; (8000d7c <HAL_ADC_ConvCpltCallback+0x158>)
 8000d02:	b224      	sxth	r4, r4
 8000d04:	091b      	lsrs	r3, r3, #4
 8000d06:	4363      	muls	r3, r4
 8000d08:	f640 74ff 	movw	r4, #4095	; 0xfff
 8000d0c:	fbb3 f3f4 	udiv	r3, r3, r4
 8000d10:	7183      	strb	r3, [r0, #6]
 8000d12:	694b      	ldr	r3, [r1, #20]
 8000d14:	8815      	ldrh	r5, [r2, #0]
 8000d16:	091b      	lsrs	r3, r3, #4
 8000d18:	b22d      	sxth	r5, r5
 8000d1a:	436b      	muls	r3, r5
 8000d1c:	fbb3 f3f4 	udiv	r3, r3, r4
 8000d20:	71c3      	strb	r3, [r0, #7]
 8000d22:	698b      	ldr	r3, [r1, #24]
 8000d24:	8815      	ldrh	r5, [r2, #0]
 8000d26:	091b      	lsrs	r3, r3, #4
 8000d28:	b22d      	sxth	r5, r5
 8000d2a:	436b      	muls	r3, r5
 8000d2c:	2522      	movs	r5, #34	; 0x22
 8000d2e:	436b      	muls	r3, r5
 8000d30:	fbb3 f3f4 	udiv	r3, r3, r4
 8000d34:	6003      	str	r3, [r0, #0]
 8000d36:	69cb      	ldr	r3, [r1, #28]
 8000d38:	8812      	ldrh	r2, [r2, #0]
 8000d3a:	091b      	lsrs	r3, r3, #4
 8000d3c:	b212      	sxth	r2, r2
 8000d3e:	4353      	muls	r3, r2
 8000d40:	2239      	movs	r2, #57	; 0x39
 8000d42:	4353      	muls	r3, r2
 8000d44:	f649 72f6 	movw	r2, #40950	; 0x9ff6
 8000d48:	fbb3 f3f2 	udiv	r3, r3, r2
 8000d4c:	8083      	strh	r3, [r0, #4]
 8000d4e:	4b0c      	ldr	r3, [pc, #48]	; (8000d80 <HAL_ADC_ConvCpltCallback+0x15c>)
 8000d50:	e8bd 47f0 	ldmia.w	sp!, {r4, r5, r6, r7, r8, r9, sl, lr}
 8000d54:	681b      	ldr	r3, [r3, #0]
 8000d56:	4718      	bx	r3
 8000d58:	e8bd 87f0 	ldmia.w	sp!, {r4, r5, r6, r7, r8, r9, sl, pc}
 8000d5c:	20000214 	.word	0x20000214
 8000d60:	20000000 	.word	0x20000000
 8000d64:	2000018c 	.word	0x2000018c
 8000d68:	200001ac 	.word	0x200001ac
 8000d6c:	2000014c 	.word	0x2000014c
 8000d70:	20000280 	.word	0x20000280
 8000d74:	20000158 	.word	0x20000158
 8000d78:	20000150 	.word	0x20000150
 8000d7c:	20000178 	.word	0x20000178
 8000d80:	20000154 	.word	0x20000154
 8000d84:	20000180 	.word	0x20000180

08000d88 <HAL_FDCAN_RxFifo0Callback>:
 8000d88:	b570      	push	{r4, r5, r6, lr}
 8000d8a:	b09a      	sub	sp, #104	; 0x68
 8000d8c:	ab0a      	add	r3, sp, #40	; 0x28
 8000d8e:	466a      	mov	r2, sp
 8000d90:	2140      	movs	r1, #64	; 0x40
 8000d92:	f002 f9f9 	bl	8003188 <HAL_FDCAN_GetRxMessage>
 8000d96:	b108      	cbz	r0, 8000d9c <HAL_FDCAN_RxFifo0Callback+0x14>
 8000d98:	f000 fc03 	bl	80015a2 <Error_Handler>
 8000d9c:	4c08      	ldr	r4, [pc, #32]	; (8000dc0 <HAL_FDCAN_RxFifo0Callback+0x38>)
 8000d9e:	4e09      	ldr	r6, [pc, #36]	; (8000dc4 <HAL_FDCAN_RxFifo0Callback+0x3c>)
 8000da0:	2500      	movs	r5, #0
 8000da2:	6833      	ldr	r3, [r6, #0]
 8000da4:	42ab      	cmp	r3, r5
 8000da6:	d801      	bhi.n	8000dac <HAL_FDCAN_RxFifo0Callback+0x24>
 8000da8:	b01a      	add	sp, #104	; 0x68
 8000daa:	bd70      	pop	{r4, r5, r6, pc}
 8000dac:	6862      	ldr	r2, [r4, #4]
 8000dae:	9b00      	ldr	r3, [sp, #0]
 8000db0:	429a      	cmp	r2, r3
 8000db2:	d102      	bne.n	8000dba <HAL_FDCAN_RxFifo0Callback+0x32>
 8000db4:	6823      	ldr	r3, [r4, #0]
 8000db6:	a80a      	add	r0, sp, #40	; 0x28
 8000db8:	4798      	blx	r3
 8000dba:	3501      	adds	r5, #1
 8000dbc:	3408      	adds	r4, #8
 8000dbe:	e7f0      	b.n	8000da2 <HAL_FDCAN_RxFifo0Callback+0x1a>
 8000dc0:	200001bc 	.word	0x200001bc
 8000dc4:	2000020c 	.word	0x2000020c

08000dc8 <MX_ADC1_Init>:
 8000dc8:	b510      	push	{r4, lr}
 8000dca:	2400      	movs	r4, #0
 8000dcc:	b08c      	sub	sp, #48	; 0x30
 8000dce:	2220      	movs	r2, #32
 8000dd0:	4621      	mov	r1, r4
 8000dd2:	a804      	add	r0, sp, #16
 8000dd4:	e9cd 4401 	strd	r4, r4, [sp, #4]
 8000dd8:	9403      	str	r4, [sp, #12]
 8000dda:	f004 fe77 	bl	8005acc <memset>
 8000dde:	4834      	ldr	r0, [pc, #208]	; (8000eb0 <MX_ADC1_Init+0xe8>)
 8000de0:	f04f 42a0 	mov.w	r2, #1342177280	; 0x50000000
 8000de4:	f44f 3340 	mov.w	r3, #196608	; 0x30000
 8000de8:	e9c0 2300 	strd	r2, r3, [r0]
 8000dec:	2301      	movs	r3, #1
 8000dee:	2208      	movs	r2, #8
 8000df0:	e9c0 3205 	strd	r3, r2, [r0, #20]
 8000df4:	f44f 7280 	mov.w	r2, #256	; 0x100
 8000df8:	8382      	strh	r2, [r0, #28]
 8000dfa:	2204      	movs	r2, #4
 8000dfc:	6202      	str	r2, [r0, #32]
 8000dfe:	f44f 5280 	mov.w	r2, #4096	; 0x1000
 8000e02:	63c2      	str	r2, [r0, #60]	; 0x3c
 8000e04:	220c      	movs	r2, #12
 8000e06:	e9c0 4402 	strd	r4, r4, [r0, #8]
 8000e0a:	e9c0 440b 	strd	r4, r4, [r0, #44]	; 0x2c
 8000e0e:	e9c0 2411 	strd	r2, r4, [r0, #68]	; 0x44
 8000e12:	e9c0 4313 	strd	r4, r3, [r0, #76]	; 0x4c
 8000e16:	6104      	str	r4, [r0, #16]
 8000e18:	f880 4024 	strb.w	r4, [r0, #36]	; 0x24
 8000e1c:	f880 3038 	strb.w	r3, [r0, #56]	; 0x38
 8000e20:	f880 3040 	strb.w	r3, [r0, #64]	; 0x40
 8000e24:	f000 ffd4 	bl	8001dd0 <HAL_ADC_Init>
 8000e28:	b108      	cbz	r0, 8000e2e <MX_ADC1_Init+0x66>
 8000e2a:	f000 fbba 	bl	80015a2 <Error_Handler>
 8000e2e:	4820      	ldr	r0, [pc, #128]	; (8000eb0 <MX_ADC1_Init+0xe8>)
 8000e30:	9401      	str	r4, [sp, #4]
 8000e32:	a901      	add	r1, sp, #4
 8000e34:	f001 fd30 	bl	8002898 <HAL_ADCEx_MultiModeConfigChannel>
 8000e38:	b108      	cbz	r0, 8000e3e <MX_ADC1_Init+0x76>
 8000e3a:	f000 fbb2 	bl	80015a2 <Error_Handler>
 8000e3e:	4c1d      	ldr	r4, [pc, #116]	; (8000eb4 <MX_ADC1_Init+0xec>)
 8000e40:	481b      	ldr	r0, [pc, #108]	; (8000eb0 <MX_ADC1_Init+0xe8>)
 8000e42:	2306      	movs	r3, #6
 8000e44:	e9cd 4304 	strd	r4, r3, [sp, #16]
 8000e48:	f04f 0c03 	mov.w	ip, #3
 8000e4c:	237f      	movs	r3, #127	; 0x7f
 8000e4e:	e9cd c306 	strd	ip, r3, [sp, #24]
 8000e52:	f04f 0e04 	mov.w	lr, #4
 8000e56:	2300      	movs	r3, #0
 8000e58:	a904      	add	r1, sp, #16
 8000e5a:	e9cd e308 	strd	lr, r3, [sp, #32]
 8000e5e:	f001 fa17 	bl	8002290 <HAL_ADC_ConfigChannel>
 8000e62:	b108      	cbz	r0, 8000e68 <MX_ADC1_Init+0xa0>
 8000e64:	f000 fb9d 	bl	80015a2 <Error_Handler>
 8000e68:	4813      	ldr	r0, [pc, #76]	; (8000eb8 <MX_ADC1_Init+0xf0>)
 8000e6a:	230c      	movs	r3, #12
 8000e6c:	e9cd 0304 	strd	r0, r3, [sp, #16]
 8000e70:	a904      	add	r1, sp, #16
 8000e72:	480f      	ldr	r0, [pc, #60]	; (8000eb0 <MX_ADC1_Init+0xe8>)
 8000e74:	f001 fa0c 	bl	8002290 <HAL_ADC_ConfigChannel>
 8000e78:	b108      	cbz	r0, 8000e7e <MX_ADC1_Init+0xb6>
 8000e7a:	f000 fb92 	bl	80015a2 <Error_Handler>
 8000e7e:	490f      	ldr	r1, [pc, #60]	; (8000ebc <MX_ADC1_Init+0xf4>)
 8000e80:	480b      	ldr	r0, [pc, #44]	; (8000eb0 <MX_ADC1_Init+0xe8>)
 8000e82:	2312      	movs	r3, #18
 8000e84:	e9cd 1304 	strd	r1, r3, [sp, #16]
 8000e88:	a904      	add	r1, sp, #16
 8000e8a:	f001 fa01 	bl	8002290 <HAL_ADC_ConfigChannel>
 8000e8e:	b108      	cbz	r0, 8000e94 <MX_ADC1_Init+0xcc>
 8000e90:	f000 fb87 	bl	80015a2 <Error_Handler>
 8000e94:	4a0a      	ldr	r2, [pc, #40]	; (8000ec0 <MX_ADC1_Init+0xf8>)
 8000e96:	4806      	ldr	r0, [pc, #24]	; (8000eb0 <MX_ADC1_Init+0xe8>)
 8000e98:	2318      	movs	r3, #24
 8000e9a:	a904      	add	r1, sp, #16
 8000e9c:	e9cd 2304 	strd	r2, r3, [sp, #16]
 8000ea0:	f001 f9f6 	bl	8002290 <HAL_ADC_ConfigChannel>
 8000ea4:	b108      	cbz	r0, 8000eaa <MX_ADC1_Init+0xe2>
 8000ea6:	f000 fb7c 	bl	80015a2 <Error_Handler>
 8000eaa:	b00c      	add	sp, #48	; 0x30
 8000eac:	bd10      	pop	{r4, pc}
 8000eae:	bf00      	nop
 8000eb0:	20000214 	.word	0x20000214
 8000eb4:	04300002 	.word	0x04300002
 8000eb8:	08600004 	.word	0x08600004
 8000ebc:	0c900008 	.word	0x0c900008
 8000ec0:	cb840000 	.word	0xcb840000

08000ec4 <MX_ADC2_Init>:
 8000ec4:	b510      	push	{r4, lr}
 8000ec6:	b088      	sub	sp, #32
 8000ec8:	2220      	movs	r2, #32
 8000eca:	2100      	movs	r1, #0
 8000ecc:	4668      	mov	r0, sp
 8000ece:	f004 fdfd 	bl	8005acc <memset>
 8000ed2:	4830      	ldr	r0, [pc, #192]	; (8000f94 <MX_ADC2_Init+0xd0>)
 8000ed4:	4a30      	ldr	r2, [pc, #192]	; (8000f98 <MX_ADC2_Init+0xd4>)
 8000ed6:	f44f 3340 	mov.w	r3, #196608	; 0x30000
 8000eda:	2104      	movs	r1, #4
 8000edc:	e9c0 2300 	strd	r2, r3, [r0]
 8000ee0:	2201      	movs	r2, #1
 8000ee2:	e9c0 2105 	strd	r2, r1, [r0, #20]
 8000ee6:	f44f 7480 	mov.w	r4, #256	; 0x100
 8000eea:	6201      	str	r1, [r0, #32]
 8000eec:	f44f 5180 	mov.w	r1, #4096	; 0x1000
 8000ef0:	2300      	movs	r3, #0
 8000ef2:	63c1      	str	r1, [r0, #60]	; 0x3c
 8000ef4:	8384      	strh	r4, [r0, #28]
 8000ef6:	210c      	movs	r1, #12
 8000ef8:	e9c0 3302 	strd	r3, r3, [r0, #8]
 8000efc:	e9c0 330b 	strd	r3, r3, [r0, #44]	; 0x2c
 8000f00:	e9c0 1311 	strd	r1, r3, [r0, #68]	; 0x44
 8000f04:	e9c0 3213 	strd	r3, r2, [r0, #76]	; 0x4c
 8000f08:	6103      	str	r3, [r0, #16]
 8000f0a:	f880 3024 	strb.w	r3, [r0, #36]	; 0x24
 8000f0e:	f880 2038 	strb.w	r2, [r0, #56]	; 0x38
 8000f12:	f880 2040 	strb.w	r2, [r0, #64]	; 0x40
 8000f16:	f000 ff5b 	bl	8001dd0 <HAL_ADC_Init>
 8000f1a:	b108      	cbz	r0, 8000f20 <MX_ADC2_Init+0x5c>
 8000f1c:	f000 fb41 	bl	80015a2 <Error_Handler>
 8000f20:	4c1e      	ldr	r4, [pc, #120]	; (8000f9c <MX_ADC2_Init+0xd8>)
 8000f22:	481c      	ldr	r0, [pc, #112]	; (8000f94 <MX_ADC2_Init+0xd0>)
 8000f24:	2306      	movs	r3, #6
 8000f26:	e9cd 4300 	strd	r4, r3, [sp]
 8000f2a:	f04f 0c07 	mov.w	ip, #7
 8000f2e:	237f      	movs	r3, #127	; 0x7f
 8000f30:	e9cd c302 	strd	ip, r3, [sp, #8]
 8000f34:	f04f 0e04 	mov.w	lr, #4
 8000f38:	2300      	movs	r3, #0
 8000f3a:	4669      	mov	r1, sp
 8000f3c:	e9cd e304 	strd	lr, r3, [sp, #16]
 8000f40:	f001 f9a6 	bl	8002290 <HAL_ADC_ConfigChannel>
 8000f44:	b108      	cbz	r0, 8000f4a <MX_ADC2_Init+0x86>
 8000f46:	f000 fb2c 	bl	80015a2 <Error_Handler>
 8000f4a:	4815      	ldr	r0, [pc, #84]	; (8000fa0 <MX_ADC2_Init+0xdc>)
 8000f4c:	230c      	movs	r3, #12
 8000f4e:	e9cd 0300 	strd	r0, r3, [sp]
 8000f52:	4669      	mov	r1, sp
 8000f54:	2300      	movs	r3, #0
 8000f56:	480f      	ldr	r0, [pc, #60]	; (8000f94 <MX_ADC2_Init+0xd0>)
 8000f58:	9302      	str	r3, [sp, #8]
 8000f5a:	f001 f999 	bl	8002290 <HAL_ADC_ConfigChannel>
 8000f5e:	b108      	cbz	r0, 8000f64 <MX_ADC2_Init+0xa0>
 8000f60:	f000 fb1f 	bl	80015a2 <Error_Handler>
 8000f64:	490f      	ldr	r1, [pc, #60]	; (8000fa4 <MX_ADC2_Init+0xe0>)
 8000f66:	480b      	ldr	r0, [pc, #44]	; (8000f94 <MX_ADC2_Init+0xd0>)
 8000f68:	2312      	movs	r3, #18
 8000f6a:	e9cd 1300 	strd	r1, r3, [sp]
 8000f6e:	4669      	mov	r1, sp
 8000f70:	f001 f98e 	bl	8002290 <HAL_ADC_ConfigChannel>
 8000f74:	b108      	cbz	r0, 8000f7a <MX_ADC2_Init+0xb6>
 8000f76:	f000 fb14 	bl	80015a2 <Error_Handler>
 8000f7a:	4a0b      	ldr	r2, [pc, #44]	; (8000fa8 <MX_ADC2_Init+0xe4>)
 8000f7c:	4805      	ldr	r0, [pc, #20]	; (8000f94 <MX_ADC2_Init+0xd0>)
 8000f7e:	2318      	movs	r3, #24
 8000f80:	4669      	mov	r1, sp
 8000f82:	e9cd 2300 	strd	r2, r3, [sp]
 8000f86:	f001 f983 	bl	8002290 <HAL_ADC_ConfigChannel>
 8000f8a:	b108      	cbz	r0, 8000f90 <MX_ADC2_Init+0xcc>
 8000f8c:	f000 fb09 	bl	80015a2 <Error_Handler>
 8000f90:	b008      	add	sp, #32
 8000f92:	bd10      	pop	{r4, pc}
 8000f94:	20000280 	.word	0x20000280
 8000f98:	50000100 	.word	0x50000100
 8000f9c:	32601000 	.word	0x32601000
 8000fa0:	3ac04000 	.word	0x3ac04000
 8000fa4:	36902000 	.word	0x36902000
 8000fa8:	0c900008 	.word	0x0c900008

08000fac <HAL_ADC_MspInit>:
 8000fac:	b570      	push	{r4, r5, r6, lr}
 8000fae:	b09c      	sub	sp, #112	; 0x70
 8000fb0:	4605      	mov	r5, r0
 8000fb2:	2214      	movs	r2, #20
 8000fb4:	2100      	movs	r1, #0
 8000fb6:	a806      	add	r0, sp, #24
 8000fb8:	f004 fd88 	bl	8005acc <memset>
 8000fbc:	2244      	movs	r2, #68	; 0x44
 8000fbe:	2100      	movs	r1, #0
 8000fc0:	a80b      	add	r0, sp, #44	; 0x2c
 8000fc2:	f004 fd83 	bl	8005acc <memset>
 8000fc6:	682b      	ldr	r3, [r5, #0]
 8000fc8:	f1b3 4fa0 	cmp.w	r3, #1342177280	; 0x50000000
 8000fcc:	d153      	bne.n	8001076 <HAL_ADC_MspInit+0xca>
 8000fce:	f44f 4300 	mov.w	r3, #32768	; 0x8000
 8000fd2:	930b      	str	r3, [sp, #44]	; 0x2c
 8000fd4:	a80b      	add	r0, sp, #44	; 0x2c
 8000fd6:	f04f 5300 	mov.w	r3, #536870912	; 0x20000000
 8000fda:	931a      	str	r3, [sp, #104]	; 0x68
 8000fdc:	f002 fefa 	bl	8003dd4 <HAL_RCCEx_PeriphCLKConfig>
 8000fe0:	b108      	cbz	r0, 8000fe6 <HAL_ADC_MspInit+0x3a>
 8000fe2:	f000 fade 	bl	80015a2 <Error_Handler>
 8000fe6:	4a49      	ldr	r2, [pc, #292]	; (800110c <HAL_ADC_MspInit+0x160>)
 8000fe8:	6813      	ldr	r3, [r2, #0]
 8000fea:	3301      	adds	r3, #1
 8000fec:	2b01      	cmp	r3, #1
 8000fee:	6013      	str	r3, [r2, #0]
 8000ff0:	4b47      	ldr	r3, [pc, #284]	; (8001110 <HAL_ADC_MspInit+0x164>)
 8000ff2:	d108      	bne.n	8001006 <HAL_ADC_MspInit+0x5a>
 8000ff4:	6cda      	ldr	r2, [r3, #76]	; 0x4c
 8000ff6:	f442 5200 	orr.w	r2, r2, #8192	; 0x2000
 8000ffa:	64da      	str	r2, [r3, #76]	; 0x4c
 8000ffc:	6cda      	ldr	r2, [r3, #76]	; 0x4c
 8000ffe:	f402 5200 	and.w	r2, r2, #8192	; 0x2000
 8001002:	9201      	str	r2, [sp, #4]
 8001004:	9a01      	ldr	r2, [sp, #4]
 8001006:	6cda      	ldr	r2, [r3, #76]	; 0x4c
 8001008:	f042 0201 	orr.w	r2, r2, #1
 800100c:	64da      	str	r2, [r3, #76]	; 0x4c
 800100e:	6cdb      	ldr	r3, [r3, #76]	; 0x4c
 8001010:	f003 0301 	and.w	r3, r3, #1
 8001014:	9302      	str	r3, [sp, #8]
 8001016:	9b02      	ldr	r3, [sp, #8]
 8001018:	2407      	movs	r4, #7
 800101a:	2303      	movs	r3, #3
 800101c:	e9cd 4306 	strd	r4, r3, [sp, #24]
 8001020:	2600      	movs	r6, #0
 8001022:	4c3c      	ldr	r4, [pc, #240]	; (8001114 <HAL_ADC_MspInit+0x168>)
 8001024:	9608      	str	r6, [sp, #32]
 8001026:	a906      	add	r1, sp, #24
 8001028:	f04f 4090 	mov.w	r0, #1207959552	; 0x48000000
 800102c:	f002 fa20 	bl	8003470 <HAL_GPIO_Init>
 8001030:	4b39      	ldr	r3, [pc, #228]	; (8001118 <HAL_ADC_MspInit+0x16c>)
 8001032:	6023      	str	r3, [r4, #0]
 8001034:	2305      	movs	r3, #5
 8001036:	e9c4 3601 	strd	r3, r6, [r4, #4]
 800103a:	2280      	movs	r2, #128	; 0x80
 800103c:	f44f 7300 	mov.w	r3, #512	; 0x200
 8001040:	e9c4 2304 	strd	r2, r3, [r4, #16]
 8001044:	f44f 6100 	mov.w	r1, #2048	; 0x800
 8001048:	2320      	movs	r3, #32
 800104a:	e9c4 1306 	strd	r1, r3, [r4, #24]
 800104e:	60e6      	str	r6, [r4, #12]
 8001050:	6226      	str	r6, [r4, #32]
 8001052:	4620      	mov	r0, r4
 8001054:	f001 fe4a 	bl	8002cec <HAL_DMA_Init>
 8001058:	b108      	cbz	r0, 800105e <HAL_ADC_MspInit+0xb2>
 800105a:	f000 faa2 	bl	80015a2 <Error_Handler>
 800105e:	2200      	movs	r2, #0
 8001060:	656c      	str	r4, [r5, #84]	; 0x54
 8001062:	2012      	movs	r0, #18
 8001064:	62a5      	str	r5, [r4, #40]	; 0x28
 8001066:	4611      	mov	r1, r2
 8001068:	f001 fc8e 	bl	8002988 <HAL_NVIC_SetPriority>
 800106c:	2012      	movs	r0, #18
 800106e:	f001 fcbd 	bl	80029ec <HAL_NVIC_EnableIRQ>
 8001072:	b01c      	add	sp, #112	; 0x70
 8001074:	bd70      	pop	{r4, r5, r6, pc}
 8001076:	4a29      	ldr	r2, [pc, #164]	; (800111c <HAL_ADC_MspInit+0x170>)
 8001078:	4293      	cmp	r3, r2
 800107a:	d1fa      	bne.n	8001072 <HAL_ADC_MspInit+0xc6>
 800107c:	f44f 4300 	mov.w	r3, #32768	; 0x8000
 8001080:	930b      	str	r3, [sp, #44]	; 0x2c
 8001082:	a80b      	add	r0, sp, #44	; 0x2c
 8001084:	f04f 5300 	mov.w	r3, #536870912	; 0x20000000
 8001088:	931a      	str	r3, [sp, #104]	; 0x68
 800108a:	f002 fea3 	bl	8003dd4 <HAL_RCCEx_PeriphCLKConfig>
 800108e:	b108      	cbz	r0, 8001094 <HAL_ADC_MspInit+0xe8>
 8001090:	f000 fa87 	bl	80015a2 <Error_Handler>
 8001094:	4a1d      	ldr	r2, [pc, #116]	; (800110c <HAL_ADC_MspInit+0x160>)
 8001096:	6813      	ldr	r3, [r2, #0]
 8001098:	3301      	adds	r3, #1
 800109a:	2b01      	cmp	r3, #1
 800109c:	6013      	str	r3, [r2, #0]
 800109e:	4b1c      	ldr	r3, [pc, #112]	; (8001110 <HAL_ADC_MspInit+0x164>)
 80010a0:	d108      	bne.n	80010b4 <HAL_ADC_MspInit+0x108>
 80010a2:	6cda      	ldr	r2, [r3, #76]	; 0x4c
 80010a4:	f442 5200 	orr.w	r2, r2, #8192	; 0x2000
 80010a8:	64da      	str	r2, [r3, #76]	; 0x4c
 80010aa:	6cda      	ldr	r2, [r3, #76]	; 0x4c
 80010ac:	f402 5200 	and.w	r2, r2, #8192	; 0x2000
 80010b0:	9203      	str	r2, [sp, #12]
 80010b2:	9a03      	ldr	r2, [sp, #12]
 80010b4:	6cda      	ldr	r2, [r3, #76]	; 0x4c
 80010b6:	f042 0201 	orr.w	r2, r2, #1
 80010ba:	64da      	str	r2, [r3, #76]	; 0x4c
 80010bc:	6cda      	ldr	r2, [r3, #76]	; 0x4c
 80010be:	f002 0201 	and.w	r2, r2, #1
 80010c2:	9204      	str	r2, [sp, #16]
 80010c4:	9a04      	ldr	r2, [sp, #16]
 80010c6:	6cda      	ldr	r2, [r3, #76]	; 0x4c
 80010c8:	f042 0202 	orr.w	r2, r2, #2
 80010cc:	64da      	str	r2, [r3, #76]	; 0x4c
 80010ce:	6cdb      	ldr	r3, [r3, #76]	; 0x4c
 80010d0:	f003 0302 	and.w	r3, r3, #2
 80010d4:	9305      	str	r3, [sp, #20]
 80010d6:	2403      	movs	r4, #3
 80010d8:	9b05      	ldr	r3, [sp, #20]
 80010da:	2600      	movs	r6, #0
 80010dc:	2360      	movs	r3, #96	; 0x60
 80010de:	a906      	add	r1, sp, #24
 80010e0:	f04f 4090 	mov.w	r0, #1207959552	; 0x48000000
 80010e4:	e9cd 3406 	strd	r3, r4, [sp, #24]
 80010e8:	9608      	str	r6, [sp, #32]
 80010ea:	f002 f9c1 	bl	8003470 <HAL_GPIO_Init>
 80010ee:	f640 0304 	movw	r3, #2052	; 0x804
 80010f2:	e9cd 3406 	strd	r3, r4, [sp, #24]
 80010f6:	480a      	ldr	r0, [pc, #40]	; (8001120 <HAL_ADC_MspInit+0x174>)
 80010f8:	4c0a      	ldr	r4, [pc, #40]	; (8001124 <HAL_ADC_MspInit+0x178>)
 80010fa:	9608      	str	r6, [sp, #32]
 80010fc:	a906      	add	r1, sp, #24
 80010fe:	f002 f9b7 	bl	8003470 <HAL_GPIO_Init>
 8001102:	4b09      	ldr	r3, [pc, #36]	; (8001128 <HAL_ADC_MspInit+0x17c>)
 8001104:	6023      	str	r3, [r4, #0]
 8001106:	2324      	movs	r3, #36	; 0x24
 8001108:	e795      	b.n	8001036 <HAL_ADC_MspInit+0x8a>
 800110a:	bf00      	nop
 800110c:	20000210 	.word	0x20000210
 8001110:	40021000 	.word	0x40021000
 8001114:	200002ec 	.word	0x200002ec
 8001118:	40020008 	.word	0x40020008
 800111c:	50000100 	.word	0x50000100
 8001120:	48000400 	.word	0x48000400
 8001124:	2000034c 	.word	0x2000034c
 8001128:	4002001c 	.word	0x4002001c

0800112c <MX_DAC1_Init>:
 800112c:	b500      	push	{lr}
 800112e:	b08d      	sub	sp, #52	; 0x34
 8001130:	2230      	movs	r2, #48	; 0x30
 8001132:	2100      	movs	r1, #0
 8001134:	4668      	mov	r0, sp
 8001136:	f004 fcc9 	bl	8005acc <memset>
 800113a:	480e      	ldr	r0, [pc, #56]	; (8001174 <MX_DAC1_Init+0x48>)
 800113c:	4b0e      	ldr	r3, [pc, #56]	; (8001178 <MX_DAC1_Init+0x4c>)
 800113e:	6003      	str	r3, [r0, #0]
 8001140:	f001 fc76 	bl	8002a30 <HAL_DAC_Init>
 8001144:	b108      	cbz	r0, 800114a <MX_DAC1_Init+0x1e>
 8001146:	f000 fa2c 	bl	80015a2 <Error_Handler>
 800114a:	2200      	movs	r2, #0
 800114c:	2301      	movs	r3, #1
 800114e:	4809      	ldr	r0, [pc, #36]	; (8001174 <MX_DAC1_Init+0x48>)
 8001150:	9200      	str	r2, [sp, #0]
 8001152:	4669      	mov	r1, sp
 8001154:	e9cd 2202 	strd	r2, r2, [sp, #8]
 8001158:	e9cd 2204 	strd	r2, r2, [sp, #16]
 800115c:	e9cd 3206 	strd	r3, r2, [sp, #24]
 8001160:	f8ad 2004 	strh.w	r2, [sp, #4]
 8001164:	f001 fca8 	bl	8002ab8 <HAL_DAC_ConfigChannel>
 8001168:	b108      	cbz	r0, 800116e <MX_DAC1_Init+0x42>
 800116a:	f000 fa1a 	bl	80015a2 <Error_Handler>
 800116e:	b00d      	add	sp, #52	; 0x34
 8001170:	f85d fb04 	ldr.w	pc, [sp], #4
 8001174:	200003ac 	.word	0x200003ac
 8001178:	50000800 	.word	0x50000800

0800117c <HAL_DAC_MspInit>:
 800117c:	b510      	push	{r4, lr}
 800117e:	4604      	mov	r4, r0
 8001180:	b088      	sub	sp, #32
 8001182:	2214      	movs	r2, #20
 8001184:	2100      	movs	r1, #0
 8001186:	a803      	add	r0, sp, #12
 8001188:	f004 fca0 	bl	8005acc <memset>
 800118c:	6822      	ldr	r2, [r4, #0]
 800118e:	4b12      	ldr	r3, [pc, #72]	; (80011d8 <HAL_DAC_MspInit+0x5c>)
 8001190:	429a      	cmp	r2, r3
 8001192:	d11e      	bne.n	80011d2 <HAL_DAC_MspInit+0x56>
 8001194:	f103 4370 	add.w	r3, r3, #4026531840	; 0xf0000000
 8001198:	f503 3302 	add.w	r3, r3, #133120	; 0x20800
 800119c:	a903      	add	r1, sp, #12
 800119e:	6cda      	ldr	r2, [r3, #76]	; 0x4c
 80011a0:	f442 3280 	orr.w	r2, r2, #65536	; 0x10000
 80011a4:	64da      	str	r2, [r3, #76]	; 0x4c
 80011a6:	6cda      	ldr	r2, [r3, #76]	; 0x4c
 80011a8:	f402 3280 	and.w	r2, r2, #65536	; 0x10000
 80011ac:	9201      	str	r2, [sp, #4]
 80011ae:	9a01      	ldr	r2, [sp, #4]
 80011b0:	6cda      	ldr	r2, [r3, #76]	; 0x4c
 80011b2:	f042 0201 	orr.w	r2, r2, #1
 80011b6:	64da      	str	r2, [r3, #76]	; 0x4c
 80011b8:	6cdb      	ldr	r3, [r3, #76]	; 0x4c
 80011ba:	f003 0301 	and.w	r3, r3, #1
 80011be:	9302      	str	r3, [sp, #8]
 80011c0:	9b02      	ldr	r3, [sp, #8]
 80011c2:	2210      	movs	r2, #16
 80011c4:	2303      	movs	r3, #3
 80011c6:	f04f 4090 	mov.w	r0, #1207959552	; 0x48000000
 80011ca:	e9cd 2303 	strd	r2, r3, [sp, #12]
 80011ce:	f002 f94f 	bl	8003470 <HAL_GPIO_Init>
 80011d2:	b008      	add	sp, #32
 80011d4:	bd10      	pop	{r4, pc}
 80011d6:	bf00      	nop
 80011d8:	50000800 	.word	0x50000800

080011dc <MX_DMA_Init>:
 80011dc:	b51f      	push	{r0, r1, r2, r3, r4, lr}
 80011de:	4b2b      	ldr	r3, [pc, #172]	; (800128c <MX_DMA_Init+0xb0>)
 80011e0:	6c9a      	ldr	r2, [r3, #72]	; 0x48
 80011e2:	f042 0204 	orr.w	r2, r2, #4
 80011e6:	649a      	str	r2, [r3, #72]	; 0x48
 80011e8:	6c9a      	ldr	r2, [r3, #72]	; 0x48
 80011ea:	f002 0204 	and.w	r2, r2, #4
 80011ee:	9201      	str	r2, [sp, #4]
 80011f0:	9a01      	ldr	r2, [sp, #4]
 80011f2:	6c9a      	ldr	r2, [r3, #72]	; 0x48
 80011f4:	f042 0201 	orr.w	r2, r2, #1
 80011f8:	649a      	str	r2, [r3, #72]	; 0x48
 80011fa:	6c9a      	ldr	r2, [r3, #72]	; 0x48
 80011fc:	f002 0201 	and.w	r2, r2, #1
 8001200:	9202      	str	r2, [sp, #8]
 8001202:	9a02      	ldr	r2, [sp, #8]
 8001204:	6c9a      	ldr	r2, [r3, #72]	; 0x48
 8001206:	f042 0202 	orr.w	r2, r2, #2
 800120a:	649a      	str	r2, [r3, #72]	; 0x48
 800120c:	6c9b      	ldr	r3, [r3, #72]	; 0x48
 800120e:	2200      	movs	r2, #0
 8001210:	f003 0302 	and.w	r3, r3, #2
 8001214:	4611      	mov	r1, r2
 8001216:	9303      	str	r3, [sp, #12]
 8001218:	200b      	movs	r0, #11
 800121a:	9b03      	ldr	r3, [sp, #12]
 800121c:	f001 fbb4 	bl	8002988 <HAL_NVIC_SetPriority>
 8001220:	200b      	movs	r0, #11
 8001222:	f001 fbe3 	bl	80029ec <HAL_NVIC_EnableIRQ>
 8001226:	2200      	movs	r2, #0
 8001228:	4611      	mov	r1, r2
 800122a:	200c      	movs	r0, #12
 800122c:	f001 fbac 	bl	8002988 <HAL_NVIC_SetPriority>
 8001230:	200c      	movs	r0, #12
 8001232:	f001 fbdb 	bl	80029ec <HAL_NVIC_EnableIRQ>
 8001236:	2200      	movs	r2, #0
 8001238:	4611      	mov	r1, r2
 800123a:	200d      	movs	r0, #13
 800123c:	f001 fba4 	bl	8002988 <HAL_NVIC_SetPriority>
 8001240:	200d      	movs	r0, #13
 8001242:	f001 fbd3 	bl	80029ec <HAL_NVIC_EnableIRQ>
 8001246:	2200      	movs	r2, #0
 8001248:	4611      	mov	r1, r2
 800124a:	200e      	movs	r0, #14
 800124c:	f001 fb9c 	bl	8002988 <HAL_NVIC_SetPriority>
 8001250:	200e      	movs	r0, #14
 8001252:	f001 fbcb 	bl	80029ec <HAL_NVIC_EnableIRQ>
 8001256:	2200      	movs	r2, #0
 8001258:	4611      	mov	r1, r2
 800125a:	2038      	movs	r0, #56	; 0x38
 800125c:	f001 fb94 	bl	8002988 <HAL_NVIC_SetPriority>
 8001260:	2038      	movs	r0, #56	; 0x38
 8001262:	f001 fbc3 	bl	80029ec <HAL_NVIC_EnableIRQ>
 8001266:	2200      	movs	r2, #0
 8001268:	4611      	mov	r1, r2
 800126a:	2039      	movs	r0, #57	; 0x39
 800126c:	f001 fb8c 	bl	8002988 <HAL_NVIC_SetPriority>
 8001270:	2039      	movs	r0, #57	; 0x39
 8001272:	f001 fbbb 	bl	80029ec <HAL_NVIC_EnableIRQ>
 8001276:	2200      	movs	r2, #0
 8001278:	4611      	mov	r1, r2
 800127a:	203a      	movs	r0, #58	; 0x3a
 800127c:	f001 fb84 	bl	8002988 <HAL_NVIC_SetPriority>
 8001280:	203a      	movs	r0, #58	; 0x3a
 8001282:	b005      	add	sp, #20
 8001284:	f85d eb04 	ldr.w	lr, [sp], #4
 8001288:	f001 bbb0 	b.w	80029ec <HAL_NVIC_EnableIRQ>
 800128c:	40021000 	.word	0x40021000

08001290 <MX_FDCAN1_Init>:
 8001290:	4811      	ldr	r0, [pc, #68]	; (80012d8 <MX_FDCAN1_Init+0x48>)
 8001292:	4a12      	ldr	r2, [pc, #72]	; (80012dc <MX_FDCAN1_Init+0x4c>)
 8001294:	2300      	movs	r3, #0
 8001296:	b510      	push	{r4, lr}
 8001298:	e9c0 2300 	strd	r2, r3, [r0]
 800129c:	f44f 7240 	mov.w	r2, #768	; 0x300
 80012a0:	2107      	movs	r1, #7
 80012a2:	e9c0 2302 	strd	r2, r3, [r0, #8]
 80012a6:	242a      	movs	r4, #42	; 0x2a
 80012a8:	2201      	movs	r2, #1
 80012aa:	e9c0 2105 	strd	r2, r1, [r0, #20]
 80012ae:	e9c0 4107 	strd	r4, r1, [r0, #28]
 80012b2:	6242      	str	r2, [r0, #36]	; 0x24
 80012b4:	210a      	movs	r1, #10
 80012b6:	2209      	movs	r2, #9
 80012b8:	8203      	strh	r3, [r0, #16]
 80012ba:	e9c0 210a 	strd	r2, r1, [r0, #40]	; 0x28
 80012be:	e9c0 230c 	strd	r2, r3, [r0, #48]	; 0x30
 80012c2:	e9c0 330e 	strd	r3, r3, [r0, #56]	; 0x38
 80012c6:	7483      	strb	r3, [r0, #18]
 80012c8:	f001 fe7c 	bl	8002fc4 <HAL_FDCAN_Init>
 80012cc:	b118      	cbz	r0, 80012d6 <MX_FDCAN1_Init+0x46>
 80012ce:	e8bd 4010 	ldmia.w	sp!, {r4, lr}
 80012d2:	f000 b966 	b.w	80015a2 <Error_Handler>
 80012d6:	bd10      	pop	{r4, pc}
 80012d8:	200003c0 	.word	0x200003c0
 80012dc:	40006400 	.word	0x40006400

080012e0 <HAL_FDCAN_MspInit>:
 80012e0:	b510      	push	{r4, lr}
 80012e2:	b098      	sub	sp, #96	; 0x60
 80012e4:	4604      	mov	r4, r0
 80012e6:	2214      	movs	r2, #20
 80012e8:	2100      	movs	r1, #0
 80012ea:	a802      	add	r0, sp, #8
 80012ec:	f004 fbee 	bl	8005acc <memset>
 80012f0:	2244      	movs	r2, #68	; 0x44
 80012f2:	2100      	movs	r1, #0
 80012f4:	a807      	add	r0, sp, #28
 80012f6:	f004 fbe9 	bl	8005acc <memset>
 80012fa:	6822      	ldr	r2, [r4, #0]
 80012fc:	4b1d      	ldr	r3, [pc, #116]	; (8001374 <HAL_FDCAN_MspInit+0x94>)
 80012fe:	429a      	cmp	r2, r3
 8001300:	d135      	bne.n	800136e <HAL_FDCAN_MspInit+0x8e>
 8001302:	f44f 5380 	mov.w	r3, #4096	; 0x1000
 8001306:	9307      	str	r3, [sp, #28]
 8001308:	a807      	add	r0, sp, #28
 800130a:	f04f 7380 	mov.w	r3, #16777216	; 0x1000000
 800130e:	9313      	str	r3, [sp, #76]	; 0x4c
 8001310:	f002 fd60 	bl	8003dd4 <HAL_RCCEx_PeriphCLKConfig>
 8001314:	b108      	cbz	r0, 800131a <HAL_FDCAN_MspInit+0x3a>
 8001316:	f000 f944 	bl	80015a2 <Error_Handler>
 800131a:	4b17      	ldr	r3, [pc, #92]	; (8001378 <HAL_FDCAN_MspInit+0x98>)
 800131c:	6d9a      	ldr	r2, [r3, #88]	; 0x58
 800131e:	f042 7200 	orr.w	r2, r2, #33554432	; 0x2000000
 8001322:	659a      	str	r2, [r3, #88]	; 0x58
 8001324:	6d9a      	ldr	r2, [r3, #88]	; 0x58
 8001326:	f002 7200 	and.w	r2, r2, #33554432	; 0x2000000
 800132a:	9200      	str	r2, [sp, #0]
 800132c:	9a00      	ldr	r2, [sp, #0]
 800132e:	6cda      	ldr	r2, [r3, #76]	; 0x4c
 8001330:	f042 0201 	orr.w	r2, r2, #1
 8001334:	64da      	str	r2, [r3, #76]	; 0x4c
 8001336:	6cdb      	ldr	r3, [r3, #76]	; 0x4c
 8001338:	f003 0301 	and.w	r3, r3, #1
 800133c:	9301      	str	r3, [sp, #4]
 800133e:	f44f 52c0 	mov.w	r2, #6144	; 0x1800
 8001342:	9b01      	ldr	r3, [sp, #4]
 8001344:	2302      	movs	r3, #2
 8001346:	e9cd 2302 	strd	r2, r3, [sp, #8]
 800134a:	2400      	movs	r4, #0
 800134c:	2309      	movs	r3, #9
 800134e:	a902      	add	r1, sp, #8
 8001350:	f04f 4090 	mov.w	r0, #1207959552	; 0x48000000
 8001354:	9306      	str	r3, [sp, #24]
 8001356:	e9cd 4404 	strd	r4, r4, [sp, #16]
 800135a:	f002 f889 	bl	8003470 <HAL_GPIO_Init>
 800135e:	2015      	movs	r0, #21
 8001360:	4622      	mov	r2, r4
 8001362:	4621      	mov	r1, r4
 8001364:	f001 fb10 	bl	8002988 <HAL_NVIC_SetPriority>
 8001368:	2015      	movs	r0, #21
 800136a:	f001 fb3f 	bl	80029ec <HAL_NVIC_EnableIRQ>
 800136e:	b018      	add	sp, #96	; 0x60
 8001370:	bd10      	pop	{r4, pc}
 8001372:	bf00      	nop
 8001374:	40006400 	.word	0x40006400
 8001378:	40021000 	.word	0x40021000

0800137c <MX_FMAC_Init>:
 800137c:	4805      	ldr	r0, [pc, #20]	; (8001394 <MX_FMAC_Init+0x18>)
 800137e:	b508      	push	{r3, lr}
 8001380:	4b05      	ldr	r3, [pc, #20]	; (8001398 <MX_FMAC_Init+0x1c>)
 8001382:	6003      	str	r3, [r0, #0]
 8001384:	f002 f842 	bl	800340c <HAL_FMAC_Init>
 8001388:	b118      	cbz	r0, 8001392 <MX_FMAC_Init+0x16>
 800138a:	e8bd 4008 	ldmia.w	sp!, {r3, lr}
 800138e:	f000 b908 	b.w	80015a2 <Error_Handler>
 8001392:	bd08      	pop	{r3, pc}
 8001394:	20000424 	.word	0x20000424
 8001398:	40021400 	.word	0x40021400

0800139c <HAL_FMAC_MspInit>:
 800139c:	6802      	ldr	r2, [r0, #0]
 800139e:	4b08      	ldr	r3, [pc, #32]	; (80013c0 <HAL_FMAC_MspInit+0x24>)
 80013a0:	429a      	cmp	r2, r3
 80013a2:	b082      	sub	sp, #8
 80013a4:	d10a      	bne.n	80013bc <HAL_FMAC_MspInit+0x20>
 80013a6:	f5a3 6380 	sub.w	r3, r3, #1024	; 0x400
 80013aa:	6c9a      	ldr	r2, [r3, #72]	; 0x48
 80013ac:	f042 0210 	orr.w	r2, r2, #16
 80013b0:	649a      	str	r2, [r3, #72]	; 0x48
 80013b2:	6c9b      	ldr	r3, [r3, #72]	; 0x48
 80013b4:	f003 0310 	and.w	r3, r3, #16
 80013b8:	9301      	str	r3, [sp, #4]
 80013ba:	9b01      	ldr	r3, [sp, #4]
 80013bc:	b002      	add	sp, #8
 80013be:	4770      	bx	lr
 80013c0:	40021400 	.word	0x40021400

080013c4 <MX_GPIO_Init>:
 80013c4:	e92d 41f0 	stmdb	sp!, {r4, r5, r6, r7, r8, lr}
 80013c8:	2214      	movs	r2, #20
 80013ca:	b08a      	sub	sp, #40	; 0x28
 80013cc:	eb0d 0002 	add.w	r0, sp, r2
 80013d0:	2100      	movs	r1, #0
 80013d2:	f004 fb7b 	bl	8005acc <memset>
 80013d6:	4b40      	ldr	r3, [pc, #256]	; (80014d8 <MX_GPIO_Init+0x114>)
 80013d8:	f8df 8108 	ldr.w	r8, [pc, #264]	; 80014e4 <MX_GPIO_Init+0x120>
 80013dc:	6cda      	ldr	r2, [r3, #76]	; 0x4c
 80013de:	4f3f      	ldr	r7, [pc, #252]	; (80014dc <MX_GPIO_Init+0x118>)
 80013e0:	4e3f      	ldr	r6, [pc, #252]	; (80014e0 <MX_GPIO_Init+0x11c>)
 80013e2:	f042 0220 	orr.w	r2, r2, #32
 80013e6:	64da      	str	r2, [r3, #76]	; 0x4c
 80013e8:	6cda      	ldr	r2, [r3, #76]	; 0x4c
 80013ea:	f002 0220 	and.w	r2, r2, #32
 80013ee:	9200      	str	r2, [sp, #0]
 80013f0:	9a00      	ldr	r2, [sp, #0]
 80013f2:	6cda      	ldr	r2, [r3, #76]	; 0x4c
 80013f4:	f042 0204 	orr.w	r2, r2, #4
 80013f8:	64da      	str	r2, [r3, #76]	; 0x4c
 80013fa:	6cda      	ldr	r2, [r3, #76]	; 0x4c
 80013fc:	f002 0204 	and.w	r2, r2, #4
 8001400:	9201      	str	r2, [sp, #4]
 8001402:	9a01      	ldr	r2, [sp, #4]
 8001404:	6cda      	ldr	r2, [r3, #76]	; 0x4c
 8001406:	f042 0201 	orr.w	r2, r2, #1
 800140a:	64da      	str	r2, [r3, #76]	; 0x4c
 800140c:	6cda      	ldr	r2, [r3, #76]	; 0x4c
 800140e:	f002 0201 	and.w	r2, r2, #1
 8001412:	9202      	str	r2, [sp, #8]
 8001414:	9a02      	ldr	r2, [sp, #8]
 8001416:	6cda      	ldr	r2, [r3, #76]	; 0x4c
 8001418:	f042 0202 	orr.w	r2, r2, #2
 800141c:	64da      	str	r2, [r3, #76]	; 0x4c
 800141e:	6cda      	ldr	r2, [r3, #76]	; 0x4c
 8001420:	f002 0202 	and.w	r2, r2, #2
 8001424:	9203      	str	r2, [sp, #12]
 8001426:	9a03      	ldr	r2, [sp, #12]
 8001428:	6cda      	ldr	r2, [r3, #76]	; 0x4c
 800142a:	f042 0208 	orr.w	r2, r2, #8
 800142e:	64da      	str	r2, [r3, #76]	; 0x4c
 8001430:	6cdb      	ldr	r3, [r3, #76]	; 0x4c
 8001432:	f003 0308 	and.w	r3, r3, #8
 8001436:	9304      	str	r3, [sp, #16]
 8001438:	4640      	mov	r0, r8
 800143a:	2200      	movs	r2, #0
 800143c:	21c0      	movs	r1, #192	; 0xc0
 800143e:	9b04      	ldr	r3, [sp, #16]
 8001440:	f002 f8e2 	bl	8003608 <HAL_GPIO_WritePin>
 8001444:	2200      	movs	r2, #0
 8001446:	f44f 7100 	mov.w	r1, #512	; 0x200
 800144a:	f04f 4090 	mov.w	r0, #1207959552	; 0x48000000
 800144e:	f002 f8db 	bl	8003608 <HAL_GPIO_WritePin>
 8001452:	4638      	mov	r0, r7
 8001454:	2200      	movs	r2, #0
 8001456:	2104      	movs	r1, #4
 8001458:	f002 f8d6 	bl	8003608 <HAL_GPIO_WritePin>
 800145c:	2200      	movs	r2, #0
 800145e:	4630      	mov	r0, r6
 8001460:	2140      	movs	r1, #64	; 0x40
 8001462:	f002 f8d1 	bl	8003608 <HAL_GPIO_WritePin>
 8001466:	2400      	movs	r4, #0
 8001468:	2501      	movs	r5, #1
 800146a:	23c0      	movs	r3, #192	; 0xc0
 800146c:	a905      	add	r1, sp, #20
 800146e:	4640      	mov	r0, r8
 8001470:	e9cd 3505 	strd	r3, r5, [sp, #20]
 8001474:	e9cd 4407 	strd	r4, r4, [sp, #28]
 8001478:	f001 fffa 	bl	8003470 <HAL_GPIO_Init>
 800147c:	f44f 7280 	mov.w	r2, #256	; 0x100
 8001480:	2302      	movs	r3, #2
 8001482:	a905      	add	r1, sp, #20
 8001484:	f04f 4090 	mov.w	r0, #1207959552	; 0x48000000
 8001488:	e9cd 2305 	strd	r2, r3, [sp, #20]
 800148c:	e9cd 4407 	strd	r4, r4, [sp, #28]
 8001490:	9409      	str	r4, [sp, #36]	; 0x24
 8001492:	f001 ffed 	bl	8003470 <HAL_GPIO_Init>
 8001496:	f44f 7300 	mov.w	r3, #512	; 0x200
 800149a:	a905      	add	r1, sp, #20
 800149c:	f04f 4090 	mov.w	r0, #1207959552	; 0x48000000
 80014a0:	e9cd 3505 	strd	r3, r5, [sp, #20]
 80014a4:	e9cd 4407 	strd	r4, r4, [sp, #28]
 80014a8:	f001 ffe2 	bl	8003470 <HAL_GPIO_Init>
 80014ac:	2304      	movs	r3, #4
 80014ae:	a905      	add	r1, sp, #20
 80014b0:	4638      	mov	r0, r7
 80014b2:	e9cd 3505 	strd	r3, r5, [sp, #20]
 80014b6:	e9cd 4407 	strd	r4, r4, [sp, #28]
 80014ba:	f001 ffd9 	bl	8003470 <HAL_GPIO_Init>
 80014be:	2340      	movs	r3, #64	; 0x40
 80014c0:	a905      	add	r1, sp, #20
 80014c2:	4630      	mov	r0, r6
 80014c4:	e9cd 3505 	strd	r3, r5, [sp, #20]
 80014c8:	e9cd 4407 	strd	r4, r4, [sp, #28]
 80014cc:	f001 ffd0 	bl	8003470 <HAL_GPIO_Init>
 80014d0:	b00a      	add	sp, #40	; 0x28
 80014d2:	e8bd 81f0 	ldmia.w	sp!, {r4, r5, r6, r7, r8, pc}
 80014d6:	bf00      	nop
 80014d8:	40021000 	.word	0x40021000
 80014dc:	48000c00 	.word	0x48000c00
 80014e0:	48000400 	.word	0x48000400
 80014e4:	48000800 	.word	0x48000800

080014e8 <SystemClock_Config>:
 80014e8:	b530      	push	{r4, r5, lr}
 80014ea:	b095      	sub	sp, #84	; 0x54
 80014ec:	2238      	movs	r2, #56	; 0x38
 80014ee:	2100      	movs	r1, #0
 80014f0:	a806      	add	r0, sp, #24
 80014f2:	f004 faeb 	bl	8005acc <memset>
 80014f6:	2214      	movs	r2, #20
 80014f8:	2100      	movs	r1, #0
 80014fa:	a801      	add	r0, sp, #4
 80014fc:	f004 fae6 	bl	8005acc <memset>
 8001500:	2000      	movs	r0, #0
 8001502:	f002 f887 	bl	8003614 <HAL_PWREx_ControlVoltageScaling>
 8001506:	f44f 7480 	mov.w	r4, #256	; 0x100
 800150a:	2240      	movs	r2, #64	; 0x40
 800150c:	e9cd 4209 	strd	r4, r2, [sp, #36]	; 0x24
 8001510:	2504      	movs	r5, #4
 8001512:	2250      	movs	r2, #80	; 0x50
 8001514:	2302      	movs	r3, #2
 8001516:	e9cd 520f 	strd	r5, r2, [sp, #60]	; 0x3c
 800151a:	a806      	add	r0, sp, #24
 800151c:	2208      	movs	r2, #8
 800151e:	e9cd 330d 	strd	r3, r3, [sp, #52]	; 0x34
 8001522:	e9cd 2312 	strd	r2, r3, [sp, #72]	; 0x48
 8001526:	9306      	str	r3, [sp, #24]
 8001528:	9311      	str	r3, [sp, #68]	; 0x44
 800152a:	f002 f8d5 	bl	80036d8 <HAL_RCC_OscConfig>
 800152e:	b108      	cbz	r0, 8001534 <SystemClock_Config+0x4c>
 8001530:	b672      	cpsid	i
 8001532:	e7fe      	b.n	8001532 <SystemClock_Config+0x4a>
 8001534:	e9cd 0003 	strd	r0, r0, [sp, #12]
 8001538:	220f      	movs	r2, #15
 800153a:	2303      	movs	r3, #3
 800153c:	9005      	str	r0, [sp, #20]
 800153e:	4629      	mov	r1, r5
 8001540:	a801      	add	r0, sp, #4
 8001542:	e9cd 2301 	strd	r2, r3, [sp, #4]
 8001546:	f002 fb2f 	bl	8003ba8 <HAL_RCC_ClockConfig>
 800154a:	b108      	cbz	r0, 8001550 <SystemClock_Config+0x68>
 800154c:	b672      	cpsid	i
 800154e:	e7fe      	b.n	800154e <SystemClock_Config+0x66>
 8001550:	f04f 4280 	mov.w	r2, #1073741824	; 0x40000000
 8001554:	f04f 7140 	mov.w	r1, #50331648	; 0x3000000
 8001558:	4620      	mov	r0, r4
 800155a:	f002 facd 	bl	8003af8 <HAL_RCC_MCOConfig>
 800155e:	b015      	add	sp, #84	; 0x54
 8001560:	bd30      	pop	{r4, r5, pc}

08001562 <main>:
 8001562:	b508      	push	{r3, lr}
 8001564:	f000 fbe6 	bl	8001d34 <HAL_Init>
 8001568:	f7ff ffbe 	bl	80014e8 <SystemClock_Config>
 800156c:	f7ff ff2a 	bl	80013c4 <MX_GPIO_Init>
 8001570:	f7ff fe34 	bl	80011dc <MX_DMA_Init>
 8001574:	f7ff fe8c 	bl	8001290 <MX_FDCAN1_Init>
 8001578:	f000 f816 	bl	80015a8 <MX_SPI1_Init>
 800157c:	f000 f83c 	bl	80015f8 <MX_SPI3_Init>
 8001580:	f000 fa6a 	bl	8001a58 <MX_TIM1_Init>
 8001584:	f7ff fc20 	bl	8000dc8 <MX_ADC1_Init>
 8001588:	f7ff fc9c 	bl	8000ec4 <MX_ADC2_Init>
 800158c:	f7ff fdce 	bl	800112c <MX_DAC1_Init>
 8001590:	f000 faea 	bl	8001b68 <MX_USART1_UART_Init>
 8001594:	f000 f9ae 	bl	80018f4 <MX_TIM3_Init>
 8001598:	f7ff fef0 	bl	800137c <MX_FMAC_Init>
 800159c:	f7fe ffe2 	bl	8000564 <BLDC_main>
 80015a0:	e7fc      	b.n	800159c <main+0x3a>

080015a2 <Error_Handler>:
 80015a2:	b672      	cpsid	i
 80015a4:	e7fe      	b.n	80015a4 <Error_Handler+0x2>
	...

080015a8 <MX_SPI1_Init>:
 80015a8:	4811      	ldr	r0, [pc, #68]	; (80015f0 <MX_SPI1_Init+0x48>)
 80015aa:	4a12      	ldr	r2, [pc, #72]	; (80015f4 <MX_SPI1_Init+0x4c>)
 80015ac:	b508      	push	{r3, lr}
 80015ae:	f44f 7382 	mov.w	r3, #260	; 0x104
 80015b2:	e9c0 2300 	strd	r2, r3, [r0]
 80015b6:	2300      	movs	r3, #0
 80015b8:	f44f 62e0 	mov.w	r2, #1792	; 0x700
 80015bc:	e9c0 3202 	strd	r3, r2, [r0, #8]
 80015c0:	2101      	movs	r1, #1
 80015c2:	f44f 7200 	mov.w	r2, #512	; 0x200
 80015c6:	e9c0 1205 	strd	r1, r2, [r0, #20]
 80015ca:	2228      	movs	r2, #40	; 0x28
 80015cc:	e9c0 2307 	strd	r2, r3, [r0, #28]
 80015d0:	2207      	movs	r2, #7
 80015d2:	e9c0 3309 	strd	r3, r3, [r0, #36]	; 0x24
 80015d6:	e9c0 230b 	strd	r2, r3, [r0, #44]	; 0x2c
 80015da:	6103      	str	r3, [r0, #16]
 80015dc:	6343      	str	r3, [r0, #52]	; 0x34
 80015de:	f002 fe4b 	bl	8004278 <HAL_SPI_Init>
 80015e2:	b118      	cbz	r0, 80015ec <MX_SPI1_Init+0x44>
 80015e4:	e8bd 4008 	ldmia.w	sp!, {r3, lr}
 80015e8:	f7ff bfdb 	b.w	80015a2 <Error_Handler>
 80015ec:	bd08      	pop	{r3, pc}
 80015ee:	bf00      	nop
 80015f0:	200005dc 	.word	0x200005dc
 80015f4:	40013000 	.word	0x40013000

080015f8 <MX_SPI3_Init>:
 80015f8:	4811      	ldr	r0, [pc, #68]	; (8001640 <MX_SPI3_Init+0x48>)
 80015fa:	4a12      	ldr	r2, [pc, #72]	; (8001644 <MX_SPI3_Init+0x4c>)
 80015fc:	b508      	push	{r3, lr}
 80015fe:	f44f 7382 	mov.w	r3, #260	; 0x104
 8001602:	e9c0 2300 	strd	r2, r3, [r0]
 8001606:	2300      	movs	r3, #0
 8001608:	f44f 62e0 	mov.w	r2, #1792	; 0x700
 800160c:	e9c0 3202 	strd	r3, r2, [r0, #8]
 8001610:	2101      	movs	r1, #1
 8001612:	f44f 7200 	mov.w	r2, #512	; 0x200
 8001616:	e9c0 1205 	strd	r1, r2, [r0, #20]
 800161a:	2228      	movs	r2, #40	; 0x28
 800161c:	e9c0 2307 	strd	r2, r3, [r0, #28]
 8001620:	2207      	movs	r2, #7
 8001622:	e9c0 3309 	strd	r3, r3, [r0, #36]	; 0x24
 8001626:	e9c0 230b 	strd	r2, r3, [r0, #44]	; 0x2c
 800162a:	6103      	str	r3, [r0, #16]
 800162c:	6343      	str	r3, [r0, #52]	; 0x34
 800162e:	f002 fe23 	bl	8004278 <HAL_SPI_Init>
 8001632:	b118      	cbz	r0, 800163c <MX_SPI3_Init+0x44>
 8001634:	e8bd 4008 	ldmia.w	sp!, {r3, lr}
 8001638:	f7ff bfb3 	b.w	80015a2 <Error_Handler>
 800163c:	bd08      	pop	{r3, pc}
 800163e:	bf00      	nop
 8001640:	20000640 	.word	0x20000640
 8001644:	40003c00 	.word	0x40003c00

08001648 <HAL_SPI_MspInit>:
 8001648:	b530      	push	{r4, r5, lr}
 800164a:	2214      	movs	r2, #20
 800164c:	b08b      	sub	sp, #44	; 0x2c
 800164e:	4605      	mov	r5, r0
 8001650:	2100      	movs	r1, #0
 8001652:	eb0d 0002 	add.w	r0, sp, r2
 8001656:	f004 fa39 	bl	8005acc <memset>
 800165a:	682b      	ldr	r3, [r5, #0]
 800165c:	4a56      	ldr	r2, [pc, #344]	; (80017b8 <HAL_SPI_MspInit+0x170>)
 800165e:	4293      	cmp	r3, r2
 8001660:	d154      	bne.n	800170c <HAL_SPI_MspInit+0xc4>
 8001662:	4b56      	ldr	r3, [pc, #344]	; (80017bc <HAL_SPI_MspInit+0x174>)
 8001664:	4856      	ldr	r0, [pc, #344]	; (80017c0 <HAL_SPI_MspInit+0x178>)
 8001666:	6e1a      	ldr	r2, [r3, #96]	; 0x60
 8001668:	4c56      	ldr	r4, [pc, #344]	; (80017c4 <HAL_SPI_MspInit+0x17c>)
 800166a:	f442 5280 	orr.w	r2, r2, #4096	; 0x1000
 800166e:	661a      	str	r2, [r3, #96]	; 0x60
 8001670:	6e1a      	ldr	r2, [r3, #96]	; 0x60
 8001672:	f402 5280 	and.w	r2, r2, #4096	; 0x1000
 8001676:	9201      	str	r2, [sp, #4]
 8001678:	9a01      	ldr	r2, [sp, #4]
 800167a:	6cda      	ldr	r2, [r3, #76]	; 0x4c
 800167c:	f042 0202 	orr.w	r2, r2, #2
 8001680:	64da      	str	r2, [r3, #76]	; 0x4c
 8001682:	6cdb      	ldr	r3, [r3, #76]	; 0x4c
 8001684:	f003 0302 	and.w	r3, r3, #2
 8001688:	9302      	str	r3, [sp, #8]
 800168a:	9b02      	ldr	r3, [sp, #8]
 800168c:	2138      	movs	r1, #56	; 0x38
 800168e:	2302      	movs	r3, #2
 8001690:	e9cd 1305 	strd	r1, r3, [sp, #20]
 8001694:	2305      	movs	r3, #5
 8001696:	a905      	add	r1, sp, #20
 8001698:	9309      	str	r3, [sp, #36]	; 0x24
 800169a:	f001 fee9 	bl	8003470 <HAL_GPIO_Init>
 800169e:	484a      	ldr	r0, [pc, #296]	; (80017c8 <HAL_SPI_MspInit+0x180>)
 80016a0:	230a      	movs	r3, #10
 80016a2:	e9c4 0300 	strd	r0, r3, [r4]
 80016a6:	2280      	movs	r2, #128	; 0x80
 80016a8:	2300      	movs	r3, #0
 80016aa:	4620      	mov	r0, r4
 80016ac:	e9c4 3302 	strd	r3, r3, [r4, #8]
 80016b0:	e9c4 2304 	strd	r2, r3, [r4, #16]
 80016b4:	e9c4 3306 	strd	r3, r3, [r4, #24]
 80016b8:	6223      	str	r3, [r4, #32]
 80016ba:	f001 fb17 	bl	8002cec <HAL_DMA_Init>
 80016be:	b108      	cbz	r0, 80016c4 <HAL_SPI_MspInit+0x7c>
 80016c0:	f7ff ff6f 	bl	80015a2 <Error_Handler>
 80016c4:	f8df e11c 	ldr.w	lr, [pc, #284]	; 80017e4 <HAL_SPI_MspInit+0x19c>
 80016c8:	65ac      	str	r4, [r5, #88]	; 0x58
 80016ca:	62a5      	str	r5, [r4, #40]	; 0x28
 80016cc:	4c3f      	ldr	r4, [pc, #252]	; (80017cc <HAL_SPI_MspInit+0x184>)
 80016ce:	230b      	movs	r3, #11
 80016d0:	2210      	movs	r2, #16
 80016d2:	e9c4 e300 	strd	lr, r3, [r4]
 80016d6:	2300      	movs	r3, #0
 80016d8:	e9c4 2302 	strd	r2, r3, [r4, #8]
 80016dc:	4620      	mov	r0, r4
 80016de:	2280      	movs	r2, #128	; 0x80
 80016e0:	e9c4 2304 	strd	r2, r3, [r4, #16]
 80016e4:	e9c4 3306 	strd	r3, r3, [r4, #24]
 80016e8:	6223      	str	r3, [r4, #32]
 80016ea:	f001 faff 	bl	8002cec <HAL_DMA_Init>
 80016ee:	b108      	cbz	r0, 80016f4 <HAL_SPI_MspInit+0xac>
 80016f0:	f7ff ff57 	bl	80015a2 <Error_Handler>
 80016f4:	2200      	movs	r2, #0
 80016f6:	2023      	movs	r0, #35	; 0x23
 80016f8:	656c      	str	r4, [r5, #84]	; 0x54
 80016fa:	4611      	mov	r1, r2
 80016fc:	62a5      	str	r5, [r4, #40]	; 0x28
 80016fe:	f001 f943 	bl	8002988 <HAL_NVIC_SetPriority>
 8001702:	2023      	movs	r0, #35	; 0x23
 8001704:	f001 f972 	bl	80029ec <HAL_NVIC_EnableIRQ>
 8001708:	b00b      	add	sp, #44	; 0x2c
 800170a:	bd30      	pop	{r4, r5, pc}
 800170c:	4a30      	ldr	r2, [pc, #192]	; (80017d0 <HAL_SPI_MspInit+0x188>)
 800170e:	4293      	cmp	r3, r2
 8001710:	d1fa      	bne.n	8001708 <HAL_SPI_MspInit+0xc0>
 8001712:	4b2a      	ldr	r3, [pc, #168]	; (80017bc <HAL_SPI_MspInit+0x174>)
 8001714:	4c2f      	ldr	r4, [pc, #188]	; (80017d4 <HAL_SPI_MspInit+0x18c>)
 8001716:	6d9a      	ldr	r2, [r3, #88]	; 0x58
 8001718:	f442 4200 	orr.w	r2, r2, #32768	; 0x8000
 800171c:	659a      	str	r2, [r3, #88]	; 0x58
 800171e:	6d9a      	ldr	r2, [r3, #88]	; 0x58
 8001720:	f402 4200 	and.w	r2, r2, #32768	; 0x8000
 8001724:	9203      	str	r2, [sp, #12]
 8001726:	9a03      	ldr	r2, [sp, #12]
 8001728:	6cda      	ldr	r2, [r3, #76]	; 0x4c
 800172a:	f042 0204 	orr.w	r2, r2, #4
 800172e:	64da      	str	r2, [r3, #76]	; 0x4c
 8001730:	6cdb      	ldr	r3, [r3, #76]	; 0x4c
 8001732:	f003 0304 	and.w	r3, r3, #4
 8001736:	9304      	str	r3, [sp, #16]
 8001738:	9b04      	ldr	r3, [sp, #16]
 800173a:	f44f 50e0 	mov.w	r0, #7168	; 0x1c00
 800173e:	2302      	movs	r3, #2
 8001740:	e9cd 0305 	strd	r0, r3, [sp, #20]
 8001744:	a905      	add	r1, sp, #20
 8001746:	2306      	movs	r3, #6
 8001748:	4823      	ldr	r0, [pc, #140]	; (80017d8 <HAL_SPI_MspInit+0x190>)
 800174a:	9309      	str	r3, [sp, #36]	; 0x24
 800174c:	f001 fe90 	bl	8003470 <HAL_GPIO_Init>
 8001750:	f8df c094 	ldr.w	ip, [pc, #148]	; 80017e8 <HAL_SPI_MspInit+0x1a0>
 8001754:	230e      	movs	r3, #14
 8001756:	e9c4 c300 	strd	ip, r3, [r4]
 800175a:	2280      	movs	r2, #128	; 0x80
 800175c:	2300      	movs	r3, #0
 800175e:	4620      	mov	r0, r4
 8001760:	e9c4 3302 	strd	r3, r3, [r4, #8]
 8001764:	e9c4 2304 	strd	r2, r3, [r4, #16]
 8001768:	e9c4 3306 	strd	r3, r3, [r4, #24]
 800176c:	6223      	str	r3, [r4, #32]
 800176e:	f001 fabd 	bl	8002cec <HAL_DMA_Init>
 8001772:	b108      	cbz	r0, 8001778 <HAL_SPI_MspInit+0x130>
 8001774:	f7ff ff15 	bl	80015a2 <Error_Handler>
 8001778:	4a18      	ldr	r2, [pc, #96]	; (80017dc <HAL_SPI_MspInit+0x194>)
 800177a:	65ac      	str	r4, [r5, #88]	; 0x58
 800177c:	62a5      	str	r5, [r4, #40]	; 0x28
 800177e:	4c18      	ldr	r4, [pc, #96]	; (80017e0 <HAL_SPI_MspInit+0x198>)
 8001780:	230f      	movs	r3, #15
 8001782:	e9c4 2300 	strd	r2, r3, [r4]
 8001786:	2110      	movs	r1, #16
 8001788:	2300      	movs	r3, #0
 800178a:	2280      	movs	r2, #128	; 0x80
 800178c:	4620      	mov	r0, r4
 800178e:	e9c4 1302 	strd	r1, r3, [r4, #8]
 8001792:	e9c4 2304 	strd	r2, r3, [r4, #16]
 8001796:	e9c4 3306 	strd	r3, r3, [r4, #24]
 800179a:	6223      	str	r3, [r4, #32]
 800179c:	f001 faa6 	bl	8002cec <HAL_DMA_Init>
 80017a0:	b108      	cbz	r0, 80017a6 <HAL_SPI_MspInit+0x15e>
 80017a2:	f7ff fefe 	bl	80015a2 <Error_Handler>
 80017a6:	2200      	movs	r2, #0
 80017a8:	2033      	movs	r0, #51	; 0x33
 80017aa:	656c      	str	r4, [r5, #84]	; 0x54
 80017ac:	4611      	mov	r1, r2
 80017ae:	62a5      	str	r5, [r4, #40]	; 0x28
 80017b0:	f001 f8ea 	bl	8002988 <HAL_NVIC_SetPriority>
 80017b4:	2033      	movs	r0, #51	; 0x33
 80017b6:	e7a5      	b.n	8001704 <HAL_SPI_MspInit+0xbc>
 80017b8:	40013000 	.word	0x40013000
 80017bc:	40021000 	.word	0x40021000
 80017c0:	48000400 	.word	0x48000400
 80017c4:	2000045c 	.word	0x2000045c
 80017c8:	40020030 	.word	0x40020030
 80017cc:	200004bc 	.word	0x200004bc
 80017d0:	40003c00 	.word	0x40003c00
 80017d4:	2000051c 	.word	0x2000051c
 80017d8:	48000800 	.word	0x48000800
 80017dc:	4002041c 	.word	0x4002041c
 80017e0:	2000057c 	.word	0x2000057c
 80017e4:	40020044 	.word	0x40020044
 80017e8:	40020408 	.word	0x40020408

080017ec <HAL_MspInit>:
 80017ec:	4b0b      	ldr	r3, [pc, #44]	; (800181c <HAL_MspInit+0x30>)
 80017ee:	6e1a      	ldr	r2, [r3, #96]	; 0x60
 80017f0:	f042 0201 	orr.w	r2, r2, #1
 80017f4:	661a      	str	r2, [r3, #96]	; 0x60
 80017f6:	6e1a      	ldr	r2, [r3, #96]	; 0x60
 80017f8:	b082      	sub	sp, #8
 80017fa:	f002 0201 	and.w	r2, r2, #1
 80017fe:	9200      	str	r2, [sp, #0]
 8001800:	9a00      	ldr	r2, [sp, #0]
 8001802:	6d9a      	ldr	r2, [r3, #88]	; 0x58
 8001804:	f042 5280 	orr.w	r2, r2, #268435456	; 0x10000000
 8001808:	659a      	str	r2, [r3, #88]	; 0x58
 800180a:	6d9b      	ldr	r3, [r3, #88]	; 0x58
 800180c:	f003 5380 	and.w	r3, r3, #268435456	; 0x10000000
 8001810:	9301      	str	r3, [sp, #4]
 8001812:	9b01      	ldr	r3, [sp, #4]
 8001814:	b002      	add	sp, #8
 8001816:	f001 bf57 	b.w	80036c8 <HAL_PWREx_DisableUCPDDeadBattery>
 800181a:	bf00      	nop
 800181c:	40021000 	.word	0x40021000

08001820 <NMI_Handler>:
 8001820:	e7fe      	b.n	8001820 <NMI_Handler>

08001822 <HardFault_Handler>:
 8001822:	e7fe      	b.n	8001822 <HardFault_Handler>

08001824 <MemManage_Handler>:
 8001824:	e7fe      	b.n	8001824 <MemManage_Handler>

08001826 <BusFault_Handler>:
 8001826:	e7fe      	b.n	8001826 <BusFault_Handler>

08001828 <UsageFault_Handler>:
 8001828:	e7fe      	b.n	8001828 <UsageFault_Handler>

0800182a <SVC_Handler>:
 800182a:	4770      	bx	lr

0800182c <DebugMon_Handler>:
 800182c:	4770      	bx	lr

0800182e <PendSV_Handler>:
 800182e:	4770      	bx	lr

08001830 <SysTick_Handler>:
 8001830:	f000 ba90 	b.w	8001d54 <HAL_IncTick>

08001834 <DMA1_Channel1_IRQHandler>:
 8001834:	4801      	ldr	r0, [pc, #4]	; (800183c <DMA1_Channel1_IRQHandler+0x8>)
 8001836:	f001 bb7b 	b.w	8002f30 <HAL_DMA_IRQHandler>
 800183a:	bf00      	nop
 800183c:	200002ec 	.word	0x200002ec

08001840 <DMA1_Channel2_IRQHandler>:
 8001840:	4801      	ldr	r0, [pc, #4]	; (8001848 <DMA1_Channel2_IRQHandler+0x8>)
 8001842:	f001 bb75 	b.w	8002f30 <HAL_DMA_IRQHandler>
 8001846:	bf00      	nop
 8001848:	2000034c 	.word	0x2000034c

0800184c <DMA1_Channel3_IRQHandler>:
 800184c:	4801      	ldr	r0, [pc, #4]	; (8001854 <DMA1_Channel3_IRQHandler+0x8>)
 800184e:	f001 bb6f 	b.w	8002f30 <HAL_DMA_IRQHandler>
 8001852:	bf00      	nop
 8001854:	2000045c 	.word	0x2000045c

08001858 <DMA1_Channel4_IRQHandler>:
 8001858:	4801      	ldr	r0, [pc, #4]	; (8001860 <DMA1_Channel4_IRQHandler+0x8>)
 800185a:	f001 bb69 	b.w	8002f30 <HAL_DMA_IRQHandler>
 800185e:	bf00      	nop
 8001860:	200004bc 	.word	0x200004bc

08001864 <ADC1_2_IRQHandler>:
 8001864:	b508      	push	{r3, lr}
 8001866:	4804      	ldr	r0, [pc, #16]	; (8001878 <ADC1_2_IRQHandler+0x14>)
 8001868:	f000 fbb2 	bl	8001fd0 <HAL_ADC_IRQHandler>
 800186c:	e8bd 4008 	ldmia.w	sp!, {r3, lr}
 8001870:	4802      	ldr	r0, [pc, #8]	; (800187c <ADC1_2_IRQHandler+0x18>)
 8001872:	f000 bbad 	b.w	8001fd0 <HAL_ADC_IRQHandler>
 8001876:	bf00      	nop
 8001878:	20000214 	.word	0x20000214
 800187c:	20000280 	.word	0x20000280

08001880 <FDCAN1_IT0_IRQHandler>:
 8001880:	4801      	ldr	r0, [pc, #4]	; (8001888 <FDCAN1_IT0_IRQHandler+0x8>)
 8001882:	f001 bcf7 	b.w	8003274 <HAL_FDCAN_IRQHandler>
 8001886:	bf00      	nop
 8001888:	200003c0 	.word	0x200003c0

0800188c <TIM3_IRQHandler>:
 800188c:	4801      	ldr	r0, [pc, #4]	; (8001894 <TIM3_IRQHandler+0x8>)
 800188e:	f003 b8be 	b.w	8004a0e <HAL_TIM_IRQHandler>
 8001892:	bf00      	nop
 8001894:	200006f0 	.word	0x200006f0

08001898 <SPI1_IRQHandler>:
 8001898:	4801      	ldr	r0, [pc, #4]	; (80018a0 <SPI1_IRQHandler+0x8>)
 800189a:	f002 beb7 	b.w	800460c <HAL_SPI_IRQHandler>
 800189e:	bf00      	nop
 80018a0:	200005dc 	.word	0x200005dc

080018a4 <USART1_IRQHandler>:
 80018a4:	4801      	ldr	r0, [pc, #4]	; (80018ac <USART1_IRQHandler+0x8>)
 80018a6:	f003 bcb9 	b.w	800521c <HAL_UART_IRQHandler>
 80018aa:	bf00      	nop
 80018ac:	2000079c 	.word	0x2000079c

080018b0 <SPI3_IRQHandler>:
 80018b0:	4801      	ldr	r0, [pc, #4]	; (80018b8 <SPI3_IRQHandler+0x8>)
 80018b2:	f002 beab 	b.w	800460c <HAL_SPI_IRQHandler>
 80018b6:	bf00      	nop
 80018b8:	20000640 	.word	0x20000640

080018bc <DMA2_Channel1_IRQHandler>:
 80018bc:	4801      	ldr	r0, [pc, #4]	; (80018c4 <DMA2_Channel1_IRQHandler+0x8>)
 80018be:	f001 bb37 	b.w	8002f30 <HAL_DMA_IRQHandler>
 80018c2:	bf00      	nop
 80018c4:	2000051c 	.word	0x2000051c

080018c8 <DMA2_Channel2_IRQHandler>:
 80018c8:	4801      	ldr	r0, [pc, #4]	; (80018d0 <DMA2_Channel2_IRQHandler+0x8>)
 80018ca:	f001 bb31 	b.w	8002f30 <HAL_DMA_IRQHandler>
 80018ce:	bf00      	nop
 80018d0:	2000057c 	.word	0x2000057c

080018d4 <DMA2_Channel3_IRQHandler>:
 80018d4:	4801      	ldr	r0, [pc, #4]	; (80018dc <DMA2_Channel3_IRQHandler+0x8>)
 80018d6:	f001 bb2b 	b.w	8002f30 <HAL_DMA_IRQHandler>
 80018da:	bf00      	nop
 80018dc:	2000073c 	.word	0x2000073c

080018e0 <SystemInit>:
 80018e0:	4a03      	ldr	r2, [pc, #12]	; (80018f0 <SystemInit+0x10>)
 80018e2:	f8d2 3088 	ldr.w	r3, [r2, #136]	; 0x88
 80018e6:	f443 0370 	orr.w	r3, r3, #15728640	; 0xf00000
 80018ea:	f8c2 3088 	str.w	r3, [r2, #136]	; 0x88
 80018ee:	4770      	bx	lr
 80018f0:	e000ed00 	.word	0xe000ed00

080018f4 <MX_TIM3_Init>:
 80018f4:	b500      	push	{lr}
 80018f6:	2210      	movs	r2, #16
 80018f8:	b089      	sub	sp, #36	; 0x24
 80018fa:	2100      	movs	r1, #0
 80018fc:	eb0d 0002 	add.w	r0, sp, r2
 8001900:	f004 f8e4 	bl	8005acc <memset>
 8001904:	4815      	ldr	r0, [pc, #84]	; (800195c <MX_TIM3_Init+0x68>)
 8001906:	4916      	ldr	r1, [pc, #88]	; (8001960 <MX_TIM3_Init+0x6c>)
 8001908:	2203      	movs	r2, #3
 800190a:	2300      	movs	r3, #0
 800190c:	e9c0 1200 	strd	r1, r2, [r0]
 8001910:	f640 729f 	movw	r2, #3999	; 0xf9f
 8001914:	e9cd 3301 	strd	r3, r3, [sp, #4]
 8001918:	e9c0 2303 	strd	r2, r3, [r0, #12]
 800191c:	9303      	str	r3, [sp, #12]
 800191e:	6083      	str	r3, [r0, #8]
 8001920:	2380      	movs	r3, #128	; 0x80
 8001922:	6183      	str	r3, [r0, #24]
 8001924:	f003 f9b8 	bl	8004c98 <HAL_TIM_Base_Init>
 8001928:	b108      	cbz	r0, 800192e <MX_TIM3_Init+0x3a>
 800192a:	f7ff fe3a 	bl	80015a2 <Error_Handler>
 800192e:	f44f 5380 	mov.w	r3, #4096	; 0x1000
 8001932:	480a      	ldr	r0, [pc, #40]	; (800195c <MX_TIM3_Init+0x68>)
 8001934:	9304      	str	r3, [sp, #16]
 8001936:	a904      	add	r1, sp, #16
 8001938:	f003 fadc 	bl	8004ef4 <HAL_TIM_ConfigClockSource>
 800193c:	b108      	cbz	r0, 8001942 <MX_TIM3_Init+0x4e>
 800193e:	f7ff fe30 	bl	80015a2 <Error_Handler>
 8001942:	2300      	movs	r3, #0
 8001944:	4805      	ldr	r0, [pc, #20]	; (800195c <MX_TIM3_Init+0x68>)
 8001946:	9301      	str	r3, [sp, #4]
 8001948:	a901      	add	r1, sp, #4
 800194a:	9303      	str	r3, [sp, #12]
 800194c:	f003 fb8e 	bl	800506c <HAL_TIMEx_MasterConfigSynchronization>
 8001950:	b108      	cbz	r0, 8001956 <MX_TIM3_Init+0x62>
 8001952:	f7ff fe26 	bl	80015a2 <Error_Handler>
 8001956:	b009      	add	sp, #36	; 0x24
 8001958:	f85d fb04 	ldr.w	pc, [sp], #4
 800195c:	200006f0 	.word	0x200006f0
 8001960:	40000400 	.word	0x40000400

08001964 <HAL_TIM_Base_MspInit>:
 8001964:	b507      	push	{r0, r1, r2, lr}
 8001966:	6803      	ldr	r3, [r0, #0]
 8001968:	4a13      	ldr	r2, [pc, #76]	; (80019b8 <HAL_TIM_Base_MspInit+0x54>)
 800196a:	4293      	cmp	r3, r2
 800196c:	d10c      	bne.n	8001988 <HAL_TIM_Base_MspInit+0x24>
 800196e:	4b13      	ldr	r3, [pc, #76]	; (80019bc <HAL_TIM_Base_MspInit+0x58>)
 8001970:	6e1a      	ldr	r2, [r3, #96]	; 0x60
 8001972:	f442 6200 	orr.w	r2, r2, #2048	; 0x800
 8001976:	661a      	str	r2, [r3, #96]	; 0x60
 8001978:	6e1b      	ldr	r3, [r3, #96]	; 0x60
 800197a:	f403 6300 	and.w	r3, r3, #2048	; 0x800
 800197e:	9300      	str	r3, [sp, #0]
 8001980:	9b00      	ldr	r3, [sp, #0]
 8001982:	b003      	add	sp, #12
 8001984:	f85d fb04 	ldr.w	pc, [sp], #4
 8001988:	4a0d      	ldr	r2, [pc, #52]	; (80019c0 <HAL_TIM_Base_MspInit+0x5c>)
 800198a:	4293      	cmp	r3, r2
 800198c:	d1f9      	bne.n	8001982 <HAL_TIM_Base_MspInit+0x1e>
 800198e:	4b0b      	ldr	r3, [pc, #44]	; (80019bc <HAL_TIM_Base_MspInit+0x58>)
 8001990:	6d9a      	ldr	r2, [r3, #88]	; 0x58
 8001992:	f042 0202 	orr.w	r2, r2, #2
 8001996:	659a      	str	r2, [r3, #88]	; 0x58
 8001998:	6d9b      	ldr	r3, [r3, #88]	; 0x58
 800199a:	2200      	movs	r2, #0
 800199c:	f003 0302 	and.w	r3, r3, #2
 80019a0:	9301      	str	r3, [sp, #4]
 80019a2:	4611      	mov	r1, r2
 80019a4:	201d      	movs	r0, #29
 80019a6:	9b01      	ldr	r3, [sp, #4]
 80019a8:	f000 ffee 	bl	8002988 <HAL_NVIC_SetPriority>
 80019ac:	201d      	movs	r0, #29
 80019ae:	b003      	add	sp, #12
 80019b0:	f85d eb04 	ldr.w	lr, [sp], #4
 80019b4:	f001 b81a 	b.w	80029ec <HAL_NVIC_EnableIRQ>
 80019b8:	40012c00 	.word	0x40012c00
 80019bc:	40021000 	.word	0x40021000
 80019c0:	40000400 	.word	0x40000400

080019c4 <HAL_TIM_MspPostInit>:
 80019c4:	b530      	push	{r4, r5, lr}
 80019c6:	4604      	mov	r4, r0
 80019c8:	b089      	sub	sp, #36	; 0x24
 80019ca:	2214      	movs	r2, #20
 80019cc:	2100      	movs	r1, #0
 80019ce:	a803      	add	r0, sp, #12
 80019d0:	f004 f87c 	bl	8005acc <memset>
 80019d4:	6822      	ldr	r2, [r4, #0]
 80019d6:	4b1d      	ldr	r3, [pc, #116]	; (8001a4c <HAL_TIM_MspPostInit+0x88>)
 80019d8:	429a      	cmp	r2, r3
 80019da:	d135      	bne.n	8001a48 <HAL_TIM_MspPostInit+0x84>
 80019dc:	f503 4364 	add.w	r3, r3, #58368	; 0xe400
 80019e0:	2502      	movs	r5, #2
 80019e2:	6cda      	ldr	r2, [r3, #76]	; 0x4c
 80019e4:	481a      	ldr	r0, [pc, #104]	; (8001a50 <HAL_TIM_MspPostInit+0x8c>)
 80019e6:	f042 0204 	orr.w	r2, r2, #4
 80019ea:	64da      	str	r2, [r3, #76]	; 0x4c
 80019ec:	6cda      	ldr	r2, [r3, #76]	; 0x4c
 80019ee:	f002 0204 	and.w	r2, r2, #4
 80019f2:	9201      	str	r2, [sp, #4]
 80019f4:	9a01      	ldr	r2, [sp, #4]
 80019f6:	6cda      	ldr	r2, [r3, #76]	; 0x4c
 80019f8:	f042 0202 	orr.w	r2, r2, #2
 80019fc:	64da      	str	r2, [r3, #76]	; 0x4c
 80019fe:	6cdb      	ldr	r3, [r3, #76]	; 0x4c
 8001a00:	9507      	str	r5, [sp, #28]
 8001a02:	f003 0302 	and.w	r3, r3, #2
 8001a06:	9302      	str	r3, [sp, #8]
 8001a08:	9b02      	ldr	r3, [sp, #8]
 8001a0a:	a903      	add	r1, sp, #12
 8001a0c:	2307      	movs	r3, #7
 8001a0e:	e9cd 3503 	strd	r3, r5, [sp, #12]
 8001a12:	f001 fd2d 	bl	8003470 <HAL_GPIO_Init>
 8001a16:	f44f 43c0 	mov.w	r3, #24576	; 0x6000
 8001a1a:	e9cd 3503 	strd	r3, r5, [sp, #12]
 8001a1e:	480d      	ldr	r0, [pc, #52]	; (8001a54 <HAL_TIM_MspPostInit+0x90>)
 8001a20:	2306      	movs	r3, #6
 8001a22:	2400      	movs	r4, #0
 8001a24:	a903      	add	r1, sp, #12
 8001a26:	9307      	str	r3, [sp, #28]
 8001a28:	e9cd 4405 	strd	r4, r4, [sp, #20]
 8001a2c:	f001 fd20 	bl	8003470 <HAL_GPIO_Init>
 8001a30:	f44f 4300 	mov.w	r3, #32768	; 0x8000
 8001a34:	e9cd 3503 	strd	r3, r5, [sp, #12]
 8001a38:	4806      	ldr	r0, [pc, #24]	; (8001a54 <HAL_TIM_MspPostInit+0x90>)
 8001a3a:	2304      	movs	r3, #4
 8001a3c:	a903      	add	r1, sp, #12
 8001a3e:	e9cd 4405 	strd	r4, r4, [sp, #20]
 8001a42:	9307      	str	r3, [sp, #28]
 8001a44:	f001 fd14 	bl	8003470 <HAL_GPIO_Init>
 8001a48:	b009      	add	sp, #36	; 0x24
 8001a4a:	bd30      	pop	{r4, r5, pc}
 8001a4c:	40012c00 	.word	0x40012c00
 8001a50:	48000800 	.word	0x48000800
 8001a54:	48000400 	.word	0x48000400

08001a58 <MX_TIM1_Init>:
 8001a58:	b510      	push	{r4, lr}
 8001a5a:	2210      	movs	r2, #16
 8001a5c:	b09c      	sub	sp, #112	; 0x70
 8001a5e:	2400      	movs	r4, #0
 8001a60:	2100      	movs	r1, #0
 8001a62:	eb0d 0002 	add.w	r0, sp, r2
 8001a66:	f004 f831 	bl	8005acc <memset>
 8001a6a:	221c      	movs	r2, #28
 8001a6c:	4621      	mov	r1, r4
 8001a6e:	a808      	add	r0, sp, #32
 8001a70:	e9cd 4401 	strd	r4, r4, [sp, #4]
 8001a74:	9403      	str	r4, [sp, #12]
 8001a76:	f004 f829 	bl	8005acc <memset>
 8001a7a:	4621      	mov	r1, r4
 8001a7c:	2234      	movs	r2, #52	; 0x34
 8001a7e:	a80f      	add	r0, sp, #60	; 0x3c
 8001a80:	f004 f824 	bl	8005acc <memset>
 8001a84:	4836      	ldr	r0, [pc, #216]	; (8001b60 <MX_TIM1_Init+0x108>)
 8001a86:	4b37      	ldr	r3, [pc, #220]	; (8001b64 <MX_TIM1_Init+0x10c>)
 8001a88:	2120      	movs	r1, #32
 8001a8a:	e9c0 3400 	strd	r3, r4, [r0]
 8001a8e:	f240 53db 	movw	r3, #1499	; 0x5db
 8001a92:	e9c0 1302 	strd	r1, r3, [r0, #8]
 8001a96:	2380      	movs	r3, #128	; 0x80
 8001a98:	e9c0 4404 	strd	r4, r4, [r0, #16]
 8001a9c:	6183      	str	r3, [r0, #24]
 8001a9e:	f003 f8fb 	bl	8004c98 <HAL_TIM_Base_Init>
 8001aa2:	b108      	cbz	r0, 8001aa8 <MX_TIM1_Init+0x50>
 8001aa4:	f7ff fd7d 	bl	80015a2 <Error_Handler>
 8001aa8:	f44f 5380 	mov.w	r3, #4096	; 0x1000
 8001aac:	482c      	ldr	r0, [pc, #176]	; (8001b60 <MX_TIM1_Init+0x108>)
 8001aae:	9304      	str	r3, [sp, #16]
 8001ab0:	a904      	add	r1, sp, #16
 8001ab2:	f003 fa1f 	bl	8004ef4 <HAL_TIM_ConfigClockSource>
 8001ab6:	b108      	cbz	r0, 8001abc <MX_TIM1_Init+0x64>
 8001ab8:	f7ff fd73 	bl	80015a2 <Error_Handler>
 8001abc:	4828      	ldr	r0, [pc, #160]	; (8001b60 <MX_TIM1_Init+0x108>)
 8001abe:	f003 f91b 	bl	8004cf8 <HAL_TIM_PWM_Init>
 8001ac2:	b108      	cbz	r0, 8001ac8 <MX_TIM1_Init+0x70>
 8001ac4:	f7ff fd6d 	bl	80015a2 <Error_Handler>
 8001ac8:	2400      	movs	r4, #0
 8001aca:	4825      	ldr	r0, [pc, #148]	; (8001b60 <MX_TIM1_Init+0x108>)
 8001acc:	9403      	str	r4, [sp, #12]
 8001ace:	a901      	add	r1, sp, #4
 8001ad0:	e9cd 4401 	strd	r4, r4, [sp, #4]
 8001ad4:	f003 faca 	bl	800506c <HAL_TIMEx_MasterConfigSynchronization>
 8001ad8:	b108      	cbz	r0, 8001ade <MX_TIM1_Init+0x86>
 8001ada:	f7ff fd62 	bl	80015a2 <Error_Handler>
 8001ade:	2360      	movs	r3, #96	; 0x60
 8001ae0:	2202      	movs	r2, #2
 8001ae2:	e9cd 3408 	strd	r3, r4, [sp, #32]
 8001ae6:	2308      	movs	r3, #8
 8001ae8:	e9cd 230a 	strd	r2, r3, [sp, #40]	; 0x28
 8001aec:	481c      	ldr	r0, [pc, #112]	; (8001b60 <MX_TIM1_Init+0x108>)
 8001aee:	940e      	str	r4, [sp, #56]	; 0x38
 8001af0:	2200      	movs	r2, #0
 8001af2:	a908      	add	r1, sp, #32
 8001af4:	e9cd 440c 	strd	r4, r4, [sp, #48]	; 0x30
 8001af8:	f003 f974 	bl	8004de4 <HAL_TIM_PWM_ConfigChannel>
 8001afc:	b108      	cbz	r0, 8001b02 <MX_TIM1_Init+0xaa>
 8001afe:	f7ff fd50 	bl	80015a2 <Error_Handler>
 8001b02:	4817      	ldr	r0, [pc, #92]	; (8001b60 <MX_TIM1_Init+0x108>)
 8001b04:	2204      	movs	r2, #4
 8001b06:	a908      	add	r1, sp, #32
 8001b08:	f003 f96c 	bl	8004de4 <HAL_TIM_PWM_ConfigChannel>
 8001b0c:	b108      	cbz	r0, 8001b12 <MX_TIM1_Init+0xba>
 8001b0e:	f7ff fd48 	bl	80015a2 <Error_Handler>
 8001b12:	4813      	ldr	r0, [pc, #76]	; (8001b60 <MX_TIM1_Init+0x108>)
 8001b14:	2208      	movs	r2, #8
 8001b16:	a908      	add	r1, sp, #32
 8001b18:	f003 f964 	bl	8004de4 <HAL_TIM_PWM_ConfigChannel>
 8001b1c:	b108      	cbz	r0, 8001b22 <MX_TIM1_Init+0xca>
 8001b1e:	f7ff fd40 	bl	80015a2 <Error_Handler>
 8001b22:	2300      	movs	r3, #0
 8001b24:	f44f 5200 	mov.w	r2, #8192	; 0x2000
 8001b28:	e9cd 2314 	strd	r2, r3, [sp, #80]	; 0x50
 8001b2c:	480c      	ldr	r0, [pc, #48]	; (8001b60 <MX_TIM1_Init+0x108>)
 8001b2e:	9313      	str	r3, [sp, #76]	; 0x4c
 8001b30:	f04f 7200 	mov.w	r2, #33554432	; 0x2000000
 8001b34:	a90f      	add	r1, sp, #60	; 0x3c
 8001b36:	e9cd 330f 	strd	r3, r3, [sp, #60]	; 0x3c
 8001b3a:	e9cd 3311 	strd	r3, r3, [sp, #68]	; 0x44
 8001b3e:	e9cd 3316 	strd	r3, r3, [sp, #88]	; 0x58
 8001b42:	e9cd 2318 	strd	r2, r3, [sp, #96]	; 0x60
 8001b46:	e9cd 331a 	strd	r3, r3, [sp, #104]	; 0x68
 8001b4a:	f003 fad3 	bl	80050f4 <HAL_TIMEx_ConfigBreakDeadTime>
 8001b4e:	b108      	cbz	r0, 8001b54 <MX_TIM1_Init+0xfc>
 8001b50:	f7ff fd27 	bl	80015a2 <Error_Handler>
 8001b54:	4802      	ldr	r0, [pc, #8]	; (8001b60 <MX_TIM1_Init+0x108>)
 8001b56:	f7ff ff35 	bl	80019c4 <HAL_TIM_MspPostInit>
 8001b5a:	b01c      	add	sp, #112	; 0x70
 8001b5c:	bd10      	pop	{r4, pc}
 8001b5e:	bf00      	nop
 8001b60:	200006a4 	.word	0x200006a4
 8001b64:	40012c00 	.word	0x40012c00

08001b68 <MX_USART1_UART_Init>:
 8001b68:	4816      	ldr	r0, [pc, #88]	; (8001bc4 <MX_USART1_UART_Init+0x5c>)
 8001b6a:	4a17      	ldr	r2, [pc, #92]	; (8001bc8 <MX_USART1_UART_Init+0x60>)
 8001b6c:	b508      	push	{r3, lr}
 8001b6e:	f44f 2361 	mov.w	r3, #921600	; 0xe1000
 8001b72:	e9c0 2300 	strd	r2, r3, [r0]
 8001b76:	2300      	movs	r3, #0
 8001b78:	220c      	movs	r2, #12
 8001b7a:	e9c0 3302 	strd	r3, r3, [r0, #8]
 8001b7e:	e9c0 2305 	strd	r2, r3, [r0, #20]
 8001b82:	e9c0 3307 	strd	r3, r3, [r0, #28]
 8001b86:	e9c0 3309 	strd	r3, r3, [r0, #36]	; 0x24
 8001b8a:	6103      	str	r3, [r0, #16]
 8001b8c:	f003 feed 	bl	800596a <HAL_UART_Init>
 8001b90:	b108      	cbz	r0, 8001b96 <MX_USART1_UART_Init+0x2e>
 8001b92:	f7ff fd06 	bl	80015a2 <Error_Handler>
 8001b96:	480b      	ldr	r0, [pc, #44]	; (8001bc4 <MX_USART1_UART_Init+0x5c>)
 8001b98:	2100      	movs	r1, #0
 8001b9a:	f003 ff57 	bl	8005a4c <HAL_UARTEx_SetTxFifoThreshold>
 8001b9e:	b108      	cbz	r0, 8001ba4 <MX_USART1_UART_Init+0x3c>
 8001ba0:	f7ff fcff 	bl	80015a2 <Error_Handler>
 8001ba4:	4807      	ldr	r0, [pc, #28]	; (8001bc4 <MX_USART1_UART_Init+0x5c>)
 8001ba6:	2100      	movs	r1, #0
 8001ba8:	f003 ff70 	bl	8005a8c <HAL_UARTEx_SetRxFifoThreshold>
 8001bac:	b108      	cbz	r0, 8001bb2 <MX_USART1_UART_Init+0x4a>
 8001bae:	f7ff fcf8 	bl	80015a2 <Error_Handler>
 8001bb2:	4804      	ldr	r0, [pc, #16]	; (8001bc4 <MX_USART1_UART_Init+0x5c>)
 8001bb4:	f003 ff2f 	bl	8005a16 <HAL_UARTEx_DisableFifoMode>
 8001bb8:	b118      	cbz	r0, 8001bc2 <MX_USART1_UART_Init+0x5a>
 8001bba:	e8bd 4008 	ldmia.w	sp!, {r3, lr}
 8001bbe:	f7ff bcf0 	b.w	80015a2 <Error_Handler>
 8001bc2:	bd08      	pop	{r3, pc}
 8001bc4:	2000079c 	.word	0x2000079c
 8001bc8:	40013800 	.word	0x40013800

08001bcc <HAL_UART_MspInit>:
 8001bcc:	b570      	push	{r4, r5, r6, lr}
 8001bce:	b098      	sub	sp, #96	; 0x60
 8001bd0:	4606      	mov	r6, r0
 8001bd2:	2214      	movs	r2, #20
 8001bd4:	2100      	movs	r1, #0
 8001bd6:	a802      	add	r0, sp, #8
 8001bd8:	f003 ff78 	bl	8005acc <memset>
 8001bdc:	2244      	movs	r2, #68	; 0x44
 8001bde:	2100      	movs	r1, #0
 8001be0:	a807      	add	r0, sp, #28
 8001be2:	f003 ff73 	bl	8005acc <memset>
 8001be6:	6832      	ldr	r2, [r6, #0]
 8001be8:	4b25      	ldr	r3, [pc, #148]	; (8001c80 <HAL_UART_MspInit+0xb4>)
 8001bea:	429a      	cmp	r2, r3
 8001bec:	d145      	bne.n	8001c7a <HAL_UART_MspInit+0xae>
 8001bee:	2301      	movs	r3, #1
 8001bf0:	a807      	add	r0, sp, #28
 8001bf2:	9307      	str	r3, [sp, #28]
 8001bf4:	f002 f8ee 	bl	8003dd4 <HAL_RCCEx_PeriphCLKConfig>
 8001bf8:	b108      	cbz	r0, 8001bfe <HAL_UART_MspInit+0x32>
 8001bfa:	f7ff fcd2 	bl	80015a2 <Error_Handler>
 8001bfe:	4b21      	ldr	r3, [pc, #132]	; (8001c84 <HAL_UART_MspInit+0xb8>)
 8001c00:	4821      	ldr	r0, [pc, #132]	; (8001c88 <HAL_UART_MspInit+0xbc>)
 8001c02:	6e1a      	ldr	r2, [r3, #96]	; 0x60
 8001c04:	4c21      	ldr	r4, [pc, #132]	; (8001c8c <HAL_UART_MspInit+0xc0>)
 8001c06:	f442 4280 	orr.w	r2, r2, #16384	; 0x4000
 8001c0a:	661a      	str	r2, [r3, #96]	; 0x60
 8001c0c:	6e1a      	ldr	r2, [r3, #96]	; 0x60
 8001c0e:	f402 4280 	and.w	r2, r2, #16384	; 0x4000
 8001c12:	9200      	str	r2, [sp, #0]
 8001c14:	9a00      	ldr	r2, [sp, #0]
 8001c16:	6cda      	ldr	r2, [r3, #76]	; 0x4c
 8001c18:	f042 0204 	orr.w	r2, r2, #4
 8001c1c:	64da      	str	r2, [r3, #76]	; 0x4c
 8001c1e:	6cdb      	ldr	r3, [r3, #76]	; 0x4c
 8001c20:	f003 0304 	and.w	r3, r3, #4
 8001c24:	9301      	str	r3, [sp, #4]
 8001c26:	9b01      	ldr	r3, [sp, #4]
 8001c28:	2230      	movs	r2, #48	; 0x30
 8001c2a:	2302      	movs	r3, #2
 8001c2c:	2500      	movs	r5, #0
 8001c2e:	e9cd 2302 	strd	r2, r3, [sp, #8]
 8001c32:	a902      	add	r1, sp, #8
 8001c34:	2307      	movs	r3, #7
 8001c36:	9306      	str	r3, [sp, #24]
 8001c38:	e9cd 5504 	strd	r5, r5, [sp, #16]
 8001c3c:	f001 fc18 	bl	8003470 <HAL_GPIO_Init>
 8001c40:	4913      	ldr	r1, [pc, #76]	; (8001c90 <HAL_UART_MspInit+0xc4>)
 8001c42:	6225      	str	r5, [r4, #32]
 8001c44:	2319      	movs	r3, #25
 8001c46:	e9c4 1300 	strd	r1, r3, [r4]
 8001c4a:	2310      	movs	r3, #16
 8001c4c:	e9c4 3502 	strd	r3, r5, [r4, #8]
 8001c50:	4620      	mov	r0, r4
 8001c52:	2380      	movs	r3, #128	; 0x80
 8001c54:	e9c4 3504 	strd	r3, r5, [r4, #16]
 8001c58:	e9c4 5506 	strd	r5, r5, [r4, #24]
 8001c5c:	f001 f846 	bl	8002cec <HAL_DMA_Init>
 8001c60:	b108      	cbz	r0, 8001c66 <HAL_UART_MspInit+0x9a>
 8001c62:	f7ff fc9e 	bl	80015a2 <Error_Handler>
 8001c66:	2200      	movs	r2, #0
 8001c68:	2025      	movs	r0, #37	; 0x25
 8001c6a:	67b4      	str	r4, [r6, #120]	; 0x78
 8001c6c:	4611      	mov	r1, r2
 8001c6e:	62a6      	str	r6, [r4, #40]	; 0x28
 8001c70:	f000 fe8a 	bl	8002988 <HAL_NVIC_SetPriority>
 8001c74:	2025      	movs	r0, #37	; 0x25
 8001c76:	f000 feb9 	bl	80029ec <HAL_NVIC_EnableIRQ>
 8001c7a:	b018      	add	sp, #96	; 0x60
 8001c7c:	bd70      	pop	{r4, r5, r6, pc}
 8001c7e:	bf00      	nop
 8001c80:	40013800 	.word	0x40013800
 8001c84:	40021000 	.word	0x40021000
 8001c88:	48000800 	.word	0x48000800
 8001c8c:	2000073c 	.word	0x2000073c
 8001c90:	40020430 	.word	0x40020430

08001c94 <Reset_Handler>:
 8001c94:	480d      	ldr	r0, [pc, #52]	; (8001ccc <LoopForever+0x2>)
 8001c96:	4685      	mov	sp, r0
 8001c98:	480d      	ldr	r0, [pc, #52]	; (8001cd0 <LoopForever+0x6>)
 8001c9a:	490e      	ldr	r1, [pc, #56]	; (8001cd4 <LoopForever+0xa>)
 8001c9c:	4a0e      	ldr	r2, [pc, #56]	; (8001cd8 <LoopForever+0xe>)
 8001c9e:	2300      	movs	r3, #0
 8001ca0:	e002      	b.n	8001ca8 <LoopCopyDataInit>

08001ca2 <CopyDataInit>:
 8001ca2:	58d4      	ldr	r4, [r2, r3]
 8001ca4:	50c4      	str	r4, [r0, r3]
 8001ca6:	3304      	adds	r3, #4

08001ca8 <LoopCopyDataInit>:
 8001ca8:	18c4      	adds	r4, r0, r3
 8001caa:	428c      	cmp	r4, r1
 8001cac:	d3f9      	bcc.n	8001ca2 <CopyDataInit>
 8001cae:	4a0b      	ldr	r2, [pc, #44]	; (8001cdc <LoopForever+0x12>)
 8001cb0:	4c0b      	ldr	r4, [pc, #44]	; (8001ce0 <LoopForever+0x16>)
 8001cb2:	2300      	movs	r3, #0
 8001cb4:	e001      	b.n	8001cba <LoopFillZerobss>

08001cb6 <FillZerobss>:
 8001cb6:	6013      	str	r3, [r2, #0]
 8001cb8:	3204      	adds	r2, #4

08001cba <LoopFillZerobss>:
 8001cba:	42a2      	cmp	r2, r4
 8001cbc:	d3fb      	bcc.n	8001cb6 <FillZerobss>
 8001cbe:	f7ff fe0f 	bl	80018e0 <SystemInit>
 8001cc2:	f003 ff0b 	bl	8005adc <__libc_init_array>
 8001cc6:	f7ff fc4c 	bl	8001562 <main>

08001cca <LoopForever>:
 8001cca:	e7fe      	b.n	8001cca <LoopForever>
 8001ccc:	20008000 	.word	0x20008000
 8001cd0:	20000000 	.word	0x20000000
 8001cd4:	20000010 	.word	0x20000010
 8001cd8:	08005bac 	.word	0x08005bac
 8001cdc:	20000010 	.word	0x20000010
 8001ce0:	20000830 	.word	0x20000830

08001ce4 <COMP1_2_3_IRQHandler>:
 8001ce4:	e7fe      	b.n	8001ce4 <COMP1_2_3_IRQHandler>
	...

08001ce8 <HAL_InitTick>:
 8001ce8:	b538      	push	{r3, r4, r5, lr}
 8001cea:	4b0f      	ldr	r3, [pc, #60]	; (8001d28 <HAL_InitTick+0x40>)
 8001cec:	681a      	ldr	r2, [r3, #0]
 8001cee:	4605      	mov	r5, r0
 8001cf0:	b90a      	cbnz	r2, 8001cf6 <HAL_InitTick+0xe>
 8001cf2:	2001      	movs	r0, #1
 8001cf4:	bd38      	pop	{r3, r4, r5, pc}
 8001cf6:	f44f 737a 	mov.w	r3, #1000	; 0x3e8
 8001cfa:	fbb3 f3f2 	udiv	r3, r3, r2
 8001cfe:	4a0b      	ldr	r2, [pc, #44]	; (8001d2c <HAL_InitTick+0x44>)
 8001d00:	6810      	ldr	r0, [r2, #0]
 8001d02:	fbb0 f0f3 	udiv	r0, r0, r3
 8001d06:	f000 fe7f 	bl	8002a08 <HAL_SYSTICK_Config>
 8001d0a:	4604      	mov	r4, r0
 8001d0c:	2800      	cmp	r0, #0
 8001d0e:	d1f0      	bne.n	8001cf2 <HAL_InitTick+0xa>
 8001d10:	2d0f      	cmp	r5, #15
 8001d12:	d8ee      	bhi.n	8001cf2 <HAL_InitTick+0xa>
 8001d14:	4602      	mov	r2, r0
 8001d16:	4629      	mov	r1, r5
 8001d18:	f04f 30ff 	mov.w	r0, #4294967295
 8001d1c:	f000 fe34 	bl	8002988 <HAL_NVIC_SetPriority>
 8001d20:	4b03      	ldr	r3, [pc, #12]	; (8001d30 <HAL_InitTick+0x48>)
 8001d22:	4620      	mov	r0, r4
 8001d24:	601d      	str	r5, [r3, #0]
 8001d26:	e7e5      	b.n	8001cf4 <HAL_InitTick+0xc>
 8001d28:	20000008 	.word	0x20000008
 8001d2c:	20000004 	.word	0x20000004
 8001d30:	2000000c 	.word	0x2000000c

08001d34 <HAL_Init>:
 8001d34:	b510      	push	{r4, lr}
 8001d36:	2003      	movs	r0, #3
 8001d38:	f000 fe14 	bl	8002964 <HAL_NVIC_SetPriorityGrouping>
 8001d3c:	200f      	movs	r0, #15
 8001d3e:	f7ff ffd3 	bl	8001ce8 <HAL_InitTick>
 8001d42:	4604      	mov	r4, r0
 8001d44:	b918      	cbnz	r0, 8001d4e <HAL_Init+0x1a>
 8001d46:	f7ff fd51 	bl	80017ec <HAL_MspInit>
 8001d4a:	4620      	mov	r0, r4
 8001d4c:	bd10      	pop	{r4, pc}
 8001d4e:	2401      	movs	r4, #1
 8001d50:	e7fb      	b.n	8001d4a <HAL_Init+0x16>
	...

08001d54 <HAL_IncTick>:
 8001d54:	4a03      	ldr	r2, [pc, #12]	; (8001d64 <HAL_IncTick+0x10>)
 8001d56:	4904      	ldr	r1, [pc, #16]	; (8001d68 <HAL_IncTick+0x14>)
 8001d58:	6813      	ldr	r3, [r2, #0]
 8001d5a:	6809      	ldr	r1, [r1, #0]
 8001d5c:	440b      	add	r3, r1
 8001d5e:	6013      	str	r3, [r2, #0]
 8001d60:	4770      	bx	lr
 8001d62:	bf00      	nop
 8001d64:	2000082c 	.word	0x2000082c
 8001d68:	20000008 	.word	0x20000008

08001d6c <HAL_GetTick>:
 8001d6c:	4b01      	ldr	r3, [pc, #4]	; (8001d74 <HAL_GetTick+0x8>)
 8001d6e:	6818      	ldr	r0, [r3, #0]
 8001d70:	4770      	bx	lr
 8001d72:	bf00      	nop
 8001d74:	2000082c 	.word	0x2000082c

08001d78 <HAL_Delay>:
 8001d78:	b538      	push	{r3, r4, r5, lr}
 8001d7a:	4604      	mov	r4, r0
 8001d7c:	f7ff fff6 	bl	8001d6c <HAL_GetTick>
 8001d80:	1c63      	adds	r3, r4, #1
 8001d82:	bf1c      	itt	ne
 8001d84:	4b05      	ldrne	r3, [pc, #20]	; (8001d9c <HAL_Delay+0x24>)
 8001d86:	681b      	ldrne	r3, [r3, #0]
 8001d88:	4605      	mov	r5, r0
 8001d8a:	bf18      	it	ne
 8001d8c:	18e4      	addne	r4, r4, r3
 8001d8e:	f7ff ffed 	bl	8001d6c <HAL_GetTick>
 8001d92:	1b43      	subs	r3, r0, r5
 8001d94:	42a3      	cmp	r3, r4
 8001d96:	d3fa      	bcc.n	8001d8e <HAL_Delay+0x16>
 8001d98:	bd38      	pop	{r3, r4, r5, pc}
 8001d9a:	bf00      	nop
 8001d9c:	20000008 	.word	0x20000008

08001da0 <LL_ADC_SetChannelSamplingTime>:
 8001da0:	b530      	push	{r4, r5, lr}
 8001da2:	0dcc      	lsrs	r4, r1, #23
 8001da4:	f004 0404 	and.w	r4, r4, #4
 8001da8:	3014      	adds	r0, #20
 8001daa:	f3c1 5104 	ubfx	r1, r1, #20, #5
 8001dae:	5903      	ldr	r3, [r0, r4]
 8001db0:	2507      	movs	r5, #7
 8001db2:	408d      	lsls	r5, r1
 8001db4:	ea23 0305 	bic.w	r3, r3, r5
 8001db8:	408a      	lsls	r2, r1
 8001dba:	4313      	orrs	r3, r2
 8001dbc:	5103      	str	r3, [r0, r4]
 8001dbe:	bd30      	pop	{r4, r5, pc}

08001dc0 <LL_ADC_IsEnabled>:
 8001dc0:	6880      	ldr	r0, [r0, #8]
 8001dc2:	f000 0001 	and.w	r0, r0, #1
 8001dc6:	4770      	bx	lr

08001dc8 <LL_ADC_REG_IsConversionOngoing>:
 8001dc8:	6880      	ldr	r0, [r0, #8]
 8001dca:	f3c0 0080 	ubfx	r0, r0, #2, #1
 8001dce:	4770      	bx	lr

08001dd0 <HAL_ADC_Init>:
 8001dd0:	b537      	push	{r0, r1, r2, r4, r5, lr}
 8001dd2:	2300      	movs	r3, #0
 8001dd4:	9301      	str	r3, [sp, #4]
 8001dd6:	4604      	mov	r4, r0
 8001dd8:	2800      	cmp	r0, #0
 8001dda:	f000 80e2 	beq.w	8001fa2 <HAL_ADC_Init+0x1d2>
 8001dde:	6dc5      	ldr	r5, [r0, #92]	; 0x5c
 8001de0:	b925      	cbnz	r5, 8001dec <HAL_ADC_Init+0x1c>
 8001de2:	f7ff f8e3 	bl	8000fac <HAL_ADC_MspInit>
 8001de6:	6625      	str	r5, [r4, #96]	; 0x60
 8001de8:	f884 5058 	strb.w	r5, [r4, #88]	; 0x58
 8001dec:	6823      	ldr	r3, [r4, #0]
 8001dee:	689a      	ldr	r2, [r3, #8]
 8001df0:	0090      	lsls	r0, r2, #2
 8001df2:	bf41      	itttt	mi
 8001df4:	689a      	ldrmi	r2, [r3, #8]
 8001df6:	f022 4220 	bicmi.w	r2, r2, #2684354560	; 0xa0000000
 8001dfa:	f022 023f 	bicmi.w	r2, r2, #63	; 0x3f
 8001dfe:	609a      	strmi	r2, [r3, #8]
 8001e00:	689a      	ldr	r2, [r3, #8]
 8001e02:	00d1      	lsls	r1, r2, #3
 8001e04:	f140 80a5 	bpl.w	8001f52 <HAL_ADC_Init+0x182>
 8001e08:	689a      	ldr	r2, [r3, #8]
 8001e0a:	00d2      	lsls	r2, r2, #3
 8001e0c:	f100 80b8 	bmi.w	8001f80 <HAL_ADC_Init+0x1b0>
 8001e10:	6de2      	ldr	r2, [r4, #92]	; 0x5c
 8001e12:	f042 0210 	orr.w	r2, r2, #16
 8001e16:	65e2      	str	r2, [r4, #92]	; 0x5c
 8001e18:	6e22      	ldr	r2, [r4, #96]	; 0x60
 8001e1a:	f042 0201 	orr.w	r2, r2, #1
 8001e1e:	6622      	str	r2, [r4, #96]	; 0x60
 8001e20:	2101      	movs	r1, #1
 8001e22:	4618      	mov	r0, r3
 8001e24:	f7ff ffd0 	bl	8001dc8 <LL_ADC_REG_IsConversionOngoing>
 8001e28:	6de2      	ldr	r2, [r4, #92]	; 0x5c
 8001e2a:	f002 0210 	and.w	r2, r2, #16
 8001e2e:	4310      	orrs	r0, r2
 8001e30:	f040 80b3 	bne.w	8001f9a <HAL_ADC_Init+0x1ca>
 8001e34:	6de2      	ldr	r2, [r4, #92]	; 0x5c
 8001e36:	f422 7281 	bic.w	r2, r2, #258	; 0x102
 8001e3a:	f042 0202 	orr.w	r2, r2, #2
 8001e3e:	65e2      	str	r2, [r4, #92]	; 0x5c
 8001e40:	4618      	mov	r0, r3
 8001e42:	f7ff ffbd 	bl	8001dc0 <LL_ADC_IsEnabled>
 8001e46:	b980      	cbnz	r0, 8001e6a <HAL_ADC_Init+0x9a>
 8001e48:	f04f 40a0 	mov.w	r0, #1342177280	; 0x50000000
 8001e4c:	f7ff ffb8 	bl	8001dc0 <LL_ADC_IsEnabled>
 8001e50:	4602      	mov	r2, r0
 8001e52:	4855      	ldr	r0, [pc, #340]	; (8001fa8 <HAL_ADC_Init+0x1d8>)
 8001e54:	f7ff ffb4 	bl	8001dc0 <LL_ADC_IsEnabled>
 8001e58:	4310      	orrs	r0, r2
 8001e5a:	d106      	bne.n	8001e6a <HAL_ADC_Init+0x9a>
 8001e5c:	4853      	ldr	r0, [pc, #332]	; (8001fac <HAL_ADC_Init+0x1dc>)
 8001e5e:	6865      	ldr	r5, [r4, #4]
 8001e60:	6882      	ldr	r2, [r0, #8]
 8001e62:	f422 127c 	bic.w	r2, r2, #4128768	; 0x3f0000
 8001e66:	432a      	orrs	r2, r5
 8001e68:	6082      	str	r2, [r0, #8]
 8001e6a:	68e5      	ldr	r5, [r4, #12]
 8001e6c:	6be2      	ldr	r2, [r4, #60]	; 0x3c
 8001e6e:	f894 0024 	ldrb.w	r0, [r4, #36]	; 0x24
 8001e72:	432a      	orrs	r2, r5
 8001e74:	68a5      	ldr	r5, [r4, #8]
 8001e76:	432a      	orrs	r2, r5
 8001e78:	7f65      	ldrb	r5, [r4, #29]
 8001e7a:	2801      	cmp	r0, #1
 8001e7c:	ea42 3245 	orr.w	r2, r2, r5, lsl #13
 8001e80:	ea42 4200 	orr.w	r2, r2, r0, lsl #16
 8001e84:	bf02      	ittt	eq
 8001e86:	6aa0      	ldreq	r0, [r4, #40]	; 0x28
 8001e88:	f100 30ff 	addeq.w	r0, r0, #4294967295
 8001e8c:	ea42 4240 	orreq.w	r2, r2, r0, lsl #17
 8001e90:	6ae0      	ldr	r0, [r4, #44]	; 0x2c
 8001e92:	b120      	cbz	r0, 8001e9e <HAL_ADC_Init+0xce>
 8001e94:	6b25      	ldr	r5, [r4, #48]	; 0x30
 8001e96:	f400 7078 	and.w	r0, r0, #992	; 0x3e0
 8001e9a:	4328      	orrs	r0, r5
 8001e9c:	4302      	orrs	r2, r0
 8001e9e:	68dd      	ldr	r5, [r3, #12]
 8001ea0:	4843      	ldr	r0, [pc, #268]	; (8001fb0 <HAL_ADC_Init+0x1e0>)
 8001ea2:	4028      	ands	r0, r5
 8001ea4:	4310      	orrs	r0, r2
 8001ea6:	60d8      	str	r0, [r3, #12]
 8001ea8:	691a      	ldr	r2, [r3, #16]
 8001eaa:	6b60      	ldr	r0, [r4, #52]	; 0x34
 8001eac:	f022 6240 	bic.w	r2, r2, #201326592	; 0xc000000
 8001eb0:	4302      	orrs	r2, r0
 8001eb2:	611a      	str	r2, [r3, #16]
 8001eb4:	4618      	mov	r0, r3
 8001eb6:	f7ff ff87 	bl	8001dc8 <LL_ADC_REG_IsConversionOngoing>
 8001eba:	689a      	ldr	r2, [r3, #8]
 8001ebc:	f002 0208 	and.w	r2, r2, #8
 8001ec0:	4310      	orrs	r0, r2
 8001ec2:	d12e      	bne.n	8001f22 <HAL_ADC_Init+0x152>
 8001ec4:	68d8      	ldr	r0, [r3, #12]
 8001ec6:	f894 2038 	ldrb.w	r2, [r4, #56]	; 0x38
 8001eca:	7f25      	ldrb	r5, [r4, #28]
 8001ecc:	0052      	lsls	r2, r2, #1
 8001ece:	f420 4080 	bic.w	r0, r0, #16384	; 0x4000
 8001ed2:	ea42 3285 	orr.w	r2, r2, r5, lsl #14
 8001ed6:	f020 0002 	bic.w	r0, r0, #2
 8001eda:	4302      	orrs	r2, r0
 8001edc:	6925      	ldr	r5, [r4, #16]
 8001ede:	60da      	str	r2, [r3, #12]
 8001ee0:	4834      	ldr	r0, [pc, #208]	; (8001fb4 <HAL_ADC_Init+0x1e4>)
 8001ee2:	691a      	ldr	r2, [r3, #16]
 8001ee4:	2d00      	cmp	r5, #0
 8001ee6:	d04d      	beq.n	8001f84 <HAL_ADC_Init+0x1b4>
 8001ee8:	f442 3280 	orr.w	r2, r2, #65536	; 0x10000
 8001eec:	611a      	str	r2, [r3, #16]
 8001eee:	f8d3 20c0 	ldr.w	r2, [r3, #192]	; 0xc0
 8001ef2:	4002      	ands	r2, r0
 8001ef4:	432a      	orrs	r2, r5
 8001ef6:	f8c3 20c0 	str.w	r2, [r3, #192]	; 0xc0
 8001efa:	f894 2040 	ldrb.w	r2, [r4, #64]	; 0x40
 8001efe:	2a01      	cmp	r2, #1
 8001f00:	d147      	bne.n	8001f92 <HAL_ADC_Init+0x1c2>
 8001f02:	e9d4 2511 	ldrd	r2, r5, [r4, #68]	; 0x44
 8001f06:	6918      	ldr	r0, [r3, #16]
 8001f08:	f420 60ff 	bic.w	r0, r0, #2040	; 0x7f8
 8001f0c:	f020 0004 	bic.w	r0, r0, #4
 8001f10:	432a      	orrs	r2, r5
 8001f12:	4302      	orrs	r2, r0
 8001f14:	6ce0      	ldr	r0, [r4, #76]	; 0x4c
 8001f16:	4302      	orrs	r2, r0
 8001f18:	6d20      	ldr	r0, [r4, #80]	; 0x50
 8001f1a:	4302      	orrs	r2, r0
 8001f1c:	f042 0201 	orr.w	r2, r2, #1
 8001f20:	611a      	str	r2, [r3, #16]
 8001f22:	6962      	ldr	r2, [r4, #20]
 8001f24:	2a01      	cmp	r2, #1
 8001f26:	bf05      	ittet	eq
 8001f28:	6b18      	ldreq	r0, [r3, #48]	; 0x30
 8001f2a:	6a22      	ldreq	r2, [r4, #32]
 8001f2c:	6b1a      	ldrne	r2, [r3, #48]	; 0x30
 8001f2e:	f102 32ff 	addeq.w	r2, r2, #4294967295
 8001f32:	bf06      	itte	eq
 8001f34:	f020 000f 	biceq.w	r0, r0, #15
 8001f38:	4302      	orreq	r2, r0
 8001f3a:	f022 020f 	bicne.w	r2, r2, #15
 8001f3e:	631a      	str	r2, [r3, #48]	; 0x30
 8001f40:	6de3      	ldr	r3, [r4, #92]	; 0x5c
 8001f42:	f023 0303 	bic.w	r3, r3, #3
 8001f46:	f043 0301 	orr.w	r3, r3, #1
 8001f4a:	65e3      	str	r3, [r4, #92]	; 0x5c
 8001f4c:	4608      	mov	r0, r1
 8001f4e:	b003      	add	sp, #12
 8001f50:	bd30      	pop	{r4, r5, pc}
 8001f52:	689a      	ldr	r2, [r3, #8]
 8001f54:	4918      	ldr	r1, [pc, #96]	; (8001fb8 <HAL_ADC_Init+0x1e8>)
 8001f56:	f022 4210 	bic.w	r2, r2, #2415919104	; 0x90000000
 8001f5a:	f022 023f 	bic.w	r2, r2, #63	; 0x3f
 8001f5e:	f042 5280 	orr.w	r2, r2, #268435456	; 0x10000000
 8001f62:	609a      	str	r2, [r3, #8]
 8001f64:	4a15      	ldr	r2, [pc, #84]	; (8001fbc <HAL_ADC_Init+0x1ec>)
 8001f66:	6812      	ldr	r2, [r2, #0]
 8001f68:	fbb2 f2f1 	udiv	r2, r2, r1
 8001f6c:	3201      	adds	r2, #1
 8001f6e:	0052      	lsls	r2, r2, #1
 8001f70:	9201      	str	r2, [sp, #4]
 8001f72:	9a01      	ldr	r2, [sp, #4]
 8001f74:	2a00      	cmp	r2, #0
 8001f76:	f43f af47 	beq.w	8001e08 <HAL_ADC_Init+0x38>
 8001f7a:	9a01      	ldr	r2, [sp, #4]
 8001f7c:	3a01      	subs	r2, #1
 8001f7e:	e7f7      	b.n	8001f70 <HAL_ADC_Init+0x1a0>
 8001f80:	2100      	movs	r1, #0
 8001f82:	e74e      	b.n	8001e22 <HAL_ADC_Init+0x52>
 8001f84:	f422 3280 	bic.w	r2, r2, #65536	; 0x10000
 8001f88:	611a      	str	r2, [r3, #16]
 8001f8a:	f8d3 20c0 	ldr.w	r2, [r3, #192]	; 0xc0
 8001f8e:	4002      	ands	r2, r0
 8001f90:	e7b1      	b.n	8001ef6 <HAL_ADC_Init+0x126>
 8001f92:	691a      	ldr	r2, [r3, #16]
 8001f94:	f022 0201 	bic.w	r2, r2, #1
 8001f98:	e7c2      	b.n	8001f20 <HAL_ADC_Init+0x150>
 8001f9a:	6de3      	ldr	r3, [r4, #92]	; 0x5c
 8001f9c:	f043 0310 	orr.w	r3, r3, #16
 8001fa0:	65e3      	str	r3, [r4, #92]	; 0x5c
 8001fa2:	2101      	movs	r1, #1
 8001fa4:	e7d2      	b.n	8001f4c <HAL_ADC_Init+0x17c>
 8001fa6:	bf00      	nop
 8001fa8:	50000100 	.word	0x50000100
 8001fac:	50000300 	.word	0x50000300
 8001fb0:	fff04007 	.word	0xfff04007
 8001fb4:	ffffc000 	.word	0xffffc000
 8001fb8:	00030d40 	.word	0x00030d40
 8001fbc:	20000004 	.word	0x20000004

08001fc0 <ADC_DMAHalfConvCplt>:
 8001fc0:	b508      	push	{r3, lr}
 8001fc2:	6a80      	ldr	r0, [r0, #40]	; 0x28
 8001fc4:	f7fe fd7c 	bl	8000ac0 <HAL_ADC_ConvHalfCpltCallback>
 8001fc8:	bd08      	pop	{r3, pc}

08001fca <HAL_ADC_LevelOutOfWindowCallback>:
 8001fca:	4770      	bx	lr

08001fcc <HAL_ADC_ErrorCallback>:
 8001fcc:	4770      	bx	lr
	...

08001fd0 <HAL_ADC_IRQHandler>:
 8001fd0:	b5f8      	push	{r3, r4, r5, r6, r7, lr}
 8001fd2:	6803      	ldr	r3, [r0, #0]
 8001fd4:	681d      	ldr	r5, [r3, #0]
 8001fd6:	685e      	ldr	r6, [r3, #4]
 8001fd8:	4b8a      	ldr	r3, [pc, #552]	; (8002204 <HAL_ADC_IRQHandler+0x234>)
 8001fda:	689f      	ldr	r7, [r3, #8]
 8001fdc:	07a9      	lsls	r1, r5, #30
 8001fde:	4604      	mov	r4, r0
 8001fe0:	f007 071f 	and.w	r7, r7, #31
 8001fe4:	d50d      	bpl.n	8002002 <HAL_ADC_IRQHandler+0x32>
 8001fe6:	07b2      	lsls	r2, r6, #30
 8001fe8:	d50b      	bpl.n	8002002 <HAL_ADC_IRQHandler+0x32>
 8001fea:	6dc3      	ldr	r3, [r0, #92]	; 0x5c
 8001fec:	06db      	lsls	r3, r3, #27
 8001fee:	bf5e      	ittt	pl
 8001ff0:	6dc3      	ldrpl	r3, [r0, #92]	; 0x5c
 8001ff2:	f443 6300 	orrpl.w	r3, r3, #2048	; 0x800
 8001ff6:	65c3      	strpl	r3, [r0, #92]	; 0x5c
 8001ff8:	f000 fc4c 	bl	8002894 <HAL_ADCEx_EndOfSamplingCallback>
 8001ffc:	6823      	ldr	r3, [r4, #0]
 8001ffe:	2202      	movs	r2, #2
 8002000:	601a      	str	r2, [r3, #0]
 8002002:	0768      	lsls	r0, r5, #29
 8002004:	d501      	bpl.n	800200a <HAL_ADC_IRQHandler+0x3a>
 8002006:	0771      	lsls	r1, r6, #29
 8002008:	d403      	bmi.n	8002012 <HAL_ADC_IRQHandler+0x42>
 800200a:	072a      	lsls	r2, r5, #28
 800200c:	d532      	bpl.n	8002074 <HAL_ADC_IRQHandler+0xa4>
 800200e:	0733      	lsls	r3, r6, #28
 8002010:	d530      	bpl.n	8002074 <HAL_ADC_IRQHandler+0xa4>
 8002012:	6de3      	ldr	r3, [r4, #92]	; 0x5c
 8002014:	06d8      	lsls	r0, r3, #27
 8002016:	bf5e      	ittt	pl
 8002018:	6de3      	ldrpl	r3, [r4, #92]	; 0x5c
 800201a:	f443 7300 	orrpl.w	r3, r3, #512	; 0x200
 800201e:	65e3      	strpl	r3, [r4, #92]	; 0x5c
 8002020:	6823      	ldr	r3, [r4, #0]
 8002022:	68da      	ldr	r2, [r3, #12]
 8002024:	f412 6f40 	tst.w	r2, #3072	; 0xc00
 8002028:	d11e      	bne.n	8002068 <HAL_ADC_IRQHandler+0x98>
 800202a:	4a77      	ldr	r2, [pc, #476]	; (8002208 <HAL_ADC_IRQHandler+0x238>)
 800202c:	4293      	cmp	r3, r2
 800202e:	f000 80dd 	beq.w	80021ec <HAL_ADC_IRQHandler+0x21c>
 8002032:	68da      	ldr	r2, [r3, #12]
 8002034:	0491      	lsls	r1, r2, #18
 8002036:	d417      	bmi.n	8002068 <HAL_ADC_IRQHandler+0x98>
 8002038:	681a      	ldr	r2, [r3, #0]
 800203a:	0712      	lsls	r2, r2, #28
 800203c:	d514      	bpl.n	8002068 <HAL_ADC_IRQHandler+0x98>
 800203e:	4618      	mov	r0, r3
 8002040:	f7ff fec2 	bl	8001dc8 <LL_ADC_REG_IsConversionOngoing>
 8002044:	2800      	cmp	r0, #0
 8002046:	f040 80b3 	bne.w	80021b0 <HAL_ADC_IRQHandler+0x1e0>
 800204a:	685a      	ldr	r2, [r3, #4]
 800204c:	f022 020c 	bic.w	r2, r2, #12
 8002050:	605a      	str	r2, [r3, #4]
 8002052:	6de3      	ldr	r3, [r4, #92]	; 0x5c
 8002054:	f423 7380 	bic.w	r3, r3, #256	; 0x100
 8002058:	65e3      	str	r3, [r4, #92]	; 0x5c
 800205a:	6de3      	ldr	r3, [r4, #92]	; 0x5c
 800205c:	04db      	lsls	r3, r3, #19
 800205e:	d403      	bmi.n	8002068 <HAL_ADC_IRQHandler+0x98>
 8002060:	6de3      	ldr	r3, [r4, #92]	; 0x5c
 8002062:	f043 0301 	orr.w	r3, r3, #1
 8002066:	65e3      	str	r3, [r4, #92]	; 0x5c
 8002068:	4620      	mov	r0, r4
 800206a:	f7fe fddb 	bl	8000c24 <HAL_ADC_ConvCpltCallback>
 800206e:	6823      	ldr	r3, [r4, #0]
 8002070:	220c      	movs	r2, #12
 8002072:	601a      	str	r2, [r3, #0]
 8002074:	06a8      	lsls	r0, r5, #26
 8002076:	d501      	bpl.n	800207c <HAL_ADC_IRQHandler+0xac>
 8002078:	06b1      	lsls	r1, r6, #26
 800207a:	d403      	bmi.n	8002084 <HAL_ADC_IRQHandler+0xb4>
 800207c:	066a      	lsls	r2, r5, #25
 800207e:	d53b      	bpl.n	80020f8 <HAL_ADC_IRQHandler+0x128>
 8002080:	0673      	lsls	r3, r6, #25
 8002082:	d539      	bpl.n	80020f8 <HAL_ADC_IRQHandler+0x128>
 8002084:	6de3      	ldr	r3, [r4, #92]	; 0x5c
 8002086:	4a60      	ldr	r2, [pc, #384]	; (8002208 <HAL_ADC_IRQHandler+0x238>)
 8002088:	06d8      	lsls	r0, r3, #27
 800208a:	bf5e      	ittt	pl
 800208c:	6de3      	ldrpl	r3, [r4, #92]	; 0x5c
 800208e:	f443 5300 	orrpl.w	r3, r3, #8192	; 0x2000
 8002092:	65e3      	strpl	r3, [r4, #92]	; 0x5c
 8002094:	6823      	ldr	r3, [r4, #0]
 8002096:	6cd9      	ldr	r1, [r3, #76]	; 0x4c
 8002098:	68d8      	ldr	r0, [r3, #12]
 800209a:	4293      	cmp	r3, r2
 800209c:	f401 71c0 	and.w	r1, r1, #384	; 0x180
 80020a0:	f040 808f 	bne.w	80021c2 <HAL_ADC_IRQHandler+0x1f2>
 80020a4:	22c1      	movs	r2, #193	; 0xc1
 80020a6:	40fa      	lsrs	r2, r7
 80020a8:	07d2      	lsls	r2, r2, #31
 80020aa:	f100 808a 	bmi.w	80021c2 <HAL_ADC_IRQHandler+0x1f2>
 80020ae:	f04f 42a0 	mov.w	r2, #1342177280	; 0x50000000
 80020b2:	68d2      	ldr	r2, [r2, #12]
 80020b4:	b9d1      	cbnz	r1, 80020ec <HAL_ADC_IRQHandler+0x11c>
 80020b6:	0191      	lsls	r1, r2, #6
 80020b8:	d505      	bpl.n	80020c6 <HAL_ADC_IRQHandler+0xf6>
 80020ba:	f402 5100 	and.w	r1, r2, #8192	; 0x2000
 80020be:	f400 6040 	and.w	r0, r0, #3072	; 0xc00
 80020c2:	4301      	orrs	r1, r0
 80020c4:	d112      	bne.n	80020ec <HAL_ADC_IRQHandler+0x11c>
 80020c6:	6819      	ldr	r1, [r3, #0]
 80020c8:	0648      	lsls	r0, r1, #25
 80020ca:	d50f      	bpl.n	80020ec <HAL_ADC_IRQHandler+0x11c>
 80020cc:	0291      	lsls	r1, r2, #10
 80020ce:	d40d      	bmi.n	80020ec <HAL_ADC_IRQHandler+0x11c>
 80020d0:	689a      	ldr	r2, [r3, #8]
 80020d2:	0712      	lsls	r2, r2, #28
 80020d4:	d477      	bmi.n	80021c6 <HAL_ADC_IRQHandler+0x1f6>
 80020d6:	685a      	ldr	r2, [r3, #4]
 80020d8:	f022 0260 	bic.w	r2, r2, #96	; 0x60
 80020dc:	605a      	str	r2, [r3, #4]
 80020de:	6de3      	ldr	r3, [r4, #92]	; 0x5c
 80020e0:	f423 5380 	bic.w	r3, r3, #4096	; 0x1000
 80020e4:	65e3      	str	r3, [r4, #92]	; 0x5c
 80020e6:	6de3      	ldr	r3, [r4, #92]	; 0x5c
 80020e8:	05db      	lsls	r3, r3, #23
 80020ea:	d575      	bpl.n	80021d8 <HAL_ADC_IRQHandler+0x208>
 80020ec:	4620      	mov	r0, r4
 80020ee:	f000 fbcd 	bl	800288c <HAL_ADCEx_InjectedConvCpltCallback>
 80020f2:	6823      	ldr	r3, [r4, #0]
 80020f4:	2260      	movs	r2, #96	; 0x60
 80020f6:	601a      	str	r2, [r3, #0]
 80020f8:	0628      	lsls	r0, r5, #24
 80020fa:	d50b      	bpl.n	8002114 <HAL_ADC_IRQHandler+0x144>
 80020fc:	0631      	lsls	r1, r6, #24
 80020fe:	d509      	bpl.n	8002114 <HAL_ADC_IRQHandler+0x144>
 8002100:	6de3      	ldr	r3, [r4, #92]	; 0x5c
 8002102:	f443 3380 	orr.w	r3, r3, #65536	; 0x10000
 8002106:	65e3      	str	r3, [r4, #92]	; 0x5c
 8002108:	4620      	mov	r0, r4
 800210a:	f7ff ff5e 	bl	8001fca <HAL_ADC_LevelOutOfWindowCallback>
 800210e:	6823      	ldr	r3, [r4, #0]
 8002110:	2280      	movs	r2, #128	; 0x80
 8002112:	601a      	str	r2, [r3, #0]
 8002114:	05ea      	lsls	r2, r5, #23
 8002116:	d50c      	bpl.n	8002132 <HAL_ADC_IRQHandler+0x162>
 8002118:	05f3      	lsls	r3, r6, #23
 800211a:	d50a      	bpl.n	8002132 <HAL_ADC_IRQHandler+0x162>
 800211c:	6de3      	ldr	r3, [r4, #92]	; 0x5c
 800211e:	f443 3300 	orr.w	r3, r3, #131072	; 0x20000
 8002122:	65e3      	str	r3, [r4, #92]	; 0x5c
 8002124:	4620      	mov	r0, r4
 8002126:	f000 fbb3 	bl	8002890 <HAL_ADCEx_LevelOutOfWindow2Callback>
 800212a:	6823      	ldr	r3, [r4, #0]
 800212c:	f44f 7280 	mov.w	r2, #256	; 0x100
 8002130:	601a      	str	r2, [r3, #0]
 8002132:	05a8      	lsls	r0, r5, #22
 8002134:	d50c      	bpl.n	8002150 <HAL_ADC_IRQHandler+0x180>
 8002136:	05b1      	lsls	r1, r6, #22
 8002138:	d50a      	bpl.n	8002150 <HAL_ADC_IRQHandler+0x180>
 800213a:	6de3      	ldr	r3, [r4, #92]	; 0x5c
 800213c:	f443 2380 	orr.w	r3, r3, #262144	; 0x40000
 8002140:	65e3      	str	r3, [r4, #92]	; 0x5c
 8002142:	4620      	mov	r0, r4
 8002144:	f000 fba5 	bl	8002892 <HAL_ADCEx_LevelOutOfWindow3Callback>
 8002148:	6823      	ldr	r3, [r4, #0]
 800214a:	f44f 7200 	mov.w	r2, #512	; 0x200
 800214e:	601a      	str	r2, [r3, #0]
 8002150:	06ea      	lsls	r2, r5, #27
 8002152:	d518      	bpl.n	8002186 <HAL_ADC_IRQHandler+0x1b6>
 8002154:	06f3      	lsls	r3, r6, #27
 8002156:	d516      	bpl.n	8002186 <HAL_ADC_IRQHandler+0x1b6>
 8002158:	6be3      	ldr	r3, [r4, #60]	; 0x3c
 800215a:	b133      	cbz	r3, 800216a <HAL_ADC_IRQHandler+0x19a>
 800215c:	2f00      	cmp	r7, #0
 800215e:	d040      	beq.n	80021e2 <HAL_ADC_IRQHandler+0x212>
 8002160:	4b28      	ldr	r3, [pc, #160]	; (8002204 <HAL_ADC_IRQHandler+0x234>)
 8002162:	689b      	ldr	r3, [r3, #8]
 8002164:	f413 4f60 	tst.w	r3, #57344	; 0xe000
 8002168:	d00a      	beq.n	8002180 <HAL_ADC_IRQHandler+0x1b0>
 800216a:	6de3      	ldr	r3, [r4, #92]	; 0x5c
 800216c:	f443 6380 	orr.w	r3, r3, #1024	; 0x400
 8002170:	65e3      	str	r3, [r4, #92]	; 0x5c
 8002172:	6e23      	ldr	r3, [r4, #96]	; 0x60
 8002174:	f043 0302 	orr.w	r3, r3, #2
 8002178:	6623      	str	r3, [r4, #96]	; 0x60
 800217a:	4620      	mov	r0, r4
 800217c:	f7ff ff26 	bl	8001fcc <HAL_ADC_ErrorCallback>
 8002180:	6823      	ldr	r3, [r4, #0]
 8002182:	2210      	movs	r2, #16
 8002184:	601a      	str	r2, [r3, #0]
 8002186:	0568      	lsls	r0, r5, #21
 8002188:	d53a      	bpl.n	8002200 <HAL_ADC_IRQHandler+0x230>
 800218a:	0571      	lsls	r1, r6, #21
 800218c:	d538      	bpl.n	8002200 <HAL_ADC_IRQHandler+0x230>
 800218e:	6de3      	ldr	r3, [r4, #92]	; 0x5c
 8002190:	f443 4380 	orr.w	r3, r3, #16384	; 0x4000
 8002194:	65e3      	str	r3, [r4, #92]	; 0x5c
 8002196:	6e23      	ldr	r3, [r4, #96]	; 0x60
 8002198:	f043 0308 	orr.w	r3, r3, #8
 800219c:	6623      	str	r3, [r4, #96]	; 0x60
 800219e:	6823      	ldr	r3, [r4, #0]
 80021a0:	f44f 6280 	mov.w	r2, #1024	; 0x400
 80021a4:	601a      	str	r2, [r3, #0]
 80021a6:	4620      	mov	r0, r4
 80021a8:	e8bd 40f8 	ldmia.w	sp!, {r3, r4, r5, r6, r7, lr}
 80021ac:	f000 bb6f 	b.w	800288e <HAL_ADCEx_InjectedQueueOverflowCallback>
 80021b0:	6de3      	ldr	r3, [r4, #92]	; 0x5c
 80021b2:	f043 0310 	orr.w	r3, r3, #16
 80021b6:	65e3      	str	r3, [r4, #92]	; 0x5c
 80021b8:	6e23      	ldr	r3, [r4, #96]	; 0x60
 80021ba:	f043 0301 	orr.w	r3, r3, #1
 80021be:	6623      	str	r3, [r4, #96]	; 0x60
 80021c0:	e752      	b.n	8002068 <HAL_ADC_IRQHandler+0x98>
 80021c2:	68da      	ldr	r2, [r3, #12]
 80021c4:	e776      	b.n	80020b4 <HAL_ADC_IRQHandler+0xe4>
 80021c6:	6de3      	ldr	r3, [r4, #92]	; 0x5c
 80021c8:	f043 0310 	orr.w	r3, r3, #16
 80021cc:	65e3      	str	r3, [r4, #92]	; 0x5c
 80021ce:	6e23      	ldr	r3, [r4, #96]	; 0x60
 80021d0:	f043 0301 	orr.w	r3, r3, #1
 80021d4:	6623      	str	r3, [r4, #96]	; 0x60
 80021d6:	e789      	b.n	80020ec <HAL_ADC_IRQHandler+0x11c>
 80021d8:	6de3      	ldr	r3, [r4, #92]	; 0x5c
 80021da:	f043 0301 	orr.w	r3, r3, #1
 80021de:	65e3      	str	r3, [r4, #92]	; 0x5c
 80021e0:	e784      	b.n	80020ec <HAL_ADC_IRQHandler+0x11c>
 80021e2:	6823      	ldr	r3, [r4, #0]
 80021e4:	68db      	ldr	r3, [r3, #12]
 80021e6:	f013 0f01 	tst.w	r3, #1
 80021ea:	e7bd      	b.n	8002168 <HAL_ADC_IRQHandler+0x198>
 80021ec:	f240 2221 	movw	r2, #545	; 0x221
 80021f0:	40fa      	lsrs	r2, r7
 80021f2:	07d2      	lsls	r2, r2, #31
 80021f4:	f53f af1d 	bmi.w	8002032 <HAL_ADC_IRQHandler+0x62>
 80021f8:	f04f 42a0 	mov.w	r2, #1342177280	; 0x50000000
 80021fc:	68d2      	ldr	r2, [r2, #12]
 80021fe:	e719      	b.n	8002034 <HAL_ADC_IRQHandler+0x64>
 8002200:	bdf8      	pop	{r3, r4, r5, r6, r7, pc}
 8002202:	bf00      	nop
 8002204:	50000300 	.word	0x50000300
 8002208:	50000100 	.word	0x50000100

0800220c <ADC_DMAConvCplt>:
 800220c:	6a83      	ldr	r3, [r0, #40]	; 0x28
 800220e:	6dda      	ldr	r2, [r3, #92]	; 0x5c
 8002210:	f012 0f50 	tst.w	r2, #80	; 0x50
 8002214:	b510      	push	{r4, lr}
 8002216:	6dda      	ldr	r2, [r3, #92]	; 0x5c
 8002218:	d121      	bne.n	800225e <ADC_DMAConvCplt+0x52>
 800221a:	f442 7200 	orr.w	r2, r2, #512	; 0x200
 800221e:	65da      	str	r2, [r3, #92]	; 0x5c
 8002220:	681a      	ldr	r2, [r3, #0]
 8002222:	6811      	ldr	r1, [r2, #0]
 8002224:	0708      	lsls	r0, r1, #28
 8002226:	d516      	bpl.n	8002256 <ADC_DMAConvCplt+0x4a>
 8002228:	68d1      	ldr	r1, [r2, #12]
 800222a:	f411 6f40 	tst.w	r1, #3072	; 0xc00
 800222e:	d10e      	bne.n	800224e <ADC_DMAConvCplt+0x42>
 8002230:	68d2      	ldr	r2, [r2, #12]
 8002232:	f412 5f00 	tst.w	r2, #8192	; 0x2000
 8002236:	d10a      	bne.n	800224e <ADC_DMAConvCplt+0x42>
 8002238:	6dda      	ldr	r2, [r3, #92]	; 0x5c
 800223a:	f422 7280 	bic.w	r2, r2, #256	; 0x100
 800223e:	65da      	str	r2, [r3, #92]	; 0x5c
 8002240:	6dda      	ldr	r2, [r3, #92]	; 0x5c
 8002242:	04d1      	lsls	r1, r2, #19
 8002244:	bf5e      	ittt	pl
 8002246:	6dda      	ldrpl	r2, [r3, #92]	; 0x5c
 8002248:	f042 0201 	orrpl.w	r2, r2, #1
 800224c:	65da      	strpl	r2, [r3, #92]	; 0x5c
 800224e:	4618      	mov	r0, r3
 8002250:	f7fe fce8 	bl	8000c24 <HAL_ADC_ConvCpltCallback>
 8002254:	bd10      	pop	{r4, pc}
 8002256:	68d2      	ldr	r2, [r2, #12]
 8002258:	f012 0f02 	tst.w	r2, #2
 800225c:	e7eb      	b.n	8002236 <ADC_DMAConvCplt+0x2a>
 800225e:	06d2      	lsls	r2, r2, #27
 8002260:	d503      	bpl.n	800226a <ADC_DMAConvCplt+0x5e>
 8002262:	4618      	mov	r0, r3
 8002264:	f7ff feb2 	bl	8001fcc <HAL_ADC_ErrorCallback>
 8002268:	e7f4      	b.n	8002254 <ADC_DMAConvCplt+0x48>
 800226a:	6d5b      	ldr	r3, [r3, #84]	; 0x54
 800226c:	e8bd 4010 	ldmia.w	sp!, {r4, lr}
 8002270:	6b5b      	ldr	r3, [r3, #52]	; 0x34
 8002272:	4718      	bx	r3

08002274 <ADC_DMAError>:
 8002274:	6a80      	ldr	r0, [r0, #40]	; 0x28
 8002276:	b508      	push	{r3, lr}
 8002278:	6dc3      	ldr	r3, [r0, #92]	; 0x5c
 800227a:	f043 0340 	orr.w	r3, r3, #64	; 0x40
 800227e:	65c3      	str	r3, [r0, #92]	; 0x5c
 8002280:	6e03      	ldr	r3, [r0, #96]	; 0x60
 8002282:	f043 0304 	orr.w	r3, r3, #4
 8002286:	6603      	str	r3, [r0, #96]	; 0x60
 8002288:	f7ff fea0 	bl	8001fcc <HAL_ADC_ErrorCallback>
 800228c:	bd08      	pop	{r3, pc}
	...

08002290 <HAL_ADC_ConfigChannel>:
 8002290:	b5f7      	push	{r0, r1, r2, r4, r5, r6, r7, lr}
 8002292:	2300      	movs	r3, #0
 8002294:	9301      	str	r3, [sp, #4]
 8002296:	f890 3058 	ldrb.w	r3, [r0, #88]	; 0x58
 800229a:	2b01      	cmp	r3, #1
 800229c:	4605      	mov	r5, r0
 800229e:	460e      	mov	r6, r1
 80022a0:	f000 81a2 	beq.w	80025e8 <HAL_ADC_ConfigChannel+0x358>
 80022a4:	6804      	ldr	r4, [r0, #0]
 80022a6:	2301      	movs	r3, #1
 80022a8:	f880 3058 	strb.w	r3, [r0, #88]	; 0x58
 80022ac:	4620      	mov	r0, r4
 80022ae:	f7ff fd8b 	bl	8001dc8 <LL_ADC_REG_IsConversionOngoing>
 80022b2:	2800      	cmp	r0, #0
 80022b4:	f040 8192 	bne.w	80025dc <HAL_ADC_ConfigChannel+0x34c>
 80022b8:	684a      	ldr	r2, [r1, #4]
 80022ba:	6833      	ldr	r3, [r6, #0]
 80022bc:	0991      	lsrs	r1, r2, #6
 80022be:	f001 010c 	and.w	r1, r1, #12
 80022c2:	f104 0730 	add.w	r7, r4, #48	; 0x30
 80022c6:	f002 021f 	and.w	r2, r2, #31
 80022ca:	5878      	ldr	r0, [r7, r1]
 80022cc:	f04f 0c1f 	mov.w	ip, #31
 80022d0:	f3c3 6384 	ubfx	r3, r3, #26, #5
 80022d4:	4093      	lsls	r3, r2
 80022d6:	fa0c f202 	lsl.w	r2, ip, r2
 80022da:	ea20 0202 	bic.w	r2, r0, r2
 80022de:	4313      	orrs	r3, r2
 80022e0:	507b      	str	r3, [r7, r1]
 80022e2:	4620      	mov	r0, r4
 80022e4:	f7ff fd70 	bl	8001dc8 <LL_ADC_REG_IsConversionOngoing>
 80022e8:	68a2      	ldr	r2, [r4, #8]
 80022ea:	f002 0208 	and.w	r2, r2, #8
 80022ee:	4302      	orrs	r2, r0
 80022f0:	d13b      	bne.n	800236a <HAL_ADC_ConfigChannel+0xda>
 80022f2:	68b3      	ldr	r3, [r6, #8]
 80022f4:	6831      	ldr	r1, [r6, #0]
 80022f6:	f1b3 4f00 	cmp.w	r3, #2147483648	; 0x80000000
 80022fa:	d179      	bne.n	80023f0 <HAL_ADC_ConfigChannel+0x160>
 80022fc:	4620      	mov	r0, r4
 80022fe:	f7ff fd4f 	bl	8001da0 <LL_ADC_SetChannelSamplingTime>
 8002302:	6963      	ldr	r3, [r4, #20]
 8002304:	f043 4300 	orr.w	r3, r3, #2147483648	; 0x80000000
 8002308:	6163      	str	r3, [r4, #20]
 800230a:	6937      	ldr	r7, [r6, #16]
 800230c:	6971      	ldr	r1, [r6, #20]
 800230e:	68e0      	ldr	r0, [r4, #12]
 8002310:	6832      	ldr	r2, [r6, #0]
 8002312:	2f04      	cmp	r7, #4
 8002314:	f104 0360 	add.w	r3, r4, #96	; 0x60
 8002318:	d072      	beq.n	8002400 <HAL_ADC_ConfigChannel+0x170>
 800231a:	f3c0 00c1 	ubfx	r0, r0, #3, #2
 800231e:	0040      	lsls	r0, r0, #1
 8002320:	f853 c027 	ldr.w	ip, [r3, r7, lsl #2]
 8002324:	4081      	lsls	r1, r0
 8002326:	48b1      	ldr	r0, [pc, #708]	; (80025ec <HAL_ADC_ConfigChannel+0x35c>)
 8002328:	f002 42f8 	and.w	r2, r2, #2080374784	; 0x7c000000
 800232c:	ea0c 0000 	and.w	r0, ip, r0
 8002330:	4310      	orrs	r0, r2
 8002332:	ea41 0200 	orr.w	r2, r1, r0
 8002336:	f042 4200 	orr.w	r2, r2, #2147483648	; 0x80000000
 800233a:	f843 2027 	str.w	r2, [r3, r7, lsl #2]
 800233e:	6931      	ldr	r1, [r6, #16]
 8002340:	69b0      	ldr	r0, [r6, #24]
 8002342:	f853 2021 	ldr.w	r2, [r3, r1, lsl #2]
 8002346:	f022 7280 	bic.w	r2, r2, #16777216	; 0x1000000
 800234a:	4302      	orrs	r2, r0
 800234c:	f843 2021 	str.w	r2, [r3, r1, lsl #2]
 8002350:	7f31      	ldrb	r1, [r6, #28]
 8002352:	6930      	ldr	r0, [r6, #16]
 8002354:	1e4f      	subs	r7, r1, #1
 8002356:	f853 2020 	ldr.w	r2, [r3, r0, lsl #2]
 800235a:	4279      	negs	r1, r7
 800235c:	4179      	adcs	r1, r7
 800235e:	f022 7200 	bic.w	r2, r2, #33554432	; 0x2000000
 8002362:	ea42 6241 	orr.w	r2, r2, r1, lsl #25
 8002366:	f843 2020 	str.w	r2, [r3, r0, lsl #2]
 800236a:	4620      	mov	r0, r4
 800236c:	f7ff fd28 	bl	8001dc0 <LL_ADC_IsEnabled>
 8002370:	2800      	cmp	r0, #0
 8002372:	f040 80a0 	bne.w	80024b6 <HAL_ADC_ConfigChannel+0x226>
 8002376:	68f1      	ldr	r1, [r6, #12]
 8002378:	4a9d      	ldr	r2, [pc, #628]	; (80025f0 <HAL_ADC_ConfigChannel+0x360>)
 800237a:	6833      	ldr	r3, [r6, #0]
 800237c:	4291      	cmp	r1, r2
 800237e:	f3c3 0012 	ubfx	r0, r3, #0, #19
 8002382:	f040 8092 	bne.w	80024aa <HAL_ADC_ConfigChannel+0x21a>
 8002386:	f8d4 20b0 	ldr.w	r2, [r4, #176]	; 0xb0
 800238a:	4302      	orrs	r2, r0
 800238c:	f8c4 20b0 	str.w	r2, [r4, #176]	; 0xb0
 8002390:	2800      	cmp	r0, #0
 8002392:	f000 809a 	beq.w	80024ca <HAL_ADC_ConfigChannel+0x23a>
 8002396:	fa93 f2a3 	rbit	r2, r3
 800239a:	b13a      	cbz	r2, 80023ac <HAL_ADC_ConfigChannel+0x11c>
 800239c:	fab2 f282 	clz	r2, r2
 80023a0:	3201      	adds	r2, #1
 80023a2:	f002 021f 	and.w	r2, r2, #31
 80023a6:	2a09      	cmp	r2, #9
 80023a8:	f200 80ae 	bhi.w	8002508 <HAL_ADC_ConfigChannel+0x278>
 80023ac:	fa93 f2a3 	rbit	r2, r3
 80023b0:	fab2 f282 	clz	r2, r2
 80023b4:	3201      	adds	r2, #1
 80023b6:	0692      	lsls	r2, r2, #26
 80023b8:	f002 42f8 	and.w	r2, r2, #2080374784	; 0x7c000000
 80023bc:	fa93 f7a3 	rbit	r7, r3
 80023c0:	fab7 f787 	clz	r7, r7
 80023c4:	3701      	adds	r7, #1
 80023c6:	f007 071f 	and.w	r7, r7, #31
 80023ca:	2101      	movs	r1, #1
 80023cc:	40b9      	lsls	r1, r7
 80023ce:	4311      	orrs	r1, r2
 80023d0:	2800      	cmp	r0, #0
 80023d2:	f040 8094 	bne.w	80024fe <HAL_ADC_ConfigChannel+0x26e>
 80023d6:	0e9b      	lsrs	r3, r3, #26
 80023d8:	3301      	adds	r3, #1
 80023da:	f003 031f 	and.w	r3, r3, #31
 80023de:	eb03 0343 	add.w	r3, r3, r3, lsl #1
 80023e2:	051b      	lsls	r3, r3, #20
 80023e4:	68b2      	ldr	r2, [r6, #8]
 80023e6:	4319      	orrs	r1, r3
 80023e8:	4620      	mov	r0, r4
 80023ea:	f7ff fcd9 	bl	8001da0 <LL_ADC_SetChannelSamplingTime>
 80023ee:	e062      	b.n	80024b6 <HAL_ADC_ConfigChannel+0x226>
 80023f0:	461a      	mov	r2, r3
 80023f2:	4620      	mov	r0, r4
 80023f4:	f7ff fcd4 	bl	8001da0 <LL_ADC_SetChannelSamplingTime>
 80023f8:	6963      	ldr	r3, [r4, #20]
 80023fa:	f023 4300 	bic.w	r3, r3, #2147483648	; 0x80000000
 80023fe:	e783      	b.n	8002308 <HAL_ADC_ConfigChannel+0x78>
 8002400:	6e21      	ldr	r1, [r4, #96]	; 0x60
 8002402:	6e21      	ldr	r1, [r4, #96]	; 0x60
 8002404:	f3c2 0012 	ubfx	r0, r2, #0, #19
 8002408:	f3c1 6184 	ubfx	r1, r1, #26, #5
 800240c:	2800      	cmp	r0, #0
 800240e:	d138      	bne.n	8002482 <HAL_ADC_ConfigChannel+0x1f2>
 8002410:	f3c2 6284 	ubfx	r2, r2, #26, #5
 8002414:	4291      	cmp	r1, r2
 8002416:	bf02      	ittt	eq
 8002418:	6e22      	ldreq	r2, [r4, #96]	; 0x60
 800241a:	f022 4200 	biceq.w	r2, r2, #2147483648	; 0x80000000
 800241e:	6622      	streq	r2, [r4, #96]	; 0x60
 8002420:	685a      	ldr	r2, [r3, #4]
 8002422:	6832      	ldr	r2, [r6, #0]
 8002424:	6859      	ldr	r1, [r3, #4]
 8002426:	f3c2 0012 	ubfx	r0, r2, #0, #19
 800242a:	f3c1 6184 	ubfx	r1, r1, #26, #5
 800242e:	bb68      	cbnz	r0, 800248c <HAL_ADC_ConfigChannel+0x1fc>
 8002430:	f3c2 6284 	ubfx	r2, r2, #26, #5
 8002434:	4291      	cmp	r1, r2
 8002436:	bf02      	ittt	eq
 8002438:	685a      	ldreq	r2, [r3, #4]
 800243a:	f022 4200 	biceq.w	r2, r2, #2147483648	; 0x80000000
 800243e:	605a      	streq	r2, [r3, #4]
 8002440:	689a      	ldr	r2, [r3, #8]
 8002442:	6832      	ldr	r2, [r6, #0]
 8002444:	6899      	ldr	r1, [r3, #8]
 8002446:	f3c2 0012 	ubfx	r0, r2, #0, #19
 800244a:	f3c1 6184 	ubfx	r1, r1, #26, #5
 800244e:	bb10      	cbnz	r0, 8002496 <HAL_ADC_ConfigChannel+0x206>
 8002450:	f3c2 6284 	ubfx	r2, r2, #26, #5
 8002454:	4291      	cmp	r1, r2
 8002456:	bf02      	ittt	eq
 8002458:	689a      	ldreq	r2, [r3, #8]
 800245a:	f022 4200 	biceq.w	r2, r2, #2147483648	; 0x80000000
 800245e:	609a      	streq	r2, [r3, #8]
 8002460:	68da      	ldr	r2, [r3, #12]
 8002462:	6832      	ldr	r2, [r6, #0]
 8002464:	68d9      	ldr	r1, [r3, #12]
 8002466:	f3c2 0012 	ubfx	r0, r2, #0, #19
 800246a:	f3c1 6184 	ubfx	r1, r1, #26, #5
 800246e:	b9b8      	cbnz	r0, 80024a0 <HAL_ADC_ConfigChannel+0x210>
 8002470:	f3c2 6284 	ubfx	r2, r2, #26, #5
 8002474:	4291      	cmp	r1, r2
 8002476:	bf02      	ittt	eq
 8002478:	68da      	ldreq	r2, [r3, #12]
 800247a:	f022 4200 	biceq.w	r2, r2, #2147483648	; 0x80000000
 800247e:	60da      	streq	r2, [r3, #12]
 8002480:	e773      	b.n	800236a <HAL_ADC_ConfigChannel+0xda>
 8002482:	fa92 f2a2 	rbit	r2, r2
 8002486:	fab2 f282 	clz	r2, r2
 800248a:	e7c3      	b.n	8002414 <HAL_ADC_ConfigChannel+0x184>
 800248c:	fa92 f2a2 	rbit	r2, r2
 8002490:	fab2 f282 	clz	r2, r2
 8002494:	e7ce      	b.n	8002434 <HAL_ADC_ConfigChannel+0x1a4>
 8002496:	fa92 f2a2 	rbit	r2, r2
 800249a:	fab2 f282 	clz	r2, r2
 800249e:	e7d9      	b.n	8002454 <HAL_ADC_ConfigChannel+0x1c4>
 80024a0:	fa92 f2a2 	rbit	r2, r2
 80024a4:	fab2 f282 	clz	r2, r2
 80024a8:	e7e4      	b.n	8002474 <HAL_ADC_ConfigChannel+0x1e4>
 80024aa:	f8d4 30b0 	ldr.w	r3, [r4, #176]	; 0xb0
 80024ae:	ea23 0300 	bic.w	r3, r3, r0
 80024b2:	f8c4 30b0 	str.w	r3, [r4, #176]	; 0xb0
 80024b6:	6833      	ldr	r3, [r6, #0]
 80024b8:	4a4e      	ldr	r2, [pc, #312]	; (80025f4 <HAL_ADC_ConfigChannel+0x364>)
 80024ba:	4213      	tst	r3, r2
 80024bc:	d143      	bne.n	8002546 <HAL_ADC_ConfigChannel+0x2b6>
 80024be:	2000      	movs	r0, #0
 80024c0:	2300      	movs	r3, #0
 80024c2:	f885 3058 	strb.w	r3, [r5, #88]	; 0x58
 80024c6:	b003      	add	sp, #12
 80024c8:	bdf0      	pop	{r4, r5, r6, r7, pc}
 80024ca:	0e9a      	lsrs	r2, r3, #26
 80024cc:	3201      	adds	r2, #1
 80024ce:	f002 071f 	and.w	r7, r2, #31
 80024d2:	2101      	movs	r1, #1
 80024d4:	0692      	lsls	r2, r2, #26
 80024d6:	2f09      	cmp	r7, #9
 80024d8:	f002 42f8 	and.w	r2, r2, #2080374784	; 0x7c000000
 80024dc:	fa01 f107 	lsl.w	r1, r1, r7
 80024e0:	f67f af75 	bls.w	80023ce <HAL_ADC_ConfigChannel+0x13e>
 80024e4:	4311      	orrs	r1, r2
 80024e6:	bb08      	cbnz	r0, 800252c <HAL_ADC_ConfigChannel+0x29c>
 80024e8:	0e9b      	lsrs	r3, r3, #26
 80024ea:	3301      	adds	r3, #1
 80024ec:	f003 031f 	and.w	r3, r3, #31
 80024f0:	eb03 0343 	add.w	r3, r3, r3, lsl #1
 80024f4:	3b1e      	subs	r3, #30
 80024f6:	051b      	lsls	r3, r3, #20
 80024f8:	f043 7300 	orr.w	r3, r3, #33554432	; 0x2000000
 80024fc:	e772      	b.n	80023e4 <HAL_ADC_ConfigChannel+0x154>
 80024fe:	fa93 f3a3 	rbit	r3, r3
 8002502:	fab3 f383 	clz	r3, r3
 8002506:	e767      	b.n	80023d8 <HAL_ADC_ConfigChannel+0x148>
 8002508:	fa93 f2a3 	rbit	r2, r3
 800250c:	fab2 f282 	clz	r2, r2
 8002510:	3201      	adds	r2, #1
 8002512:	0692      	lsls	r2, r2, #26
 8002514:	f002 42f8 	and.w	r2, r2, #2080374784	; 0x7c000000
 8002518:	fa93 f7a3 	rbit	r7, r3
 800251c:	fab7 f787 	clz	r7, r7
 8002520:	3701      	adds	r7, #1
 8002522:	f007 071f 	and.w	r7, r7, #31
 8002526:	2101      	movs	r1, #1
 8002528:	40b9      	lsls	r1, r7
 800252a:	e7db      	b.n	80024e4 <HAL_ADC_ConfigChannel+0x254>
 800252c:	fa93 f2a3 	rbit	r2, r3
 8002530:	fab2 f282 	clz	r2, r2
 8002534:	3201      	adds	r2, #1
 8002536:	f002 021f 	and.w	r2, r2, #31
 800253a:	2303      	movs	r3, #3
 800253c:	f06f 001d 	mvn.w	r0, #29
 8002540:	fb13 0302 	smlabb	r3, r3, r2, r0
 8002544:	e7d7      	b.n	80024f6 <HAL_ADC_ConfigChannel+0x266>
 8002546:	4a2c      	ldr	r2, [pc, #176]	; (80025f8 <HAL_ADC_ConfigChannel+0x368>)
 8002548:	492c      	ldr	r1, [pc, #176]	; (80025fc <HAL_ADC_ConfigChannel+0x36c>)
 800254a:	6890      	ldr	r0, [r2, #8]
 800254c:	428b      	cmp	r3, r1
 800254e:	f000 72e0 	and.w	r2, r0, #29360128	; 0x1c00000
 8002552:	d002      	beq.n	800255a <HAL_ADC_ConfigChannel+0x2ca>
 8002554:	492a      	ldr	r1, [pc, #168]	; (8002600 <HAL_ADC_ConfigChannel+0x370>)
 8002556:	428b      	cmp	r3, r1
 8002558:	d11b      	bne.n	8002592 <HAL_ADC_ConfigChannel+0x302>
 800255a:	0201      	lsls	r1, r0, #8
 800255c:	d419      	bmi.n	8002592 <HAL_ADC_ConfigChannel+0x302>
 800255e:	f1b4 4fa0 	cmp.w	r4, #1342177280	; 0x50000000
 8002562:	d1ac      	bne.n	80024be <HAL_ADC_ConfigChannel+0x22e>
 8002564:	4924      	ldr	r1, [pc, #144]	; (80025f8 <HAL_ADC_ConfigChannel+0x368>)
 8002566:	688b      	ldr	r3, [r1, #8]
 8002568:	f023 73e0 	bic.w	r3, r3, #29360128	; 0x1c00000
 800256c:	4313      	orrs	r3, r2
 800256e:	f443 0300 	orr.w	r3, r3, #8388608	; 0x800000
 8002572:	608b      	str	r3, [r1, #8]
 8002574:	4b23      	ldr	r3, [pc, #140]	; (8002604 <HAL_ADC_ConfigChannel+0x374>)
 8002576:	681a      	ldr	r2, [r3, #0]
 8002578:	4b23      	ldr	r3, [pc, #140]	; (8002608 <HAL_ADC_ConfigChannel+0x378>)
 800257a:	fbb2 f2f3 	udiv	r2, r2, r3
 800257e:	230c      	movs	r3, #12
 8002580:	fb02 3303 	mla	r3, r2, r3, r3
 8002584:	9301      	str	r3, [sp, #4]
 8002586:	9b01      	ldr	r3, [sp, #4]
 8002588:	2b00      	cmp	r3, #0
 800258a:	d098      	beq.n	80024be <HAL_ADC_ConfigChannel+0x22e>
 800258c:	9b01      	ldr	r3, [sp, #4]
 800258e:	3b01      	subs	r3, #1
 8002590:	e7f8      	b.n	8002584 <HAL_ADC_ConfigChannel+0x2f4>
 8002592:	491e      	ldr	r1, [pc, #120]	; (800260c <HAL_ADC_ConfigChannel+0x37c>)
 8002594:	428b      	cmp	r3, r1
 8002596:	d10e      	bne.n	80025b6 <HAL_ADC_ConfigChannel+0x326>
 8002598:	f010 7080 	ands.w	r0, r0, #16777216	; 0x1000000
 800259c:	d18f      	bne.n	80024be <HAL_ADC_ConfigChannel+0x22e>
 800259e:	4b1c      	ldr	r3, [pc, #112]	; (8002610 <HAL_ADC_ConfigChannel+0x380>)
 80025a0:	429c      	cmp	r4, r3
 80025a2:	d08c      	beq.n	80024be <HAL_ADC_ConfigChannel+0x22e>
 80025a4:	4914      	ldr	r1, [pc, #80]	; (80025f8 <HAL_ADC_ConfigChannel+0x368>)
 80025a6:	688b      	ldr	r3, [r1, #8]
 80025a8:	f023 73e0 	bic.w	r3, r3, #29360128	; 0x1c00000
 80025ac:	4313      	orrs	r3, r2
 80025ae:	f043 7380 	orr.w	r3, r3, #16777216	; 0x1000000
 80025b2:	608b      	str	r3, [r1, #8]
 80025b4:	e784      	b.n	80024c0 <HAL_ADC_ConfigChannel+0x230>
 80025b6:	4917      	ldr	r1, [pc, #92]	; (8002614 <HAL_ADC_ConfigChannel+0x384>)
 80025b8:	428b      	cmp	r3, r1
 80025ba:	d180      	bne.n	80024be <HAL_ADC_ConfigChannel+0x22e>
 80025bc:	f410 0080 	ands.w	r0, r0, #4194304	; 0x400000
 80025c0:	f47f af7d 	bne.w	80024be <HAL_ADC_ConfigChannel+0x22e>
 80025c4:	4b12      	ldr	r3, [pc, #72]	; (8002610 <HAL_ADC_ConfigChannel+0x380>)
 80025c6:	429c      	cmp	r4, r3
 80025c8:	f43f af79 	beq.w	80024be <HAL_ADC_ConfigChannel+0x22e>
 80025cc:	490a      	ldr	r1, [pc, #40]	; (80025f8 <HAL_ADC_ConfigChannel+0x368>)
 80025ce:	688b      	ldr	r3, [r1, #8]
 80025d0:	f023 73e0 	bic.w	r3, r3, #29360128	; 0x1c00000
 80025d4:	4313      	orrs	r3, r2
 80025d6:	f443 0380 	orr.w	r3, r3, #4194304	; 0x400000
 80025da:	e7ea      	b.n	80025b2 <HAL_ADC_ConfigChannel+0x322>
 80025dc:	6dea      	ldr	r2, [r5, #92]	; 0x5c
 80025de:	f042 0220 	orr.w	r2, r2, #32
 80025e2:	65ea      	str	r2, [r5, #92]	; 0x5c
 80025e4:	4618      	mov	r0, r3
 80025e6:	e76b      	b.n	80024c0 <HAL_ADC_ConfigChannel+0x230>
 80025e8:	2002      	movs	r0, #2
 80025ea:	e76c      	b.n	80024c6 <HAL_ADC_ConfigChannel+0x236>
 80025ec:	03fff000 	.word	0x03fff000
 80025f0:	407f0000 	.word	0x407f0000
 80025f4:	80080000 	.word	0x80080000
 80025f8:	50000300 	.word	0x50000300
 80025fc:	c3210000 	.word	0xc3210000
 8002600:	90c00010 	.word	0x90c00010
 8002604:	20000004 	.word	0x20000004
 8002608:	00030d40 	.word	0x00030d40
 800260c:	c7520000 	.word	0xc7520000
 8002610:	50000100 	.word	0x50000100
 8002614:	cb840000 	.word	0xcb840000

08002618 <ADC_Enable>:
 8002618:	6802      	ldr	r2, [r0, #0]
 800261a:	b570      	push	{r4, r5, r6, lr}
 800261c:	4604      	mov	r4, r0
 800261e:	4610      	mov	r0, r2
 8002620:	f7ff fbce 	bl	8001dc0 <LL_ADC_IsEnabled>
 8002624:	b108      	cbz	r0, 800262a <ADC_Enable+0x12>
 8002626:	2000      	movs	r0, #0
 8002628:	bd70      	pop	{r4, r5, r6, pc}
 800262a:	6891      	ldr	r1, [r2, #8]
 800262c:	4b16      	ldr	r3, [pc, #88]	; (8002688 <ADC_Enable+0x70>)
 800262e:	4219      	tst	r1, r3
 8002630:	d009      	beq.n	8002646 <ADC_Enable+0x2e>
 8002632:	6de3      	ldr	r3, [r4, #92]	; 0x5c
 8002634:	f043 0310 	orr.w	r3, r3, #16
 8002638:	65e3      	str	r3, [r4, #92]	; 0x5c
 800263a:	6e23      	ldr	r3, [r4, #96]	; 0x60
 800263c:	f043 0301 	orr.w	r3, r3, #1
 8002640:	6623      	str	r3, [r4, #96]	; 0x60
 8002642:	2001      	movs	r0, #1
 8002644:	e7f0      	b.n	8002628 <ADC_Enable+0x10>
 8002646:	6893      	ldr	r3, [r2, #8]
 8002648:	4d10      	ldr	r5, [pc, #64]	; (800268c <ADC_Enable+0x74>)
 800264a:	402b      	ands	r3, r5
 800264c:	f043 0301 	orr.w	r3, r3, #1
 8002650:	6093      	str	r3, [r2, #8]
 8002652:	f7ff fb8b 	bl	8001d6c <HAL_GetTick>
 8002656:	4606      	mov	r6, r0
 8002658:	6822      	ldr	r2, [r4, #0]
 800265a:	6813      	ldr	r3, [r2, #0]
 800265c:	07db      	lsls	r3, r3, #31
 800265e:	d4e2      	bmi.n	8002626 <ADC_Enable+0xe>
 8002660:	4610      	mov	r0, r2
 8002662:	f7ff fbad 	bl	8001dc0 <LL_ADC_IsEnabled>
 8002666:	b920      	cbnz	r0, 8002672 <ADC_Enable+0x5a>
 8002668:	6893      	ldr	r3, [r2, #8]
 800266a:	402b      	ands	r3, r5
 800266c:	f043 0301 	orr.w	r3, r3, #1
 8002670:	6093      	str	r3, [r2, #8]
 8002672:	f7ff fb7b 	bl	8001d6c <HAL_GetTick>
 8002676:	1b80      	subs	r0, r0, r6
 8002678:	2802      	cmp	r0, #2
 800267a:	d9ed      	bls.n	8002658 <ADC_Enable+0x40>
 800267c:	6823      	ldr	r3, [r4, #0]
 800267e:	681b      	ldr	r3, [r3, #0]
 8002680:	07da      	lsls	r2, r3, #31
 8002682:	d4e9      	bmi.n	8002658 <ADC_Enable+0x40>
 8002684:	e7d5      	b.n	8002632 <ADC_Enable+0x1a>
 8002686:	bf00      	nop
 8002688:	8000003f 	.word	0x8000003f
 800268c:	7fffffc0 	.word	0x7fffffc0

08002690 <HAL_ADC_Start_DMA>:
 8002690:	4b34      	ldr	r3, [pc, #208]	; (8002764 <HAL_ADC_Start_DMA+0xd4>)
 8002692:	e92d 41f0 	stmdb	sp!, {r4, r5, r6, r7, r8, lr}
 8002696:	4604      	mov	r4, r0
 8002698:	6800      	ldr	r0, [r0, #0]
 800269a:	689b      	ldr	r3, [r3, #8]
 800269c:	f7ff fb94 	bl	8001dc8 <LL_ADC_REG_IsConversionOngoing>
 80026a0:	460e      	mov	r6, r1
 80026a2:	4617      	mov	r7, r2
 80026a4:	4605      	mov	r5, r0
 80026a6:	2800      	cmp	r0, #0
 80026a8:	d155      	bne.n	8002756 <HAL_ADC_Start_DMA+0xc6>
 80026aa:	f894 2058 	ldrb.w	r2, [r4, #88]	; 0x58
 80026ae:	2a01      	cmp	r2, #1
 80026b0:	d051      	beq.n	8002756 <HAL_ADC_Start_DMA+0xc6>
 80026b2:	f003 081f 	and.w	r8, r3, #31
 80026b6:	f240 2321 	movw	r3, #545	; 0x221
 80026ba:	2001      	movs	r0, #1
 80026bc:	fa23 f308 	lsr.w	r3, r3, r8
 80026c0:	4003      	ands	r3, r0
 80026c2:	f884 0058 	strb.w	r0, [r4, #88]	; 0x58
 80026c6:	d043      	beq.n	8002750 <HAL_ADC_Start_DMA+0xc0>
 80026c8:	4620      	mov	r0, r4
 80026ca:	f7ff ffa5 	bl	8002618 <ADC_Enable>
 80026ce:	2800      	cmp	r0, #0
 80026d0:	d13b      	bne.n	800274a <HAL_ADC_Start_DMA+0xba>
 80026d2:	6de0      	ldr	r0, [r4, #92]	; 0x5c
 80026d4:	6821      	ldr	r1, [r4, #0]
 80026d6:	4b24      	ldr	r3, [pc, #144]	; (8002768 <HAL_ADC_Start_DMA+0xd8>)
 80026d8:	f420 6070 	bic.w	r0, r0, #3840	; 0xf00
 80026dc:	f020 0001 	bic.w	r0, r0, #1
 80026e0:	f440 7080 	orr.w	r0, r0, #256	; 0x100
 80026e4:	4299      	cmp	r1, r3
 80026e6:	65e0      	str	r0, [r4, #92]	; 0x5c
 80026e8:	d037      	beq.n	800275a <HAL_ADC_Start_DMA+0xca>
 80026ea:	6de3      	ldr	r3, [r4, #92]	; 0x5c
 80026ec:	f423 1380 	bic.w	r3, r3, #1048576	; 0x100000
 80026f0:	65e3      	str	r3, [r4, #92]	; 0x5c
 80026f2:	6de3      	ldr	r3, [r4, #92]	; 0x5c
 80026f4:	6d60      	ldr	r0, [r4, #84]	; 0x54
 80026f6:	f413 5380 	ands.w	r3, r3, #4096	; 0x1000
 80026fa:	bf1c      	itt	ne
 80026fc:	6e23      	ldrne	r3, [r4, #96]	; 0x60
 80026fe:	f023 0306 	bicne.w	r3, r3, #6
 8002702:	6623      	str	r3, [r4, #96]	; 0x60
 8002704:	4b19      	ldr	r3, [pc, #100]	; (800276c <HAL_ADC_Start_DMA+0xdc>)
 8002706:	62c3      	str	r3, [r0, #44]	; 0x2c
 8002708:	4b19      	ldr	r3, [pc, #100]	; (8002770 <HAL_ADC_Start_DMA+0xe0>)
 800270a:	6303      	str	r3, [r0, #48]	; 0x30
 800270c:	4b19      	ldr	r3, [pc, #100]	; (8002774 <HAL_ADC_Start_DMA+0xe4>)
 800270e:	6343      	str	r3, [r0, #52]	; 0x34
 8002710:	231c      	movs	r3, #28
 8002712:	600b      	str	r3, [r1, #0]
 8002714:	2300      	movs	r3, #0
 8002716:	f884 3058 	strb.w	r3, [r4, #88]	; 0x58
 800271a:	684b      	ldr	r3, [r1, #4]
 800271c:	f043 0310 	orr.w	r3, r3, #16
 8002720:	604b      	str	r3, [r1, #4]
 8002722:	68cb      	ldr	r3, [r1, #12]
 8002724:	f043 0301 	orr.w	r3, r3, #1
 8002728:	60cb      	str	r3, [r1, #12]
 800272a:	4632      	mov	r2, r6
 800272c:	463b      	mov	r3, r7
 800272e:	3140      	adds	r1, #64	; 0x40
 8002730:	f000 fb4e 	bl	8002dd0 <HAL_DMA_Start_IT>
 8002734:	6822      	ldr	r2, [r4, #0]
 8002736:	6893      	ldr	r3, [r2, #8]
 8002738:	f023 4300 	bic.w	r3, r3, #2147483648	; 0x80000000
 800273c:	f023 033f 	bic.w	r3, r3, #63	; 0x3f
 8002740:	f043 0304 	orr.w	r3, r3, #4
 8002744:	6093      	str	r3, [r2, #8]
 8002746:	e8bd 81f0 	ldmia.w	sp!, {r4, r5, r6, r7, r8, pc}
 800274a:	f884 5058 	strb.w	r5, [r4, #88]	; 0x58
 800274e:	e7fa      	b.n	8002746 <HAL_ADC_Start_DMA+0xb6>
 8002750:	f884 3058 	strb.w	r3, [r4, #88]	; 0x58
 8002754:	e7f7      	b.n	8002746 <HAL_ADC_Start_DMA+0xb6>
 8002756:	2002      	movs	r0, #2
 8002758:	e7f5      	b.n	8002746 <HAL_ADC_Start_DMA+0xb6>
 800275a:	f1b8 0f00 	cmp.w	r8, #0
 800275e:	d0c4      	beq.n	80026ea <HAL_ADC_Start_DMA+0x5a>
 8002760:	e7c7      	b.n	80026f2 <HAL_ADC_Start_DMA+0x62>
 8002762:	bf00      	nop
 8002764:	50000300 	.word	0x50000300
 8002768:	50000100 	.word	0x50000100
 800276c:	0800220d 	.word	0x0800220d
 8002770:	08001fc1 	.word	0x08001fc1
 8002774:	08002275 	.word	0x08002275

08002778 <ADC_Disable>:
 8002778:	6802      	ldr	r2, [r0, #0]
 800277a:	b538      	push	{r3, r4, r5, lr}
 800277c:	4604      	mov	r4, r0
 800277e:	4610      	mov	r0, r2
 8002780:	6893      	ldr	r3, [r2, #8]
 8002782:	f7ff fb1d 	bl	8001dc0 <LL_ADC_IsEnabled>
 8002786:	b908      	cbnz	r0, 800278c <ADC_Disable+0x14>
 8002788:	2000      	movs	r0, #0
 800278a:	bd38      	pop	{r3, r4, r5, pc}
 800278c:	0799      	lsls	r1, r3, #30
 800278e:	d4fb      	bmi.n	8002788 <ADC_Disable+0x10>
 8002790:	6893      	ldr	r3, [r2, #8]
 8002792:	f003 030d 	and.w	r3, r3, #13
 8002796:	2b01      	cmp	r3, #1
 8002798:	d119      	bne.n	80027ce <ADC_Disable+0x56>
 800279a:	6893      	ldr	r3, [r2, #8]
 800279c:	f023 4300 	bic.w	r3, r3, #2147483648	; 0x80000000
 80027a0:	f023 033f 	bic.w	r3, r3, #63	; 0x3f
 80027a4:	f043 0302 	orr.w	r3, r3, #2
 80027a8:	6093      	str	r3, [r2, #8]
 80027aa:	2303      	movs	r3, #3
 80027ac:	6013      	str	r3, [r2, #0]
 80027ae:	f7ff fadd 	bl	8001d6c <HAL_GetTick>
 80027b2:	4605      	mov	r5, r0
 80027b4:	6823      	ldr	r3, [r4, #0]
 80027b6:	689b      	ldr	r3, [r3, #8]
 80027b8:	07db      	lsls	r3, r3, #31
 80027ba:	d5e5      	bpl.n	8002788 <ADC_Disable+0x10>
 80027bc:	f7ff fad6 	bl	8001d6c <HAL_GetTick>
 80027c0:	1b40      	subs	r0, r0, r5
 80027c2:	2802      	cmp	r0, #2
 80027c4:	d9f6      	bls.n	80027b4 <ADC_Disable+0x3c>
 80027c6:	6823      	ldr	r3, [r4, #0]
 80027c8:	689b      	ldr	r3, [r3, #8]
 80027ca:	07da      	lsls	r2, r3, #31
 80027cc:	d5f2      	bpl.n	80027b4 <ADC_Disable+0x3c>
 80027ce:	6de3      	ldr	r3, [r4, #92]	; 0x5c
 80027d0:	f043 0310 	orr.w	r3, r3, #16
 80027d4:	65e3      	str	r3, [r4, #92]	; 0x5c
 80027d6:	6e23      	ldr	r3, [r4, #96]	; 0x60
 80027d8:	f043 0301 	orr.w	r3, r3, #1
 80027dc:	6623      	str	r3, [r4, #96]	; 0x60
 80027de:	2001      	movs	r0, #1
 80027e0:	e7d3      	b.n	800278a <ADC_Disable+0x12>

080027e2 <LL_ADC_IsEnabled>:
 80027e2:	6880      	ldr	r0, [r0, #8]
 80027e4:	f000 0001 	and.w	r0, r0, #1
 80027e8:	4770      	bx	lr

080027ea <LL_ADC_REG_IsConversionOngoing>:
 80027ea:	6880      	ldr	r0, [r0, #8]
 80027ec:	f3c0 0080 	ubfx	r0, r0, #2, #1
 80027f0:	4770      	bx	lr
	...

080027f4 <HAL_ADCEx_Calibration_Start>:
 80027f4:	b537      	push	{r0, r1, r2, r4, r5, lr}
 80027f6:	2300      	movs	r3, #0
 80027f8:	9301      	str	r3, [sp, #4]
 80027fa:	f890 3058 	ldrb.w	r3, [r0, #88]	; 0x58
 80027fe:	2b01      	cmp	r3, #1
 8002800:	4604      	mov	r4, r0
 8002802:	460d      	mov	r5, r1
 8002804:	d03d      	beq.n	8002882 <HAL_ADCEx_Calibration_Start+0x8e>
 8002806:	2301      	movs	r3, #1
 8002808:	f880 3058 	strb.w	r3, [r0, #88]	; 0x58
 800280c:	f7ff ffb4 	bl	8002778 <ADC_Disable>
 8002810:	6de3      	ldr	r3, [r4, #92]	; 0x5c
 8002812:	2800      	cmp	r0, #0
 8002814:	d132      	bne.n	800287c <HAL_ADCEx_Calibration_Start+0x88>
 8002816:	f423 5388 	bic.w	r3, r3, #4352	; 0x1100
 800281a:	f023 0302 	bic.w	r3, r3, #2
 800281e:	6822      	ldr	r2, [r4, #0]
 8002820:	4919      	ldr	r1, [pc, #100]	; (8002888 <HAL_ADCEx_Calibration_Start+0x94>)
 8002822:	f043 0302 	orr.w	r3, r3, #2
 8002826:	65e3      	str	r3, [r4, #92]	; 0x5c
 8002828:	6893      	ldr	r3, [r2, #8]
 800282a:	f023 4340 	bic.w	r3, r3, #3221225472	; 0xc0000000
 800282e:	f023 033f 	bic.w	r3, r3, #63	; 0x3f
 8002832:	f005 4580 	and.w	r5, r5, #1073741824	; 0x40000000
 8002836:	432b      	orrs	r3, r5
 8002838:	f043 4300 	orr.w	r3, r3, #2147483648	; 0x80000000
 800283c:	6093      	str	r3, [r2, #8]
 800283e:	6893      	ldr	r3, [r2, #8]
 8002840:	2b00      	cmp	r3, #0
 8002842:	da11      	bge.n	8002868 <HAL_ADCEx_Calibration_Start+0x74>
 8002844:	9b01      	ldr	r3, [sp, #4]
 8002846:	3301      	adds	r3, #1
 8002848:	9301      	str	r3, [sp, #4]
 800284a:	9b01      	ldr	r3, [sp, #4]
 800284c:	428b      	cmp	r3, r1
 800284e:	d9f6      	bls.n	800283e <HAL_ADCEx_Calibration_Start+0x4a>
 8002850:	6de3      	ldr	r3, [r4, #92]	; 0x5c
 8002852:	f023 0312 	bic.w	r3, r3, #18
 8002856:	f043 0310 	orr.w	r3, r3, #16
 800285a:	65e3      	str	r3, [r4, #92]	; 0x5c
 800285c:	2300      	movs	r3, #0
 800285e:	f884 3058 	strb.w	r3, [r4, #88]	; 0x58
 8002862:	2001      	movs	r0, #1
 8002864:	b003      	add	sp, #12
 8002866:	bd30      	pop	{r4, r5, pc}
 8002868:	6de3      	ldr	r3, [r4, #92]	; 0x5c
 800286a:	f023 0303 	bic.w	r3, r3, #3
 800286e:	f043 0301 	orr.w	r3, r3, #1
 8002872:	65e3      	str	r3, [r4, #92]	; 0x5c
 8002874:	2300      	movs	r3, #0
 8002876:	f884 3058 	strb.w	r3, [r4, #88]	; 0x58
 800287a:	e7f3      	b.n	8002864 <HAL_ADCEx_Calibration_Start+0x70>
 800287c:	f043 0310 	orr.w	r3, r3, #16
 8002880:	e7f7      	b.n	8002872 <HAL_ADCEx_Calibration_Start+0x7e>
 8002882:	2002      	movs	r0, #2
 8002884:	e7ee      	b.n	8002864 <HAL_ADCEx_Calibration_Start+0x70>
 8002886:	bf00      	nop
 8002888:	0004de01 	.word	0x0004de01

0800288c <HAL_ADCEx_InjectedConvCpltCallback>:
 800288c:	4770      	bx	lr

0800288e <HAL_ADCEx_InjectedQueueOverflowCallback>:
 800288e:	4770      	bx	lr

08002890 <HAL_ADCEx_LevelOutOfWindow2Callback>:
 8002890:	4770      	bx	lr

08002892 <HAL_ADCEx_LevelOutOfWindow3Callback>:
 8002892:	4770      	bx	lr

08002894 <HAL_ADCEx_EndOfSamplingCallback>:
 8002894:	4770      	bx	lr
	...

08002898 <HAL_ADCEx_MultiModeConfigChannel>:
 8002898:	b570      	push	{r4, r5, r6, lr}
 800289a:	f890 3058 	ldrb.w	r3, [r0, #88]	; 0x58
 800289e:	680d      	ldr	r5, [r1, #0]
 80028a0:	2b01      	cmp	r3, #1
 80028a2:	b09c      	sub	sp, #112	; 0x70
 80028a4:	4602      	mov	r2, r0
 80028a6:	d056      	beq.n	8002956 <HAL_ADCEx_MultiModeConfigChannel+0xbe>
 80028a8:	2301      	movs	r3, #1
 80028aa:	f880 3058 	strb.w	r3, [r0, #88]	; 0x58
 80028ae:	6816      	ldr	r6, [r2, #0]
 80028b0:	2000      	movs	r0, #0
 80028b2:	f1b6 4fa0 	cmp.w	r6, #1342177280	; 0x50000000
 80028b6:	9018      	str	r0, [sp, #96]	; 0x60
 80028b8:	9019      	str	r0, [sp, #100]	; 0x64
 80028ba:	d10d      	bne.n	80028d8 <HAL_ADCEx_MultiModeConfigChannel+0x40>
 80028bc:	4827      	ldr	r0, [pc, #156]	; (800295c <HAL_ADCEx_MultiModeConfigChannel+0xc4>)
 80028be:	f7ff ff94 	bl	80027ea <LL_ADC_REG_IsConversionOngoing>
 80028c2:	4604      	mov	r4, r0
 80028c4:	4630      	mov	r0, r6
 80028c6:	f7ff ff90 	bl	80027ea <LL_ADC_REG_IsConversionOngoing>
 80028ca:	4320      	orrs	r0, r4
 80028cc:	d00d      	beq.n	80028ea <HAL_ADCEx_MultiModeConfigChannel+0x52>
 80028ce:	6dd1      	ldr	r1, [r2, #92]	; 0x5c
 80028d0:	f041 0120 	orr.w	r1, r1, #32
 80028d4:	65d1      	str	r1, [r2, #92]	; 0x5c
 80028d6:	e02b      	b.n	8002930 <HAL_ADCEx_MultiModeConfigChannel+0x98>
 80028d8:	6dd1      	ldr	r1, [r2, #92]	; 0x5c
 80028da:	f882 0058 	strb.w	r0, [r2, #88]	; 0x58
 80028de:	f041 0120 	orr.w	r1, r1, #32
 80028e2:	65d1      	str	r1, [r2, #92]	; 0x5c
 80028e4:	4618      	mov	r0, r3
 80028e6:	b01c      	add	sp, #112	; 0x70
 80028e8:	bd70      	pop	{r4, r5, r6, pc}
 80028ea:	4c1d      	ldr	r4, [pc, #116]	; (8002960 <HAL_ADCEx_MultiModeConfigChannel+0xc8>)
 80028ec:	68a3      	ldr	r3, [r4, #8]
 80028ee:	f423 4360 	bic.w	r3, r3, #57344	; 0xe000
 80028f2:	b1fd      	cbz	r5, 8002934 <HAL_ADCEx_MultiModeConfigChannel+0x9c>
 80028f4:	6848      	ldr	r0, [r1, #4]
 80028f6:	4303      	orrs	r3, r0
 80028f8:	f892 0038 	ldrb.w	r0, [r2, #56]	; 0x38
 80028fc:	ea43 3340 	orr.w	r3, r3, r0, lsl #13
 8002900:	60a3      	str	r3, [r4, #8]
 8002902:	4630      	mov	r0, r6
 8002904:	f7ff ff6d 	bl	80027e2 <LL_ADC_IsEnabled>
 8002908:	4603      	mov	r3, r0
 800290a:	4814      	ldr	r0, [pc, #80]	; (800295c <HAL_ADCEx_MultiModeConfigChannel+0xc4>)
 800290c:	f7ff ff69 	bl	80027e2 <LL_ADC_IsEnabled>
 8002910:	4303      	orrs	r3, r0
 8002912:	d004      	beq.n	800291e <HAL_ADCEx_MultiModeConfigChannel+0x86>
 8002914:	2000      	movs	r0, #0
 8002916:	2300      	movs	r3, #0
 8002918:	f882 3058 	strb.w	r3, [r2, #88]	; 0x58
 800291c:	e7e3      	b.n	80028e6 <HAL_ADCEx_MultiModeConfigChannel+0x4e>
 800291e:	6889      	ldr	r1, [r1, #8]
 8002920:	68a0      	ldr	r0, [r4, #8]
 8002922:	430d      	orrs	r5, r1
 8002924:	f420 6171 	bic.w	r1, r0, #3856	; 0xf10
 8002928:	f021 010f 	bic.w	r1, r1, #15
 800292c:	430d      	orrs	r5, r1
 800292e:	60a5      	str	r5, [r4, #8]
 8002930:	4618      	mov	r0, r3
 8002932:	e7f0      	b.n	8002916 <HAL_ADCEx_MultiModeConfigChannel+0x7e>
 8002934:	60a3      	str	r3, [r4, #8]
 8002936:	4630      	mov	r0, r6
 8002938:	f7ff ff53 	bl	80027e2 <LL_ADC_IsEnabled>
 800293c:	4603      	mov	r3, r0
 800293e:	4807      	ldr	r0, [pc, #28]	; (800295c <HAL_ADCEx_MultiModeConfigChannel+0xc4>)
 8002940:	f7ff ff4f 	bl	80027e2 <LL_ADC_IsEnabled>
 8002944:	4303      	orrs	r3, r0
 8002946:	d1e5      	bne.n	8002914 <HAL_ADCEx_MultiModeConfigChannel+0x7c>
 8002948:	68a1      	ldr	r1, [r4, #8]
 800294a:	f421 6171 	bic.w	r1, r1, #3856	; 0xf10
 800294e:	f021 010f 	bic.w	r1, r1, #15
 8002952:	60a1      	str	r1, [r4, #8]
 8002954:	e7ec      	b.n	8002930 <HAL_ADCEx_MultiModeConfigChannel+0x98>
 8002956:	2002      	movs	r0, #2
 8002958:	e7c5      	b.n	80028e6 <HAL_ADCEx_MultiModeConfigChannel+0x4e>
 800295a:	bf00      	nop
 800295c:	50000100 	.word	0x50000100
 8002960:	50000300 	.word	0x50000300

08002964 <HAL_NVIC_SetPriorityGrouping>:
 8002964:	4907      	ldr	r1, [pc, #28]	; (8002984 <HAL_NVIC_SetPriorityGrouping+0x20>)
 8002966:	68ca      	ldr	r2, [r1, #12]
 8002968:	f422 62e0 	bic.w	r2, r2, #1792	; 0x700
 800296c:	0203      	lsls	r3, r0, #8
 800296e:	0412      	lsls	r2, r2, #16
 8002970:	f403 63e0 	and.w	r3, r3, #1792	; 0x700
 8002974:	0c12      	lsrs	r2, r2, #16
 8002976:	4313      	orrs	r3, r2
 8002978:	f043 63bf 	orr.w	r3, r3, #100139008	; 0x5f80000
 800297c:	f443 3300 	orr.w	r3, r3, #131072	; 0x20000
 8002980:	60cb      	str	r3, [r1, #12]
 8002982:	4770      	bx	lr
 8002984:	e000ed00 	.word	0xe000ed00

08002988 <HAL_NVIC_SetPriority>:
 8002988:	4b16      	ldr	r3, [pc, #88]	; (80029e4 <HAL_NVIC_SetPriority+0x5c>)
 800298a:	b530      	push	{r4, r5, lr}
 800298c:	68dc      	ldr	r4, [r3, #12]
 800298e:	f3c4 2402 	ubfx	r4, r4, #8, #3
 8002992:	f1c4 0307 	rsb	r3, r4, #7
 8002996:	1d25      	adds	r5, r4, #4
 8002998:	2b04      	cmp	r3, #4
 800299a:	bf28      	it	cs
 800299c:	2304      	movcs	r3, #4
 800299e:	2d06      	cmp	r5, #6
 80029a0:	f04f 35ff 	mov.w	r5, #4294967295
 80029a4:	bf8c      	ite	hi
 80029a6:	3c03      	subhi	r4, #3
 80029a8:	2400      	movls	r4, #0
 80029aa:	fa05 f303 	lsl.w	r3, r5, r3
 80029ae:	ea21 0303 	bic.w	r3, r1, r3
 80029b2:	40a5      	lsls	r5, r4
 80029b4:	ea22 0205 	bic.w	r2, r2, r5
 80029b8:	40a3      	lsls	r3, r4
 80029ba:	2800      	cmp	r0, #0
 80029bc:	ea43 0302 	orr.w	r3, r3, r2
 80029c0:	bfac      	ite	ge
 80029c2:	f100 4060 	addge.w	r0, r0, #3758096384	; 0xe0000000
 80029c6:	4a08      	ldrlt	r2, [pc, #32]	; (80029e8 <HAL_NVIC_SetPriority+0x60>)
 80029c8:	ea4f 1303 	mov.w	r3, r3, lsl #4
 80029cc:	bfb8      	it	lt
 80029ce:	f000 000f 	andlt.w	r0, r0, #15
 80029d2:	b2db      	uxtb	r3, r3
 80029d4:	bfaa      	itet	ge
 80029d6:	f500 4061 	addge.w	r0, r0, #57600	; 0xe100
 80029da:	5413      	strblt	r3, [r2, r0]
 80029dc:	f880 3300 	strbge.w	r3, [r0, #768]	; 0x300
 80029e0:	bd30      	pop	{r4, r5, pc}
 80029e2:	bf00      	nop
 80029e4:	e000ed00 	.word	0xe000ed00
 80029e8:	e000ed14 	.word	0xe000ed14

080029ec <HAL_NVIC_EnableIRQ>:
 80029ec:	2800      	cmp	r0, #0
 80029ee:	db07      	blt.n	8002a00 <HAL_NVIC_EnableIRQ+0x14>
 80029f0:	4a04      	ldr	r2, [pc, #16]	; (8002a04 <HAL_NVIC_EnableIRQ+0x18>)
 80029f2:	0941      	lsrs	r1, r0, #5
 80029f4:	2301      	movs	r3, #1
 80029f6:	f000 001f 	and.w	r0, r0, #31
 80029fa:	4083      	lsls	r3, r0
 80029fc:	f842 3021 	str.w	r3, [r2, r1, lsl #2]
 8002a00:	4770      	bx	lr
 8002a02:	bf00      	nop
 8002a04:	e000e100 	.word	0xe000e100

08002a08 <HAL_SYSTICK_Config>:
 8002a08:	3801      	subs	r0, #1
 8002a0a:	f1b0 7f80 	cmp.w	r0, #16777216	; 0x1000000
 8002a0e:	d20b      	bcs.n	8002a28 <HAL_SYSTICK_Config+0x20>
 8002a10:	f04f 23e0 	mov.w	r3, #3758153728	; 0xe000e000
 8002a14:	4a05      	ldr	r2, [pc, #20]	; (8002a2c <HAL_SYSTICK_Config+0x24>)
 8002a16:	6158      	str	r0, [r3, #20]
 8002a18:	21f0      	movs	r1, #240	; 0xf0
 8002a1a:	f882 1023 	strb.w	r1, [r2, #35]	; 0x23
 8002a1e:	2000      	movs	r0, #0
 8002a20:	2207      	movs	r2, #7
 8002a22:	6198      	str	r0, [r3, #24]
 8002a24:	611a      	str	r2, [r3, #16]
 8002a26:	4770      	bx	lr
 8002a28:	2001      	movs	r0, #1
 8002a2a:	4770      	bx	lr
 8002a2c:	e000ed00 	.word	0xe000ed00

08002a30 <HAL_DAC_Init>:
 8002a30:	b510      	push	{r4, lr}
 8002a32:	4604      	mov	r4, r0
 8002a34:	b168      	cbz	r0, 8002a52 <HAL_DAC_Init+0x22>
 8002a36:	7903      	ldrb	r3, [r0, #4]
 8002a38:	f003 02ff 	and.w	r2, r3, #255	; 0xff
 8002a3c:	b913      	cbnz	r3, 8002a44 <HAL_DAC_Init+0x14>
 8002a3e:	7142      	strb	r2, [r0, #5]
 8002a40:	f7fe fb9c 	bl	800117c <HAL_DAC_MspInit>
 8002a44:	2302      	movs	r3, #2
 8002a46:	7123      	strb	r3, [r4, #4]
 8002a48:	2000      	movs	r0, #0
 8002a4a:	2301      	movs	r3, #1
 8002a4c:	6120      	str	r0, [r4, #16]
 8002a4e:	7123      	strb	r3, [r4, #4]
 8002a50:	bd10      	pop	{r4, pc}
 8002a52:	2001      	movs	r0, #1
 8002a54:	e7fc      	b.n	8002a50 <HAL_DAC_Init+0x20>

08002a56 <HAL_DAC_Start>:
 8002a56:	b5f8      	push	{r3, r4, r5, r6, r7, lr}
 8002a58:	7943      	ldrb	r3, [r0, #5]
 8002a5a:	2b01      	cmp	r3, #1
 8002a5c:	4605      	mov	r5, r0
 8002a5e:	460f      	mov	r7, r1
 8002a60:	f04f 0402 	mov.w	r4, #2
 8002a64:	d01b      	beq.n	8002a9e <HAL_DAC_Start+0x48>
 8002a66:	682a      	ldr	r2, [r5, #0]
 8002a68:	712c      	strb	r4, [r5, #4]
 8002a6a:	2001      	movs	r0, #1
 8002a6c:	7168      	strb	r0, [r5, #5]
 8002a6e:	6811      	ldr	r1, [r2, #0]
 8002a70:	f007 0610 	and.w	r6, r7, #16
 8002a74:	fa00 f306 	lsl.w	r3, r0, r6
 8002a78:	430b      	orrs	r3, r1
 8002a7a:	6013      	str	r3, [r2, #0]
 8002a7c:	f7ff f97c 	bl	8001d78 <HAL_Delay>
 8002a80:	682b      	ldr	r3, [r5, #0]
 8002a82:	681a      	ldr	r2, [r3, #0]
 8002a84:	b96f      	cbnz	r7, 8002aa2 <HAL_DAC_Start+0x4c>
 8002a86:	f002 023e 	and.w	r2, r2, #62	; 0x3e
 8002a8a:	42a2      	cmp	r2, r4
 8002a8c:	d103      	bne.n	8002a96 <HAL_DAC_Start+0x40>
 8002a8e:	685a      	ldr	r2, [r3, #4]
 8002a90:	f042 0201 	orr.w	r2, r2, #1
 8002a94:	605a      	str	r2, [r3, #4]
 8002a96:	2301      	movs	r3, #1
 8002a98:	2400      	movs	r4, #0
 8002a9a:	712b      	strb	r3, [r5, #4]
 8002a9c:	716c      	strb	r4, [r5, #5]
 8002a9e:	4620      	mov	r0, r4
 8002aa0:	bdf8      	pop	{r3, r4, r5, r6, r7, pc}
 8002aa2:	f402 1278 	and.w	r2, r2, #4063232	; 0x3e0000
 8002aa6:	fa04 f606 	lsl.w	r6, r4, r6
 8002aaa:	42b2      	cmp	r2, r6
 8002aac:	d1f3      	bne.n	8002a96 <HAL_DAC_Start+0x40>
 8002aae:	685a      	ldr	r2, [r3, #4]
 8002ab0:	f042 0202 	orr.w	r2, r2, #2
 8002ab4:	e7ee      	b.n	8002a94 <HAL_DAC_Start+0x3e>
	...

08002ab8 <HAL_DAC_ConfigChannel>:
 8002ab8:	e92d 41f0 	stmdb	sp!, {r4, r5, r6, r7, r8, lr}
 8002abc:	4615      	mov	r5, r2
 8002abe:	7942      	ldrb	r2, [r0, #5]
 8002ac0:	688b      	ldr	r3, [r1, #8]
 8002ac2:	2a01      	cmp	r2, #1
 8002ac4:	4604      	mov	r4, r0
 8002ac6:	460e      	mov	r6, r1
 8002ac8:	f04f 0002 	mov.w	r0, #2
 8002acc:	d01f      	beq.n	8002b0e <HAL_DAC_ConfigChannel+0x56>
 8002ace:	2201      	movs	r2, #1
 8002ad0:	2b04      	cmp	r3, #4
 8002ad2:	7162      	strb	r2, [r4, #5]
 8002ad4:	7120      	strb	r0, [r4, #4]
 8002ad6:	d13c      	bne.n	8002b52 <HAL_DAC_ConfigChannel+0x9a>
 8002ad8:	f7ff f948 	bl	8001d6c <HAL_GetTick>
 8002adc:	4607      	mov	r7, r0
 8002ade:	b1c5      	cbz	r5, 8002b12 <HAL_DAC_ConfigChannel+0x5a>
 8002ae0:	6823      	ldr	r3, [r4, #0]
 8002ae2:	6b5b      	ldr	r3, [r3, #52]	; 0x34
 8002ae4:	2b00      	cmp	r3, #0
 8002ae6:	f2c0 80ab 	blt.w	8002c40 <HAL_DAC_ConfigChannel+0x188>
 8002aea:	2001      	movs	r0, #1
 8002aec:	f7ff f944 	bl	8001d78 <HAL_Delay>
 8002af0:	6823      	ldr	r3, [r4, #0]
 8002af2:	6a72      	ldr	r2, [r6, #36]	; 0x24
 8002af4:	645a      	str	r2, [r3, #68]	; 0x44
 8002af6:	e016      	b.n	8002b26 <HAL_DAC_ConfigChannel+0x6e>
 8002af8:	f7ff f938 	bl	8001d6c <HAL_GetTick>
 8002afc:	1bc0      	subs	r0, r0, r7
 8002afe:	2801      	cmp	r0, #1
 8002b00:	d907      	bls.n	8002b12 <HAL_DAC_ConfigChannel+0x5a>
 8002b02:	6923      	ldr	r3, [r4, #16]
 8002b04:	2003      	movs	r0, #3
 8002b06:	f043 0308 	orr.w	r3, r3, #8
 8002b0a:	6123      	str	r3, [r4, #16]
 8002b0c:	7120      	strb	r0, [r4, #4]
 8002b0e:	e8bd 81f0 	ldmia.w	sp!, {r4, r5, r6, r7, r8, pc}
 8002b12:	6823      	ldr	r3, [r4, #0]
 8002b14:	6b5b      	ldr	r3, [r3, #52]	; 0x34
 8002b16:	041b      	lsls	r3, r3, #16
 8002b18:	d4ee      	bmi.n	8002af8 <HAL_DAC_ConfigChannel+0x40>
 8002b1a:	2001      	movs	r0, #1
 8002b1c:	f7ff f92c 	bl	8001d78 <HAL_Delay>
 8002b20:	6823      	ldr	r3, [r4, #0]
 8002b22:	6a72      	ldr	r2, [r6, #36]	; 0x24
 8002b24:	641a      	str	r2, [r3, #64]	; 0x40
 8002b26:	6822      	ldr	r2, [r4, #0]
 8002b28:	f005 0110 	and.w	r1, r5, #16
 8002b2c:	6c93      	ldr	r3, [r2, #72]	; 0x48
 8002b2e:	f240 30ff 	movw	r0, #1023	; 0x3ff
 8002b32:	4088      	lsls	r0, r1
 8002b34:	ea23 0300 	bic.w	r3, r3, r0
 8002b38:	6ab0      	ldr	r0, [r6, #40]	; 0x28
 8002b3a:	4088      	lsls	r0, r1
 8002b3c:	4303      	orrs	r3, r0
 8002b3e:	6493      	str	r3, [r2, #72]	; 0x48
 8002b40:	6cd3      	ldr	r3, [r2, #76]	; 0x4c
 8002b42:	20ff      	movs	r0, #255	; 0xff
 8002b44:	4088      	lsls	r0, r1
 8002b46:	ea23 0300 	bic.w	r3, r3, r0
 8002b4a:	6af0      	ldr	r0, [r6, #44]	; 0x2c
 8002b4c:	4088      	lsls	r0, r1
 8002b4e:	4303      	orrs	r3, r0
 8002b50:	64d3      	str	r3, [r2, #76]	; 0x4c
 8002b52:	69f3      	ldr	r3, [r6, #28]
 8002b54:	6822      	ldr	r2, [r4, #0]
 8002b56:	2b01      	cmp	r3, #1
 8002b58:	f005 0510 	and.w	r5, r5, #16
 8002b5c:	d108      	bne.n	8002b70 <HAL_DAC_ConfigChannel+0xb8>
 8002b5e:	6b91      	ldr	r1, [r2, #56]	; 0x38
 8002b60:	231f      	movs	r3, #31
 8002b62:	40ab      	lsls	r3, r5
 8002b64:	ea21 0103 	bic.w	r1, r1, r3
 8002b68:	6a33      	ldr	r3, [r6, #32]
 8002b6a:	40ab      	lsls	r3, r5
 8002b6c:	430b      	orrs	r3, r1
 8002b6e:	6393      	str	r3, [r2, #56]	; 0x38
 8002b70:	6bd3      	ldr	r3, [r2, #60]	; 0x3c
 8002b72:	e9d6 7205 	ldrd	r7, r2, [r6, #20]
 8002b76:	2107      	movs	r1, #7
 8002b78:	40a9      	lsls	r1, r5
 8002b7a:	2a01      	cmp	r2, #1
 8002b7c:	ea6f 0101 	mvn.w	r1, r1
 8002b80:	d065      	beq.n	8002c4e <HAL_DAC_ConfigChannel+0x196>
 8002b82:	2a02      	cmp	r2, #2
 8002b84:	d065      	beq.n	8002c52 <HAL_DAC_ConfigChannel+0x19a>
 8002b86:	fab7 f287 	clz	r2, r7
 8002b8a:	0952      	lsrs	r2, r2, #5
 8002b8c:	f44f 7000 	mov.w	r0, #512	; 0x200
 8002b90:	40a8      	lsls	r0, r5
 8002b92:	ea23 0800 	bic.w	r8, r3, r0
 8002b96:	f44f 7380 	mov.w	r3, #256	; 0x100
 8002b9a:	ea08 0801 	and.w	r8, r8, r1
 8002b9e:	40ab      	lsls	r3, r5
 8002ba0:	ea28 0803 	bic.w	r8, r8, r3
 8002ba4:	7933      	ldrb	r3, [r6, #4]
 8002ba6:	1e59      	subs	r1, r3, #1
 8002ba8:	424b      	negs	r3, r1
 8002baa:	414b      	adcs	r3, r1
 8002bac:	68b1      	ldr	r1, [r6, #8]
 8002bae:	430f      	orrs	r7, r1
 8002bb0:	ea47 2703 	orr.w	r7, r7, r3, lsl #8
 8002bb4:	7973      	ldrb	r3, [r6, #5]
 8002bb6:	1e58      	subs	r0, r3, #1
 8002bb8:	4243      	negs	r3, r0
 8002bba:	4143      	adcs	r3, r0
 8002bbc:	ea47 2743 	orr.w	r7, r7, r3, lsl #9
 8002bc0:	6833      	ldr	r3, [r6, #0]
 8002bc2:	2b02      	cmp	r3, #2
 8002bc4:	ea47 0702 	orr.w	r7, r7, r2
 8002bc8:	f428 4840 	bic.w	r8, r8, #49152	; 0xc000
 8002bcc:	d149      	bne.n	8002c62 <HAL_DAC_ConfigChannel+0x1aa>
 8002bce:	f001 f8d7 	bl	8003d80 <HAL_RCC_GetHCLKFreq>
 8002bd2:	4b25      	ldr	r3, [pc, #148]	; (8002c68 <HAL_DAC_ConfigChannel+0x1b0>)
 8002bd4:	4298      	cmp	r0, r3
 8002bd6:	d93e      	bls.n	8002c56 <HAL_DAC_ConfigChannel+0x19e>
 8002bd8:	f448 4800 	orr.w	r8, r8, #32768	; 0x8000
 8002bdc:	6822      	ldr	r2, [r4, #0]
 8002bde:	40af      	lsls	r7, r5
 8002be0:	ea47 0708 	orr.w	r7, r7, r8
 8002be4:	63d7      	str	r7, [r2, #60]	; 0x3c
 8002be6:	6813      	ldr	r3, [r2, #0]
 8002be8:	f44f 4180 	mov.w	r1, #16384	; 0x4000
 8002bec:	40a9      	lsls	r1, r5
 8002bee:	ea23 0301 	bic.w	r3, r3, r1
 8002bf2:	6013      	str	r3, [r2, #0]
 8002bf4:	6810      	ldr	r0, [r2, #0]
 8002bf6:	f640 73fe 	movw	r3, #4094	; 0xffe
 8002bfa:	40ab      	lsls	r3, r5
 8002bfc:	ea20 0003 	bic.w	r0, r0, r3
 8002c00:	68f3      	ldr	r3, [r6, #12]
 8002c02:	fa03 f105 	lsl.w	r1, r3, r5
 8002c06:	4301      	orrs	r1, r0
 8002c08:	6011      	str	r1, [r2, #0]
 8002c0a:	6811      	ldr	r1, [r2, #0]
 8002c0c:	20c0      	movs	r0, #192	; 0xc0
 8002c0e:	40a8      	lsls	r0, r5
 8002c10:	ea21 0100 	bic.w	r1, r1, r0
 8002c14:	6011      	str	r1, [r2, #0]
 8002c16:	f3c3 0183 	ubfx	r1, r3, #2, #4
 8002c1a:	6933      	ldr	r3, [r6, #16]
 8002c1c:	6e10      	ldr	r0, [r2, #96]	; 0x60
 8002c1e:	019b      	lsls	r3, r3, #6
 8002c20:	f403 6370 	and.w	r3, r3, #3840	; 0xf00
 8002c24:	430b      	orrs	r3, r1
 8002c26:	f640 710f 	movw	r1, #3855	; 0xf0f
 8002c2a:	40a9      	lsls	r1, r5
 8002c2c:	ea20 0101 	bic.w	r1, r0, r1
 8002c30:	40ab      	lsls	r3, r5
 8002c32:	430b      	orrs	r3, r1
 8002c34:	6613      	str	r3, [r2, #96]	; 0x60
 8002c36:	2000      	movs	r0, #0
 8002c38:	2301      	movs	r3, #1
 8002c3a:	7123      	strb	r3, [r4, #4]
 8002c3c:	7160      	strb	r0, [r4, #5]
 8002c3e:	e766      	b.n	8002b0e <HAL_DAC_ConfigChannel+0x56>
 8002c40:	f7ff f894 	bl	8001d6c <HAL_GetTick>
 8002c44:	1bc0      	subs	r0, r0, r7
 8002c46:	2801      	cmp	r0, #1
 8002c48:	f67f af4a 	bls.w	8002ae0 <HAL_DAC_ConfigChannel+0x28>
 8002c4c:	e759      	b.n	8002b02 <HAL_DAC_ConfigChannel+0x4a>
 8002c4e:	2200      	movs	r2, #0
 8002c50:	e79c      	b.n	8002b8c <HAL_DAC_ConfigChannel+0xd4>
 8002c52:	2201      	movs	r2, #1
 8002c54:	e79a      	b.n	8002b8c <HAL_DAC_ConfigChannel+0xd4>
 8002c56:	4b05      	ldr	r3, [pc, #20]	; (8002c6c <HAL_DAC_ConfigChannel+0x1b4>)
 8002c58:	4298      	cmp	r0, r3
 8002c5a:	d9bf      	bls.n	8002bdc <HAL_DAC_ConfigChannel+0x124>
 8002c5c:	f448 4880 	orr.w	r8, r8, #16384	; 0x4000
 8002c60:	e7bc      	b.n	8002bdc <HAL_DAC_ConfigChannel+0x124>
 8002c62:	ea48 0803 	orr.w	r8, r8, r3
 8002c66:	e7b9      	b.n	8002bdc <HAL_DAC_ConfigChannel+0x124>
 8002c68:	09896800 	.word	0x09896800
 8002c6c:	04c4b400 	.word	0x04c4b400

08002c70 <DMA_SetConfig>:
 8002c70:	b570      	push	{r4, r5, r6, lr}
 8002c72:	e9d0 4513 	ldrd	r4, r5, [r0, #76]	; 0x4c
 8002c76:	6065      	str	r5, [r4, #4]
 8002c78:	6d44      	ldr	r4, [r0, #84]	; 0x54
 8002c7a:	b114      	cbz	r4, 8002c82 <DMA_SetConfig+0x12>
 8002c7c:	e9d0 4516 	ldrd	r4, r5, [r0, #88]	; 0x58
 8002c80:	6065      	str	r5, [r4, #4]
 8002c82:	e9d0 5410 	ldrd	r5, r4, [r0, #64]	; 0x40
 8002c86:	f004 061f 	and.w	r6, r4, #31
 8002c8a:	2401      	movs	r4, #1
 8002c8c:	40b4      	lsls	r4, r6
 8002c8e:	606c      	str	r4, [r5, #4]
 8002c90:	6804      	ldr	r4, [r0, #0]
 8002c92:	6063      	str	r3, [r4, #4]
 8002c94:	6883      	ldr	r3, [r0, #8]
 8002c96:	2b10      	cmp	r3, #16
 8002c98:	bf0b      	itete	eq
 8002c9a:	60a2      	streq	r2, [r4, #8]
 8002c9c:	60a1      	strne	r1, [r4, #8]
 8002c9e:	60e1      	streq	r1, [r4, #12]
 8002ca0:	60e2      	strne	r2, [r4, #12]
 8002ca2:	bd70      	pop	{r4, r5, r6, pc}

08002ca4 <DMA_CalcDMAMUXChannelBaseAndMask>:
 8002ca4:	6803      	ldr	r3, [r0, #0]
 8002ca6:	490d      	ldr	r1, [pc, #52]	; (8002cdc <DMA_CalcDMAMUXChannelBaseAndMask+0x38>)
 8002ca8:	4a0d      	ldr	r2, [pc, #52]	; (8002ce0 <DMA_CalcDMAMUXChannelBaseAndMask+0x3c>)
 8002caa:	b510      	push	{r4, lr}
 8002cac:	4c0d      	ldr	r4, [pc, #52]	; (8002ce4 <DMA_CalcDMAMUXChannelBaseAndMask+0x40>)
 8002cae:	42a3      	cmp	r3, r4
 8002cb0:	bf88      	it	hi
 8002cb2:	460a      	movhi	r2, r1
 8002cb4:	6c41      	ldr	r1, [r0, #68]	; 0x44
 8002cb6:	f021 0103 	bic.w	r1, r1, #3
 8002cba:	440a      	add	r2, r1
 8002cbc:	6482      	str	r2, [r0, #72]	; 0x48
 8002cbe:	b2db      	uxtb	r3, r3
 8002cc0:	4a09      	ldr	r2, [pc, #36]	; (8002ce8 <DMA_CalcDMAMUXChannelBaseAndMask+0x44>)
 8002cc2:	64c2      	str	r2, [r0, #76]	; 0x4c
 8002cc4:	3b08      	subs	r3, #8
 8002cc6:	2214      	movs	r2, #20
 8002cc8:	fbb3 f3f2 	udiv	r3, r3, r2
 8002ccc:	2201      	movs	r2, #1
 8002cce:	f003 031f 	and.w	r3, r3, #31
 8002cd2:	fa02 f303 	lsl.w	r3, r2, r3
 8002cd6:	6503      	str	r3, [r0, #80]	; 0x50
 8002cd8:	bd10      	pop	{r4, pc}
 8002cda:	bf00      	nop
 8002cdc:	40020820 	.word	0x40020820
 8002ce0:	40020800 	.word	0x40020800
 8002ce4:	40020407 	.word	0x40020407
 8002ce8:	40020880 	.word	0x40020880

08002cec <HAL_DMA_Init>:
 8002cec:	b538      	push	{r3, r4, r5, lr}
 8002cee:	2800      	cmp	r0, #0
 8002cf0:	d05b      	beq.n	8002daa <HAL_DMA_Init+0xbe>
 8002cf2:	6802      	ldr	r2, [r0, #0]
 8002cf4:	4b2e      	ldr	r3, [pc, #184]	; (8002db0 <HAL_DMA_Init+0xc4>)
 8002cf6:	429a      	cmp	r2, r3
 8002cf8:	f04f 0114 	mov.w	r1, #20
 8002cfc:	d849      	bhi.n	8002d92 <HAL_DMA_Init+0xa6>
 8002cfe:	4b2d      	ldr	r3, [pc, #180]	; (8002db4 <HAL_DMA_Init+0xc8>)
 8002d00:	4413      	add	r3, r2
 8002d02:	fbb3 f3f1 	udiv	r3, r3, r1
 8002d06:	492c      	ldr	r1, [pc, #176]	; (8002db8 <HAL_DMA_Init+0xcc>)
 8002d08:	009b      	lsls	r3, r3, #2
 8002d0a:	e9c0 1310 	strd	r1, r3, [r0, #64]	; 0x40
 8002d0e:	2302      	movs	r3, #2
 8002d10:	f880 3025 	strb.w	r3, [r0, #37]	; 0x25
 8002d14:	e9d0 4302 	ldrd	r4, r3, [r0, #8]
 8002d18:	6905      	ldr	r5, [r0, #16]
 8002d1a:	6811      	ldr	r1, [r2, #0]
 8002d1c:	4323      	orrs	r3, r4
 8002d1e:	432b      	orrs	r3, r5
 8002d20:	6945      	ldr	r5, [r0, #20]
 8002d22:	432b      	orrs	r3, r5
 8002d24:	6985      	ldr	r5, [r0, #24]
 8002d26:	432b      	orrs	r3, r5
 8002d28:	69c5      	ldr	r5, [r0, #28]
 8002d2a:	432b      	orrs	r3, r5
 8002d2c:	6a05      	ldr	r5, [r0, #32]
 8002d2e:	f421 41ff 	bic.w	r1, r1, #32640	; 0x7f80
 8002d32:	f021 0170 	bic.w	r1, r1, #112	; 0x70
 8002d36:	432b      	orrs	r3, r5
 8002d38:	430b      	orrs	r3, r1
 8002d3a:	6013      	str	r3, [r2, #0]
 8002d3c:	f7ff ffb2 	bl	8002ca4 <DMA_CalcDMAMUXChannelBaseAndMask>
 8002d40:	f5b4 4f80 	cmp.w	r4, #16384	; 0x4000
 8002d44:	bf04      	itt	eq
 8002d46:	2300      	moveq	r3, #0
 8002d48:	6043      	streq	r3, [r0, #4]
 8002d4a:	6842      	ldr	r2, [r0, #4]
 8002d4c:	6c81      	ldr	r1, [r0, #72]	; 0x48
 8002d4e:	b2d3      	uxtb	r3, r2
 8002d50:	600b      	str	r3, [r1, #0]
 8002d52:	e9d0 1413 	ldrd	r1, r4, [r0, #76]	; 0x4c
 8002d56:	3a01      	subs	r2, #1
 8002d58:	2a03      	cmp	r2, #3
 8002d5a:	604c      	str	r4, [r1, #4]
 8002d5c:	d820      	bhi.n	8002da0 <HAL_DMA_Init+0xb4>
 8002d5e:	4a17      	ldr	r2, [pc, #92]	; (8002dbc <HAL_DMA_Init+0xd0>)
 8002d60:	4917      	ldr	r1, [pc, #92]	; (8002dc0 <HAL_DMA_Init+0xd4>)
 8002d62:	6581      	str	r1, [r0, #88]	; 0x58
 8002d64:	441a      	add	r2, r3
 8002d66:	3b01      	subs	r3, #1
 8002d68:	0092      	lsls	r2, r2, #2
 8002d6a:	2101      	movs	r1, #1
 8002d6c:	f003 031f 	and.w	r3, r3, #31
 8002d70:	fa01 f303 	lsl.w	r3, r1, r3
 8002d74:	2100      	movs	r1, #0
 8002d76:	6542      	str	r2, [r0, #84]	; 0x54
 8002d78:	65c3      	str	r3, [r0, #92]	; 0x5c
 8002d7a:	6011      	str	r1, [r2, #0]
 8002d7c:	4a11      	ldr	r2, [pc, #68]	; (8002dc4 <HAL_DMA_Init+0xd8>)
 8002d7e:	6453      	str	r3, [r2, #68]	; 0x44
 8002d80:	2300      	movs	r3, #0
 8002d82:	2201      	movs	r2, #1
 8002d84:	63c3      	str	r3, [r0, #60]	; 0x3c
 8002d86:	f880 3024 	strb.w	r3, [r0, #36]	; 0x24
 8002d8a:	f880 2025 	strb.w	r2, [r0, #37]	; 0x25
 8002d8e:	4618      	mov	r0, r3
 8002d90:	bd38      	pop	{r3, r4, r5, pc}
 8002d92:	4b0d      	ldr	r3, [pc, #52]	; (8002dc8 <HAL_DMA_Init+0xdc>)
 8002d94:	4413      	add	r3, r2
 8002d96:	fbb3 f3f1 	udiv	r3, r3, r1
 8002d9a:	490c      	ldr	r1, [pc, #48]	; (8002dcc <HAL_DMA_Init+0xe0>)
 8002d9c:	009b      	lsls	r3, r3, #2
 8002d9e:	e7b4      	b.n	8002d0a <HAL_DMA_Init+0x1e>
 8002da0:	2300      	movs	r3, #0
 8002da2:	e9c0 3315 	strd	r3, r3, [r0, #84]	; 0x54
 8002da6:	65c3      	str	r3, [r0, #92]	; 0x5c
 8002da8:	e7ea      	b.n	8002d80 <HAL_DMA_Init+0x94>
 8002daa:	2001      	movs	r0, #1
 8002dac:	e7f0      	b.n	8002d90 <HAL_DMA_Init+0xa4>
 8002dae:	bf00      	nop
 8002db0:	40020407 	.word	0x40020407
 8002db4:	bffdfff8 	.word	0xbffdfff8
 8002db8:	40020000 	.word	0x40020000
 8002dbc:	1000823f 	.word	0x1000823f
 8002dc0:	40020940 	.word	0x40020940
 8002dc4:	40020900 	.word	0x40020900
 8002dc8:	bffdfbf8 	.word	0xbffdfbf8
 8002dcc:	40020400 	.word	0x40020400

08002dd0 <HAL_DMA_Start_IT>:
 8002dd0:	b570      	push	{r4, r5, r6, lr}
 8002dd2:	f890 5024 	ldrb.w	r5, [r0, #36]	; 0x24
 8002dd6:	2d01      	cmp	r5, #1
 8002dd8:	4604      	mov	r4, r0
 8002dda:	d038      	beq.n	8002e4e <HAL_DMA_Start_IT+0x7e>
 8002ddc:	2501      	movs	r5, #1
 8002dde:	f880 5024 	strb.w	r5, [r0, #36]	; 0x24
 8002de2:	f890 5025 	ldrb.w	r5, [r0, #37]	; 0x25
 8002de6:	2d01      	cmp	r5, #1
 8002de8:	f04f 0600 	mov.w	r6, #0
 8002dec:	f04f 0502 	mov.w	r5, #2
 8002df0:	d12b      	bne.n	8002e4a <HAL_DMA_Start_IT+0x7a>
 8002df2:	f880 5025 	strb.w	r5, [r0, #37]	; 0x25
 8002df6:	6805      	ldr	r5, [r0, #0]
 8002df8:	63c6      	str	r6, [r0, #60]	; 0x3c
 8002dfa:	682e      	ldr	r6, [r5, #0]
 8002dfc:	f026 0601 	bic.w	r6, r6, #1
 8002e00:	602e      	str	r6, [r5, #0]
 8002e02:	f7ff ff35 	bl	8002c70 <DMA_SetConfig>
 8002e06:	6b03      	ldr	r3, [r0, #48]	; 0x30
 8002e08:	b1bb      	cbz	r3, 8002e3a <HAL_DMA_Start_IT+0x6a>
 8002e0a:	682b      	ldr	r3, [r5, #0]
 8002e0c:	f043 030e 	orr.w	r3, r3, #14
 8002e10:	602b      	str	r3, [r5, #0]
 8002e12:	6ca3      	ldr	r3, [r4, #72]	; 0x48
 8002e14:	681a      	ldr	r2, [r3, #0]
 8002e16:	03d2      	lsls	r2, r2, #15
 8002e18:	bf42      	ittt	mi
 8002e1a:	681a      	ldrmi	r2, [r3, #0]
 8002e1c:	f442 7280 	orrmi.w	r2, r2, #256	; 0x100
 8002e20:	601a      	strmi	r2, [r3, #0]
 8002e22:	6d63      	ldr	r3, [r4, #84]	; 0x54
 8002e24:	b11b      	cbz	r3, 8002e2e <HAL_DMA_Start_IT+0x5e>
 8002e26:	681a      	ldr	r2, [r3, #0]
 8002e28:	f442 7280 	orr.w	r2, r2, #256	; 0x100
 8002e2c:	601a      	str	r2, [r3, #0]
 8002e2e:	682b      	ldr	r3, [r5, #0]
 8002e30:	f043 0301 	orr.w	r3, r3, #1
 8002e34:	602b      	str	r3, [r5, #0]
 8002e36:	2000      	movs	r0, #0
 8002e38:	bd70      	pop	{r4, r5, r6, pc}
 8002e3a:	682b      	ldr	r3, [r5, #0]
 8002e3c:	f023 0304 	bic.w	r3, r3, #4
 8002e40:	602b      	str	r3, [r5, #0]
 8002e42:	682b      	ldr	r3, [r5, #0]
 8002e44:	f043 030a 	orr.w	r3, r3, #10
 8002e48:	e7e2      	b.n	8002e10 <HAL_DMA_Start_IT+0x40>
 8002e4a:	f880 6024 	strb.w	r6, [r0, #36]	; 0x24
 8002e4e:	2002      	movs	r0, #2
 8002e50:	e7f2      	b.n	8002e38 <HAL_DMA_Start_IT+0x68>

08002e52 <HAL_DMA_Abort>:
 8002e52:	f890 2025 	ldrb.w	r2, [r0, #37]	; 0x25
 8002e56:	2a02      	cmp	r2, #2
 8002e58:	4603      	mov	r3, r0
 8002e5a:	d009      	beq.n	8002e70 <HAL_DMA_Abort+0x1e>
 8002e5c:	2204      	movs	r2, #4
 8002e5e:	63c2      	str	r2, [r0, #60]	; 0x3c
 8002e60:	2001      	movs	r0, #1
 8002e62:	2201      	movs	r2, #1
 8002e64:	f883 2025 	strb.w	r2, [r3, #37]	; 0x25
 8002e68:	2200      	movs	r2, #0
 8002e6a:	f883 2024 	strb.w	r2, [r3, #36]	; 0x24
 8002e6e:	4770      	bx	lr
 8002e70:	6802      	ldr	r2, [r0, #0]
 8002e72:	6c80      	ldr	r0, [r0, #72]	; 0x48
 8002e74:	6811      	ldr	r1, [r2, #0]
 8002e76:	f021 010e 	bic.w	r1, r1, #14
 8002e7a:	6011      	str	r1, [r2, #0]
 8002e7c:	6801      	ldr	r1, [r0, #0]
 8002e7e:	f421 7180 	bic.w	r1, r1, #256	; 0x100
 8002e82:	6001      	str	r1, [r0, #0]
 8002e84:	6811      	ldr	r1, [r2, #0]
 8002e86:	f021 0101 	bic.w	r1, r1, #1
 8002e8a:	6011      	str	r1, [r2, #0]
 8002e8c:	e9d3 0210 	ldrd	r0, r2, [r3, #64]	; 0x40
 8002e90:	f002 011f 	and.w	r1, r2, #31
 8002e94:	2201      	movs	r2, #1
 8002e96:	408a      	lsls	r2, r1
 8002e98:	6042      	str	r2, [r0, #4]
 8002e9a:	e9d3 2113 	ldrd	r2, r1, [r3, #76]	; 0x4c
 8002e9e:	6d58      	ldr	r0, [r3, #84]	; 0x54
 8002ea0:	6051      	str	r1, [r2, #4]
 8002ea2:	2800      	cmp	r0, #0
 8002ea4:	d0dd      	beq.n	8002e62 <HAL_DMA_Abort+0x10>
 8002ea6:	6802      	ldr	r2, [r0, #0]
 8002ea8:	f422 7280 	bic.w	r2, r2, #256	; 0x100
 8002eac:	6002      	str	r2, [r0, #0]
 8002eae:	e9d3 2116 	ldrd	r2, r1, [r3, #88]	; 0x58
 8002eb2:	2000      	movs	r0, #0
 8002eb4:	6051      	str	r1, [r2, #4]
 8002eb6:	e7d4      	b.n	8002e62 <HAL_DMA_Abort+0x10>

08002eb8 <HAL_DMA_Abort_IT>:
 8002eb8:	b510      	push	{r4, lr}
 8002eba:	f890 3025 	ldrb.w	r3, [r0, #37]	; 0x25
 8002ebe:	2b02      	cmp	r3, #2
 8002ec0:	d009      	beq.n	8002ed6 <HAL_DMA_Abort_IT+0x1e>
 8002ec2:	2304      	movs	r3, #4
 8002ec4:	63c3      	str	r3, [r0, #60]	; 0x3c
 8002ec6:	2200      	movs	r2, #0
 8002ec8:	2301      	movs	r3, #1
 8002eca:	f880 3025 	strb.w	r3, [r0, #37]	; 0x25
 8002ece:	f880 2024 	strb.w	r2, [r0, #36]	; 0x24
 8002ed2:	4618      	mov	r0, r3
 8002ed4:	e02b      	b.n	8002f2e <HAL_DMA_Abort_IT+0x76>
 8002ed6:	6803      	ldr	r3, [r0, #0]
 8002ed8:	681a      	ldr	r2, [r3, #0]
 8002eda:	f022 020e 	bic.w	r2, r2, #14
 8002ede:	601a      	str	r2, [r3, #0]
 8002ee0:	681a      	ldr	r2, [r3, #0]
 8002ee2:	f022 0201 	bic.w	r2, r2, #1
 8002ee6:	601a      	str	r2, [r3, #0]
 8002ee8:	6c82      	ldr	r2, [r0, #72]	; 0x48
 8002eea:	6813      	ldr	r3, [r2, #0]
 8002eec:	f423 7380 	bic.w	r3, r3, #256	; 0x100
 8002ef0:	6013      	str	r3, [r2, #0]
 8002ef2:	e9d0 1310 	ldrd	r1, r3, [r0, #64]	; 0x40
 8002ef6:	f003 021f 	and.w	r2, r3, #31
 8002efa:	2301      	movs	r3, #1
 8002efc:	4093      	lsls	r3, r2
 8002efe:	604b      	str	r3, [r1, #4]
 8002f00:	e9d0 3213 	ldrd	r3, r2, [r0, #76]	; 0x4c
 8002f04:	605a      	str	r2, [r3, #4]
 8002f06:	6d43      	ldr	r3, [r0, #84]	; 0x54
 8002f08:	b133      	cbz	r3, 8002f18 <HAL_DMA_Abort_IT+0x60>
 8002f0a:	681a      	ldr	r2, [r3, #0]
 8002f0c:	f422 7280 	bic.w	r2, r2, #256	; 0x100
 8002f10:	601a      	str	r2, [r3, #0]
 8002f12:	e9d0 3216 	ldrd	r3, r2, [r0, #88]	; 0x58
 8002f16:	605a      	str	r2, [r3, #4]
 8002f18:	2301      	movs	r3, #1
 8002f1a:	f880 3025 	strb.w	r3, [r0, #37]	; 0x25
 8002f1e:	6b83      	ldr	r3, [r0, #56]	; 0x38
 8002f20:	2400      	movs	r4, #0
 8002f22:	f880 4024 	strb.w	r4, [r0, #36]	; 0x24
 8002f26:	2b00      	cmp	r3, #0
 8002f28:	d0d3      	beq.n	8002ed2 <HAL_DMA_Abort_IT+0x1a>
 8002f2a:	4798      	blx	r3
 8002f2c:	4620      	mov	r0, r4
 8002f2e:	bd10      	pop	{r4, pc}

08002f30 <HAL_DMA_IRQHandler>:
 8002f30:	6c01      	ldr	r1, [r0, #64]	; 0x40
 8002f32:	6c42      	ldr	r2, [r0, #68]	; 0x44
 8002f34:	6803      	ldr	r3, [r0, #0]
 8002f36:	b470      	push	{r4, r5, r6}
 8002f38:	f002 021f 	and.w	r2, r2, #31
 8002f3c:	680e      	ldr	r6, [r1, #0]
 8002f3e:	681d      	ldr	r5, [r3, #0]
 8002f40:	2404      	movs	r4, #4
 8002f42:	4094      	lsls	r4, r2
 8002f44:	4234      	tst	r4, r6
 8002f46:	d00e      	beq.n	8002f66 <HAL_DMA_IRQHandler+0x36>
 8002f48:	f015 0f04 	tst.w	r5, #4
 8002f4c:	d00b      	beq.n	8002f66 <HAL_DMA_IRQHandler+0x36>
 8002f4e:	681a      	ldr	r2, [r3, #0]
 8002f50:	0692      	lsls	r2, r2, #26
 8002f52:	bf5e      	ittt	pl
 8002f54:	681a      	ldrpl	r2, [r3, #0]
 8002f56:	f022 0204 	bicpl.w	r2, r2, #4
 8002f5a:	601a      	strpl	r2, [r3, #0]
 8002f5c:	6b03      	ldr	r3, [r0, #48]	; 0x30
 8002f5e:	604c      	str	r4, [r1, #4]
 8002f60:	b373      	cbz	r3, 8002fc0 <HAL_DMA_IRQHandler+0x90>
 8002f62:	bc70      	pop	{r4, r5, r6}
 8002f64:	4718      	bx	r3
 8002f66:	2402      	movs	r4, #2
 8002f68:	4094      	lsls	r4, r2
 8002f6a:	4234      	tst	r4, r6
 8002f6c:	d012      	beq.n	8002f94 <HAL_DMA_IRQHandler+0x64>
 8002f6e:	f015 0f02 	tst.w	r5, #2
 8002f72:	d00f      	beq.n	8002f94 <HAL_DMA_IRQHandler+0x64>
 8002f74:	681a      	ldr	r2, [r3, #0]
 8002f76:	0695      	lsls	r5, r2, #26
 8002f78:	d406      	bmi.n	8002f88 <HAL_DMA_IRQHandler+0x58>
 8002f7a:	681a      	ldr	r2, [r3, #0]
 8002f7c:	f022 020a 	bic.w	r2, r2, #10
 8002f80:	601a      	str	r2, [r3, #0]
 8002f82:	2301      	movs	r3, #1
 8002f84:	f880 3025 	strb.w	r3, [r0, #37]	; 0x25
 8002f88:	2300      	movs	r3, #0
 8002f8a:	604c      	str	r4, [r1, #4]
 8002f8c:	f880 3024 	strb.w	r3, [r0, #36]	; 0x24
 8002f90:	6ac3      	ldr	r3, [r0, #44]	; 0x2c
 8002f92:	e7e5      	b.n	8002f60 <HAL_DMA_IRQHandler+0x30>
 8002f94:	2408      	movs	r4, #8
 8002f96:	4094      	lsls	r4, r2
 8002f98:	4234      	tst	r4, r6
 8002f9a:	d011      	beq.n	8002fc0 <HAL_DMA_IRQHandler+0x90>
 8002f9c:	072c      	lsls	r4, r5, #28
 8002f9e:	d50f      	bpl.n	8002fc0 <HAL_DMA_IRQHandler+0x90>
 8002fa0:	681c      	ldr	r4, [r3, #0]
 8002fa2:	f024 040e 	bic.w	r4, r4, #14
 8002fa6:	601c      	str	r4, [r3, #0]
 8002fa8:	2301      	movs	r3, #1
 8002faa:	fa03 f202 	lsl.w	r2, r3, r2
 8002fae:	604a      	str	r2, [r1, #4]
 8002fb0:	63c3      	str	r3, [r0, #60]	; 0x3c
 8002fb2:	f880 3025 	strb.w	r3, [r0, #37]	; 0x25
 8002fb6:	2300      	movs	r3, #0
 8002fb8:	f880 3024 	strb.w	r3, [r0, #36]	; 0x24
 8002fbc:	6b43      	ldr	r3, [r0, #52]	; 0x34
 8002fbe:	e7cf      	b.n	8002f60 <HAL_DMA_IRQHandler+0x30>
 8002fc0:	bc70      	pop	{r4, r5, r6}
 8002fc2:	4770      	bx	lr

08002fc4 <HAL_FDCAN_Init>:
 8002fc4:	b538      	push	{r3, r4, r5, lr}
 8002fc6:	4604      	mov	r4, r0
 8002fc8:	2800      	cmp	r0, #0
 8002fca:	f000 80ba 	beq.w	8003142 <HAL_FDCAN_Init+0x17e>
 8002fce:	f890 305c 	ldrb.w	r3, [r0, #92]	; 0x5c
 8002fd2:	f003 02ff 	and.w	r2, r3, #255	; 0xff
 8002fd6:	b91b      	cbnz	r3, 8002fe0 <HAL_FDCAN_Init+0x1c>
 8002fd8:	f880 205d 	strb.w	r2, [r0, #93]	; 0x5d
 8002fdc:	f7fe f980 	bl	80012e0 <HAL_FDCAN_MspInit>
 8002fe0:	6822      	ldr	r2, [r4, #0]
 8002fe2:	6993      	ldr	r3, [r2, #24]
 8002fe4:	f023 0310 	bic.w	r3, r3, #16
 8002fe8:	6193      	str	r3, [r2, #24]
 8002fea:	f7fe febf 	bl	8001d6c <HAL_GetTick>
 8002fee:	4605      	mov	r5, r0
 8002ff0:	6823      	ldr	r3, [r4, #0]
 8002ff2:	699a      	ldr	r2, [r3, #24]
 8002ff4:	0711      	lsls	r1, r2, #28
 8002ff6:	f100 8097 	bmi.w	8003128 <HAL_FDCAN_Init+0x164>
 8002ffa:	699a      	ldr	r2, [r3, #24]
 8002ffc:	f042 0201 	orr.w	r2, r2, #1
 8003000:	619a      	str	r2, [r3, #24]
 8003002:	f7fe feb3 	bl	8001d6c <HAL_GetTick>
 8003006:	4605      	mov	r5, r0
 8003008:	6823      	ldr	r3, [r4, #0]
 800300a:	699a      	ldr	r2, [r3, #24]
 800300c:	07d2      	lsls	r2, r2, #31
 800300e:	f140 809a 	bpl.w	8003146 <HAL_FDCAN_Init+0x182>
 8003012:	699a      	ldr	r2, [r3, #24]
 8003014:	f042 0202 	orr.w	r2, r2, #2
 8003018:	619a      	str	r2, [r3, #24]
 800301a:	4a57      	ldr	r2, [pc, #348]	; (8003178 <HAL_FDCAN_Init+0x1b4>)
 800301c:	4293      	cmp	r3, r2
 800301e:	bf04      	itt	eq
 8003020:	6861      	ldreq	r1, [r4, #4]
 8003022:	f8c2 1100 	streq.w	r1, [r2, #256]	; 0x100
 8003026:	7c22      	ldrb	r2, [r4, #16]
 8003028:	2a01      	cmp	r2, #1
 800302a:	699a      	ldr	r2, [r3, #24]
 800302c:	bf0c      	ite	eq
 800302e:	f022 0240 	biceq.w	r2, r2, #64	; 0x40
 8003032:	f042 0240 	orrne.w	r2, r2, #64	; 0x40
 8003036:	619a      	str	r2, [r3, #24]
 8003038:	7c62      	ldrb	r2, [r4, #17]
 800303a:	2a01      	cmp	r2, #1
 800303c:	699a      	ldr	r2, [r3, #24]
 800303e:	bf0c      	ite	eq
 8003040:	f442 4280 	orreq.w	r2, r2, #16384	; 0x4000
 8003044:	f422 4280 	bicne.w	r2, r2, #16384	; 0x4000
 8003048:	619a      	str	r2, [r3, #24]
 800304a:	7ca2      	ldrb	r2, [r4, #18]
 800304c:	2a01      	cmp	r2, #1
 800304e:	699a      	ldr	r2, [r3, #24]
 8003050:	bf0c      	ite	eq
 8003052:	f422 5280 	biceq.w	r2, r2, #4096	; 0x1000
 8003056:	f442 5280 	orrne.w	r2, r2, #4096	; 0x1000
 800305a:	619a      	str	r2, [r3, #24]
 800305c:	699a      	ldr	r2, [r3, #24]
 800305e:	68a0      	ldr	r0, [r4, #8]
 8003060:	f422 7240 	bic.w	r2, r2, #768	; 0x300
 8003064:	4302      	orrs	r2, r0
 8003066:	619a      	str	r2, [r3, #24]
 8003068:	699a      	ldr	r2, [r3, #24]
 800306a:	f022 02a4 	bic.w	r2, r2, #164	; 0xa4
 800306e:	619a      	str	r2, [r3, #24]
 8003070:	691a      	ldr	r2, [r3, #16]
 8003072:	f022 0210 	bic.w	r2, r2, #16
 8003076:	611a      	str	r2, [r3, #16]
 8003078:	68e2      	ldr	r2, [r4, #12]
 800307a:	2a01      	cmp	r2, #1
 800307c:	d16a      	bne.n	8003154 <HAL_FDCAN_Init+0x190>
 800307e:	699a      	ldr	r2, [r3, #24]
 8003080:	f042 0204 	orr.w	r2, r2, #4
 8003084:	619a      	str	r2, [r3, #24]
 8003086:	69a2      	ldr	r2, [r4, #24]
 8003088:	1e51      	subs	r1, r2, #1
 800308a:	69e2      	ldr	r2, [r4, #28]
 800308c:	3a01      	subs	r2, #1
 800308e:	0212      	lsls	r2, r2, #8
 8003090:	ea42 6241 	orr.w	r2, r2, r1, lsl #25
 8003094:	6a21      	ldr	r1, [r4, #32]
 8003096:	3901      	subs	r1, #1
 8003098:	430a      	orrs	r2, r1
 800309a:	6961      	ldr	r1, [r4, #20]
 800309c:	3901      	subs	r1, #1
 800309e:	ea42 4201 	orr.w	r2, r2, r1, lsl #16
 80030a2:	f5b0 7f40 	cmp.w	r0, #768	; 0x300
 80030a6:	61da      	str	r2, [r3, #28]
 80030a8:	d10e      	bne.n	80030c8 <HAL_FDCAN_Init+0x104>
 80030aa:	6ae2      	ldr	r2, [r4, #44]	; 0x2c
 80030ac:	1e51      	subs	r1, r2, #1
 80030ae:	6b22      	ldr	r2, [r4, #48]	; 0x30
 80030b0:	3a01      	subs	r2, #1
 80030b2:	0112      	lsls	r2, r2, #4
 80030b4:	ea42 2201 	orr.w	r2, r2, r1, lsl #8
 80030b8:	6aa1      	ldr	r1, [r4, #40]	; 0x28
 80030ba:	3901      	subs	r1, #1
 80030bc:	430a      	orrs	r2, r1
 80030be:	6a61      	ldr	r1, [r4, #36]	; 0x24
 80030c0:	3901      	subs	r1, #1
 80030c2:	ea42 4201 	orr.w	r2, r2, r1, lsl #16
 80030c6:	60da      	str	r2, [r3, #12]
 80030c8:	f8d3 20c0 	ldr.w	r2, [r3, #192]	; 0xc0
 80030cc:	6be1      	ldr	r1, [r4, #60]	; 0x3c
 80030ce:	482b      	ldr	r0, [pc, #172]	; (800317c <HAL_FDCAN_Init+0x1b8>)
 80030d0:	430a      	orrs	r2, r1
 80030d2:	f8c3 20c0 	str.w	r2, [r3, #192]	; 0xc0
 80030d6:	f8d3 2080 	ldr.w	r2, [r3, #128]	; 0x80
 80030da:	6b61      	ldr	r1, [r4, #52]	; 0x34
 80030dc:	6420      	str	r0, [r4, #64]	; 0x40
 80030de:	f422 12f8 	bic.w	r2, r2, #2031616	; 0x1f0000
 80030e2:	ea42 4201 	orr.w	r2, r2, r1, lsl #16
 80030e6:	f8c3 2080 	str.w	r2, [r3, #128]	; 0x80
 80030ea:	4a25      	ldr	r2, [pc, #148]	; (8003180 <HAL_FDCAN_Init+0x1bc>)
 80030ec:	6462      	str	r2, [r4, #68]	; 0x44
 80030ee:	f8d3 2080 	ldr.w	r2, [r3, #128]	; 0x80
 80030f2:	6ba1      	ldr	r1, [r4, #56]	; 0x38
 80030f4:	f022 6270 	bic.w	r2, r2, #251658240	; 0xf000000
 80030f8:	ea42 6201 	orr.w	r2, r2, r1, lsl #24
 80030fc:	f8c3 2080 	str.w	r2, [r3, #128]	; 0x80
 8003100:	4b20      	ldr	r3, [pc, #128]	; (8003184 <HAL_FDCAN_Init+0x1c0>)
 8003102:	64a3      	str	r3, [r4, #72]	; 0x48
 8003104:	33d8      	adds	r3, #216	; 0xd8
 8003106:	64e3      	str	r3, [r4, #76]	; 0x4c
 8003108:	33d8      	adds	r3, #216	; 0xd8
 800310a:	6523      	str	r3, [r4, #80]	; 0x50
 800310c:	3318      	adds	r3, #24
 800310e:	6563      	str	r3, [r4, #84]	; 0x54
 8003110:	f44f 7254 	mov.w	r2, #848	; 0x350
 8003114:	2100      	movs	r1, #0
 8003116:	f002 fcd9 	bl	8005acc <memset>
 800311a:	2000      	movs	r0, #0
 800311c:	2301      	movs	r3, #1
 800311e:	6620      	str	r0, [r4, #96]	; 0x60
 8003120:	65a0      	str	r0, [r4, #88]	; 0x58
 8003122:	f884 305c 	strb.w	r3, [r4, #92]	; 0x5c
 8003126:	bd38      	pop	{r3, r4, r5, pc}
 8003128:	f7fe fe20 	bl	8001d6c <HAL_GetTick>
 800312c:	1b40      	subs	r0, r0, r5
 800312e:	280a      	cmp	r0, #10
 8003130:	f67f af5e 	bls.w	8002ff0 <HAL_FDCAN_Init+0x2c>
 8003134:	6e23      	ldr	r3, [r4, #96]	; 0x60
 8003136:	f043 0301 	orr.w	r3, r3, #1
 800313a:	6623      	str	r3, [r4, #96]	; 0x60
 800313c:	2303      	movs	r3, #3
 800313e:	f884 305c 	strb.w	r3, [r4, #92]	; 0x5c
 8003142:	2001      	movs	r0, #1
 8003144:	e7ef      	b.n	8003126 <HAL_FDCAN_Init+0x162>
 8003146:	f7fe fe11 	bl	8001d6c <HAL_GetTick>
 800314a:	1b40      	subs	r0, r0, r5
 800314c:	280a      	cmp	r0, #10
 800314e:	f67f af5b 	bls.w	8003008 <HAL_FDCAN_Init+0x44>
 8003152:	e7ef      	b.n	8003134 <HAL_FDCAN_Init+0x170>
 8003154:	2a00      	cmp	r2, #0
 8003156:	d096      	beq.n	8003086 <HAL_FDCAN_Init+0xc2>
 8003158:	2a02      	cmp	r2, #2
 800315a:	d009      	beq.n	8003170 <HAL_FDCAN_Init+0x1ac>
 800315c:	6999      	ldr	r1, [r3, #24]
 800315e:	f041 0180 	orr.w	r1, r1, #128	; 0x80
 8003162:	6199      	str	r1, [r3, #24]
 8003164:	6919      	ldr	r1, [r3, #16]
 8003166:	2a03      	cmp	r2, #3
 8003168:	f041 0110 	orr.w	r1, r1, #16
 800316c:	6119      	str	r1, [r3, #16]
 800316e:	d18a      	bne.n	8003086 <HAL_FDCAN_Init+0xc2>
 8003170:	699a      	ldr	r2, [r3, #24]
 8003172:	f042 0220 	orr.w	r2, r2, #32
 8003176:	e785      	b.n	8003084 <HAL_FDCAN_Init+0xc0>
 8003178:	40006400 	.word	0x40006400
 800317c:	4000a400 	.word	0x4000a400
 8003180:	4000a470 	.word	0x4000a470
 8003184:	4000a4b0 	.word	0x4000a4b0

08003188 <HAL_FDCAN_GetRxMessage>:
 8003188:	b5f0      	push	{r4, r5, r6, r7, lr}
 800318a:	f890 405c 	ldrb.w	r4, [r0, #92]	; 0x5c
 800318e:	2c02      	cmp	r4, #2
 8003190:	d15f      	bne.n	8003252 <HAL_FDCAN_GetRxMessage+0xca>
 8003192:	2940      	cmp	r1, #64	; 0x40
 8003194:	6804      	ldr	r4, [r0, #0]
 8003196:	d14a      	bne.n	800322e <HAL_FDCAN_GetRxMessage+0xa6>
 8003198:	f8d4 5090 	ldr.w	r5, [r4, #144]	; 0x90
 800319c:	072e      	lsls	r6, r5, #28
 800319e:	d105      	bne.n	80031ac <HAL_FDCAN_GetRxMessage+0x24>
 80031a0:	6e03      	ldr	r3, [r0, #96]	; 0x60
 80031a2:	f443 7380 	orr.w	r3, r3, #256	; 0x100
 80031a6:	6603      	str	r3, [r0, #96]	; 0x60
 80031a8:	2001      	movs	r0, #1
 80031aa:	e03f      	b.n	800322c <HAL_FDCAN_GetRxMessage+0xa4>
 80031ac:	f8d4 5090 	ldr.w	r5, [r4, #144]	; 0x90
 80031b0:	6c84      	ldr	r4, [r0, #72]	; 0x48
 80031b2:	f3c5 2501 	ubfx	r5, r5, #8, #2
 80031b6:	2648      	movs	r6, #72	; 0x48
 80031b8:	fb06 4405 	mla	r4, r6, r5, r4
 80031bc:	6827      	ldr	r7, [r4, #0]
 80031be:	f007 4780 	and.w	r7, r7, #1073741824	; 0x40000000
 80031c2:	6057      	str	r7, [r2, #4]
 80031c4:	6826      	ldr	r6, [r4, #0]
 80031c6:	2f00      	cmp	r7, #0
 80031c8:	d13b      	bne.n	8003242 <HAL_FDCAN_GetRxMessage+0xba>
 80031ca:	f3c6 468a 	ubfx	r6, r6, #18, #11
 80031ce:	6016      	str	r6, [r2, #0]
 80031d0:	6826      	ldr	r6, [r4, #0]
 80031d2:	f8df c088 	ldr.w	ip, [pc, #136]	; 800325c <HAL_FDCAN_GetRxMessage+0xd4>
 80031d6:	f006 5600 	and.w	r6, r6, #536870912	; 0x20000000
 80031da:	6096      	str	r6, [r2, #8]
 80031dc:	6826      	ldr	r6, [r4, #0]
 80031de:	f006 4600 	and.w	r6, r6, #2147483648	; 0x80000000
 80031e2:	6116      	str	r6, [r2, #16]
 80031e4:	88a6      	ldrh	r6, [r4, #4]
 80031e6:	61d6      	str	r6, [r2, #28]
 80031e8:	6866      	ldr	r6, [r4, #4]
 80031ea:	f406 2670 	and.w	r6, r6, #983040	; 0xf0000
 80031ee:	60d6      	str	r6, [r2, #12]
 80031f0:	6866      	ldr	r6, [r4, #4]
 80031f2:	f406 1680 	and.w	r6, r6, #1048576	; 0x100000
 80031f6:	6156      	str	r6, [r2, #20]
 80031f8:	6866      	ldr	r6, [r4, #4]
 80031fa:	f406 1600 	and.w	r6, r6, #2097152	; 0x200000
 80031fe:	6196      	str	r6, [r2, #24]
 8003200:	79e6      	ldrb	r6, [r4, #7]
 8003202:	f006 067f 	and.w	r6, r6, #127	; 0x7f
 8003206:	6216      	str	r6, [r2, #32]
 8003208:	6866      	ldr	r6, [r4, #4]
 800320a:	0ff6      	lsrs	r6, r6, #31
 800320c:	6256      	str	r6, [r2, #36]	; 0x24
 800320e:	3407      	adds	r4, #7
 8003210:	2600      	movs	r6, #0
 8003212:	89d7      	ldrh	r7, [r2, #14]
 8003214:	f81c 7007 	ldrb.w	r7, [ip, r7]
 8003218:	42b7      	cmp	r7, r6
 800321a:	d815      	bhi.n	8003248 <HAL_FDCAN_GetRxMessage+0xc0>
 800321c:	6803      	ldr	r3, [r0, #0]
 800321e:	2940      	cmp	r1, #64	; 0x40
 8003220:	bf0c      	ite	eq
 8003222:	f8c3 5094 	streq.w	r5, [r3, #148]	; 0x94
 8003226:	f8c3 509c 	strne.w	r5, [r3, #156]	; 0x9c
 800322a:	2000      	movs	r0, #0
 800322c:	bdf0      	pop	{r4, r5, r6, r7, pc}
 800322e:	f8d4 5098 	ldr.w	r5, [r4, #152]	; 0x98
 8003232:	072d      	lsls	r5, r5, #28
 8003234:	d0b4      	beq.n	80031a0 <HAL_FDCAN_GetRxMessage+0x18>
 8003236:	f8d4 5098 	ldr.w	r5, [r4, #152]	; 0x98
 800323a:	6cc4      	ldr	r4, [r0, #76]	; 0x4c
 800323c:	f3c5 2501 	ubfx	r5, r5, #8, #2
 8003240:	e7b9      	b.n	80031b6 <HAL_FDCAN_GetRxMessage+0x2e>
 8003242:	f026 4660 	bic.w	r6, r6, #3758096384	; 0xe0000000
 8003246:	e7c2      	b.n	80031ce <HAL_FDCAN_GetRxMessage+0x46>
 8003248:	f814 7f01 	ldrb.w	r7, [r4, #1]!
 800324c:	559f      	strb	r7, [r3, r6]
 800324e:	3601      	adds	r6, #1
 8003250:	e7df      	b.n	8003212 <HAL_FDCAN_GetRxMessage+0x8a>
 8003252:	6e03      	ldr	r3, [r0, #96]	; 0x60
 8003254:	f043 0308 	orr.w	r3, r3, #8
 8003258:	e7a5      	b.n	80031a6 <HAL_FDCAN_GetRxMessage+0x1e>
 800325a:	bf00      	nop
 800325c:	08005b54 	.word	0x08005b54

08003260 <HAL_FDCAN_TxEventFifoCallback>:
 8003260:	4770      	bx	lr

08003262 <HAL_FDCAN_RxFifo1Callback>:
 8003262:	4770      	bx	lr

08003264 <HAL_FDCAN_TxFifoEmptyCallback>:
 8003264:	4770      	bx	lr

08003266 <HAL_FDCAN_TxBufferCompleteCallback>:
 8003266:	4770      	bx	lr

08003268 <HAL_FDCAN_TxBufferAbortCallback>:
 8003268:	4770      	bx	lr

0800326a <HAL_FDCAN_TimestampWraparoundCallback>:
 800326a:	4770      	bx	lr

0800326c <HAL_FDCAN_TimeoutOccurredCallback>:
 800326c:	4770      	bx	lr

0800326e <HAL_FDCAN_HighPriorityMessageCallback>:
 800326e:	4770      	bx	lr

08003270 <HAL_FDCAN_ErrorCallback>:
 8003270:	4770      	bx	lr

08003272 <HAL_FDCAN_ErrorStatusCallback>:
 8003272:	4770      	bx	lr

08003274 <HAL_FDCAN_IRQHandler>:
 8003274:	e92d 43f8 	stmdb	sp!, {r3, r4, r5, r6, r7, r8, r9, lr}
 8003278:	6803      	ldr	r3, [r0, #0]
 800327a:	6d1a      	ldr	r2, [r3, #80]	; 0x50
 800327c:	6d59      	ldr	r1, [r3, #84]	; 0x54
 800327e:	ea02 0901 	and.w	r9, r2, r1
 8003282:	6d1a      	ldr	r2, [r3, #80]	; 0x50
 8003284:	6d59      	ldr	r1, [r3, #84]	; 0x54
 8003286:	6d1f      	ldr	r7, [r3, #80]	; 0x50
 8003288:	ea02 0801 	and.w	r8, r2, r1
 800328c:	6d5a      	ldr	r2, [r3, #84]	; 0x54
 800328e:	6d1d      	ldr	r5, [r3, #80]	; 0x50
 8003290:	4017      	ands	r7, r2
 8003292:	6d5a      	ldr	r2, [r3, #84]	; 0x54
 8003294:	6d1e      	ldr	r6, [r3, #80]	; 0x50
 8003296:	4015      	ands	r5, r2
 8003298:	6d5a      	ldr	r2, [r3, #84]	; 0x54
 800329a:	4016      	ands	r6, r2
 800329c:	6d1a      	ldr	r2, [r3, #80]	; 0x50
 800329e:	0652      	lsls	r2, r2, #25
 80032a0:	4604      	mov	r4, r0
 80032a2:	f409 59e0 	and.w	r9, r9, #7168	; 0x1c00
 80032a6:	f008 0807 	and.w	r8, r8, #7
 80032aa:	f007 0738 	and.w	r7, r7, #56	; 0x38
 80032ae:	f405 0571 	and.w	r5, r5, #15794176	; 0xf10000
 80032b2:	f406 2660 	and.w	r6, r6, #917504	; 0xe0000
 80032b6:	d506      	bpl.n	80032c6 <HAL_FDCAN_IRQHandler+0x52>
 80032b8:	6d5a      	ldr	r2, [r3, #84]	; 0x54
 80032ba:	0651      	lsls	r1, r2, #25
 80032bc:	d503      	bpl.n	80032c6 <HAL_FDCAN_IRQHandler+0x52>
 80032be:	2240      	movs	r2, #64	; 0x40
 80032c0:	651a      	str	r2, [r3, #80]	; 0x50
 80032c2:	f7ff ffd4 	bl	800326e <HAL_FDCAN_HighPriorityMessageCallback>
 80032c6:	6823      	ldr	r3, [r4, #0]
 80032c8:	6d1a      	ldr	r2, [r3, #80]	; 0x50
 80032ca:	05d2      	lsls	r2, r2, #23
 80032cc:	d50d      	bpl.n	80032ea <HAL_FDCAN_IRQHandler+0x76>
 80032ce:	6d5a      	ldr	r2, [r3, #84]	; 0x54
 80032d0:	05d0      	lsls	r0, r2, #23
 80032d2:	d50a      	bpl.n	80032ea <HAL_FDCAN_IRQHandler+0x76>
 80032d4:	f8d3 10d8 	ldr.w	r1, [r3, #216]	; 0xd8
 80032d8:	f8d3 20e0 	ldr.w	r2, [r3, #224]	; 0xe0
 80032dc:	f44f 7080 	mov.w	r0, #256	; 0x100
 80032e0:	6518      	str	r0, [r3, #80]	; 0x50
 80032e2:	4011      	ands	r1, r2
 80032e4:	4620      	mov	r0, r4
 80032e6:	f7ff ffbf 	bl	8003268 <HAL_FDCAN_TxBufferAbortCallback>
 80032ea:	f1b9 0f00 	cmp.w	r9, #0
 80032ee:	d006      	beq.n	80032fe <HAL_FDCAN_IRQHandler+0x8a>
 80032f0:	6823      	ldr	r3, [r4, #0]
 80032f2:	4649      	mov	r1, r9
 80032f4:	f8c3 9050 	str.w	r9, [r3, #80]	; 0x50
 80032f8:	4620      	mov	r0, r4
 80032fa:	f7ff ffb1 	bl	8003260 <HAL_FDCAN_TxEventFifoCallback>
 80032fe:	f1b8 0f00 	cmp.w	r8, #0
 8003302:	d006      	beq.n	8003312 <HAL_FDCAN_IRQHandler+0x9e>
 8003304:	6823      	ldr	r3, [r4, #0]
 8003306:	4641      	mov	r1, r8
 8003308:	f8c3 8050 	str.w	r8, [r3, #80]	; 0x50
 800330c:	4620      	mov	r0, r4
 800330e:	f7fd fd3b 	bl	8000d88 <HAL_FDCAN_RxFifo0Callback>
 8003312:	b12f      	cbz	r7, 8003320 <HAL_FDCAN_IRQHandler+0xac>
 8003314:	6823      	ldr	r3, [r4, #0]
 8003316:	4639      	mov	r1, r7
 8003318:	651f      	str	r7, [r3, #80]	; 0x50
 800331a:	4620      	mov	r0, r4
 800331c:	f7ff ffa1 	bl	8003262 <HAL_FDCAN_RxFifo1Callback>
 8003320:	6823      	ldr	r3, [r4, #0]
 8003322:	6d1a      	ldr	r2, [r3, #80]	; 0x50
 8003324:	0591      	lsls	r1, r2, #22
 8003326:	d508      	bpl.n	800333a <HAL_FDCAN_IRQHandler+0xc6>
 8003328:	6d5a      	ldr	r2, [r3, #84]	; 0x54
 800332a:	0592      	lsls	r2, r2, #22
 800332c:	d505      	bpl.n	800333a <HAL_FDCAN_IRQHandler+0xc6>
 800332e:	f44f 7200 	mov.w	r2, #512	; 0x200
 8003332:	651a      	str	r2, [r3, #80]	; 0x50
 8003334:	4620      	mov	r0, r4
 8003336:	f7ff ff95 	bl	8003264 <HAL_FDCAN_TxFifoEmptyCallback>
 800333a:	6823      	ldr	r3, [r4, #0]
 800333c:	6d1a      	ldr	r2, [r3, #80]	; 0x50
 800333e:	0617      	lsls	r7, r2, #24
 8003340:	d50c      	bpl.n	800335c <HAL_FDCAN_IRQHandler+0xe8>
 8003342:	6d5a      	ldr	r2, [r3, #84]	; 0x54
 8003344:	0610      	lsls	r0, r2, #24
 8003346:	d509      	bpl.n	800335c <HAL_FDCAN_IRQHandler+0xe8>
 8003348:	f8d3 10d4 	ldr.w	r1, [r3, #212]	; 0xd4
 800334c:	f8d3 20dc 	ldr.w	r2, [r3, #220]	; 0xdc
 8003350:	2080      	movs	r0, #128	; 0x80
 8003352:	6518      	str	r0, [r3, #80]	; 0x50
 8003354:	4011      	ands	r1, r2
 8003356:	4620      	mov	r0, r4
 8003358:	f7ff ff85 	bl	8003266 <HAL_FDCAN_TxBufferCompleteCallback>
 800335c:	6823      	ldr	r3, [r4, #0]
 800335e:	6d1a      	ldr	r2, [r3, #80]	; 0x50
 8003360:	0491      	lsls	r1, r2, #18
 8003362:	d508      	bpl.n	8003376 <HAL_FDCAN_IRQHandler+0x102>
 8003364:	6d5a      	ldr	r2, [r3, #84]	; 0x54
 8003366:	0492      	lsls	r2, r2, #18
 8003368:	d505      	bpl.n	8003376 <HAL_FDCAN_IRQHandler+0x102>
 800336a:	f44f 5200 	mov.w	r2, #8192	; 0x2000
 800336e:	651a      	str	r2, [r3, #80]	; 0x50
 8003370:	4620      	mov	r0, r4
 8003372:	f7ff ff7a 	bl	800326a <HAL_FDCAN_TimestampWraparoundCallback>
 8003376:	6823      	ldr	r3, [r4, #0]
 8003378:	6d1a      	ldr	r2, [r3, #80]	; 0x50
 800337a:	0417      	lsls	r7, r2, #16
 800337c:	d508      	bpl.n	8003390 <HAL_FDCAN_IRQHandler+0x11c>
 800337e:	6d5a      	ldr	r2, [r3, #84]	; 0x54
 8003380:	0410      	lsls	r0, r2, #16
 8003382:	d505      	bpl.n	8003390 <HAL_FDCAN_IRQHandler+0x11c>
 8003384:	f44f 4200 	mov.w	r2, #32768	; 0x8000
 8003388:	651a      	str	r2, [r3, #80]	; 0x50
 800338a:	4620      	mov	r0, r4
 800338c:	f7ff ff6e 	bl	800326c <HAL_FDCAN_TimeoutOccurredCallback>
 8003390:	6823      	ldr	r3, [r4, #0]
 8003392:	6d1a      	ldr	r2, [r3, #80]	; 0x50
 8003394:	0451      	lsls	r1, r2, #17
 8003396:	d509      	bpl.n	80033ac <HAL_FDCAN_IRQHandler+0x138>
 8003398:	6d5a      	ldr	r2, [r3, #84]	; 0x54
 800339a:	0452      	lsls	r2, r2, #17
 800339c:	d506      	bpl.n	80033ac <HAL_FDCAN_IRQHandler+0x138>
 800339e:	f44f 4280 	mov.w	r2, #16384	; 0x4000
 80033a2:	651a      	str	r2, [r3, #80]	; 0x50
 80033a4:	6e22      	ldr	r2, [r4, #96]	; 0x60
 80033a6:	f042 0280 	orr.w	r2, r2, #128	; 0x80
 80033aa:	6622      	str	r2, [r4, #96]	; 0x60
 80033ac:	b126      	cbz	r6, 80033b8 <HAL_FDCAN_IRQHandler+0x144>
 80033ae:	651e      	str	r6, [r3, #80]	; 0x50
 80033b0:	4631      	mov	r1, r6
 80033b2:	4620      	mov	r0, r4
 80033b4:	f7ff ff5d 	bl	8003272 <HAL_FDCAN_ErrorStatusCallback>
 80033b8:	b125      	cbz	r5, 80033c4 <HAL_FDCAN_IRQHandler+0x150>
 80033ba:	6823      	ldr	r3, [r4, #0]
 80033bc:	651d      	str	r5, [r3, #80]	; 0x50
 80033be:	6e23      	ldr	r3, [r4, #96]	; 0x60
 80033c0:	432b      	orrs	r3, r5
 80033c2:	6623      	str	r3, [r4, #96]	; 0x60
 80033c4:	6e23      	ldr	r3, [r4, #96]	; 0x60
 80033c6:	b113      	cbz	r3, 80033ce <HAL_FDCAN_IRQHandler+0x15a>
 80033c8:	4620      	mov	r0, r4
 80033ca:	f7ff ff51 	bl	8003270 <HAL_FDCAN_ErrorCallback>
 80033ce:	e8bd 83f8 	ldmia.w	sp!, {r3, r4, r5, r6, r7, r8, r9, pc}

080033d2 <FMAC_Reset>:
 80033d2:	b538      	push	{r3, r4, r5, lr}
 80033d4:	4604      	mov	r4, r0
 80033d6:	f7fe fcc9 	bl	8001d6c <HAL_GetTick>
 80033da:	6822      	ldr	r2, [r4, #0]
 80033dc:	6913      	ldr	r3, [r2, #16]
 80033de:	f443 3380 	orr.w	r3, r3, #65536	; 0x10000
 80033e2:	4605      	mov	r5, r0
 80033e4:	6113      	str	r3, [r2, #16]
 80033e6:	6823      	ldr	r3, [r4, #0]
 80033e8:	6918      	ldr	r0, [r3, #16]
 80033ea:	f410 3080 	ands.w	r0, r0, #65536	; 0x10000
 80033ee:	d101      	bne.n	80033f4 <FMAC_Reset+0x22>
 80033f0:	6360      	str	r0, [r4, #52]	; 0x34
 80033f2:	e00a      	b.n	800340a <FMAC_Reset+0x38>
 80033f4:	f7fe fcba 	bl	8001d6c <HAL_GetTick>
 80033f8:	1b40      	subs	r0, r0, r5
 80033fa:	f5b0 7ffa 	cmp.w	r0, #500	; 0x1f4
 80033fe:	d9f2      	bls.n	80033e6 <FMAC_Reset+0x14>
 8003400:	6b63      	ldr	r3, [r4, #52]	; 0x34
 8003402:	f043 0380 	orr.w	r3, r3, #128	; 0x80
 8003406:	6363      	str	r3, [r4, #52]	; 0x34
 8003408:	2001      	movs	r0, #1
 800340a:	bd38      	pop	{r3, r4, r5, pc}

0800340c <HAL_FMAC_Init>:
 800340c:	b570      	push	{r4, r5, r6, lr}
 800340e:	4604      	mov	r4, r0
 8003410:	b360      	cbz	r0, 800346c <HAL_FMAC_Init+0x60>
 8003412:	f890 3031 	ldrb.w	r3, [r0, #49]	; 0x31
 8003416:	f003 02ff 	and.w	r2, r3, #255	; 0xff
 800341a:	b91b      	cbnz	r3, 8003424 <HAL_FMAC_Init+0x18>
 800341c:	f880 2030 	strb.w	r2, [r0, #48]	; 0x30
 8003420:	f7fd ffbc 	bl	800139c <HAL_FMAC_MspInit>
 8003424:	2500      	movs	r5, #0
 8003426:	2620      	movs	r6, #32
 8003428:	f884 6033 	strb.w	r6, [r4, #51]	; 0x33
 800342c:	6065      	str	r5, [r4, #4]
 800342e:	60e5      	str	r5, [r4, #12]
 8003430:	6165      	str	r5, [r4, #20]
 8003432:	8225      	strh	r5, [r4, #16]
 8003434:	61a5      	str	r5, [r4, #24]
 8003436:	6225      	str	r5, [r4, #32]
 8003438:	83a5      	strh	r5, [r4, #28]
 800343a:	f884 6032 	strb.w	r6, [r4, #50]	; 0x32
 800343e:	4620      	mov	r0, r4
 8003440:	f7ff ffc7 	bl	80033d2 <FMAC_Reset>
 8003444:	2801      	cmp	r0, #1
 8003446:	bf09      	itett	eq
 8003448:	6b63      	ldreq	r3, [r4, #52]	; 0x34
 800344a:	6365      	strne	r5, [r4, #52]	; 0x34
 800344c:	f043 0310 	orreq.w	r3, r3, #16
 8003450:	6363      	streq	r3, [r4, #52]	; 0x34
 8003452:	bf04      	itt	eq
 8003454:	23a0      	moveq	r3, #160	; 0xa0
 8003456:	f884 3031 	strbeq.w	r3, [r4, #49]	; 0x31
 800345a:	f04f 0300 	mov.w	r3, #0
 800345e:	bf1c      	itt	ne
 8003460:	f884 6031 	strbne.w	r6, [r4, #49]	; 0x31
 8003464:	4628      	movne	r0, r5
 8003466:	f884 3030 	strb.w	r3, [r4, #48]	; 0x30
 800346a:	bd70      	pop	{r4, r5, r6, pc}
 800346c:	2001      	movs	r0, #1
 800346e:	e7fc      	b.n	800346a <HAL_FMAC_Init+0x5e>

08003470 <HAL_GPIO_Init>:
 8003470:	e92d 4ff7 	stmdb	sp!, {r0, r1, r2, r4, r5, r6, r7, r8, r9, sl, fp, lr}
 8003474:	f8df 918c 	ldr.w	r9, [pc, #396]	; 8003604 <HAL_GPIO_Init+0x194>
 8003478:	4c60      	ldr	r4, [pc, #384]	; (80035fc <HAL_GPIO_Init+0x18c>)
 800347a:	2300      	movs	r3, #0
 800347c:	680a      	ldr	r2, [r1, #0]
 800347e:	fa32 f503 	lsrs.w	r5, r2, r3
 8003482:	d102      	bne.n	800348a <HAL_GPIO_Init+0x1a>
 8003484:	b003      	add	sp, #12
 8003486:	e8bd 8ff0 	ldmia.w	sp!, {r4, r5, r6, r7, r8, r9, sl, fp, pc}
 800348a:	2501      	movs	r5, #1
 800348c:	fa05 fe03 	lsl.w	lr, r5, r3
 8003490:	ea1e 0202 	ands.w	r2, lr, r2
 8003494:	f000 80a5 	beq.w	80035e2 <HAL_GPIO_Init+0x172>
 8003498:	684e      	ldr	r6, [r1, #4]
 800349a:	f006 0503 	and.w	r5, r6, #3
 800349e:	ea4f 0843 	mov.w	r8, r3, lsl #1
 80034a2:	f04f 0c03 	mov.w	ip, #3
 80034a6:	1e6f      	subs	r7, r5, #1
 80034a8:	fa0c fc08 	lsl.w	ip, ip, r8
 80034ac:	2f01      	cmp	r7, #1
 80034ae:	ea6f 0c0c 	mvn.w	ip, ip
 80034b2:	d834      	bhi.n	800351e <HAL_GPIO_Init+0xae>
 80034b4:	6887      	ldr	r7, [r0, #8]
 80034b6:	ea07 0a0c 	and.w	sl, r7, ip
 80034ba:	68cf      	ldr	r7, [r1, #12]
 80034bc:	fa07 f708 	lsl.w	r7, r7, r8
 80034c0:	ea47 070a 	orr.w	r7, r7, sl
 80034c4:	6087      	str	r7, [r0, #8]
 80034c6:	6847      	ldr	r7, [r0, #4]
 80034c8:	ea27 0e0e 	bic.w	lr, r7, lr
 80034cc:	f3c6 1700 	ubfx	r7, r6, #4, #1
 80034d0:	409f      	lsls	r7, r3
 80034d2:	ea47 070e 	orr.w	r7, r7, lr
 80034d6:	6047      	str	r7, [r0, #4]
 80034d8:	68c7      	ldr	r7, [r0, #12]
 80034da:	ea07 0e0c 	and.w	lr, r7, ip
 80034de:	688f      	ldr	r7, [r1, #8]
 80034e0:	fa07 f708 	lsl.w	r7, r7, r8
 80034e4:	ea47 070e 	orr.w	r7, r7, lr
 80034e8:	2d02      	cmp	r5, #2
 80034ea:	60c7      	str	r7, [r0, #12]
 80034ec:	d119      	bne.n	8003522 <HAL_GPIO_Init+0xb2>
 80034ee:	ea4f 0ad3 	mov.w	sl, r3, lsr #3
 80034f2:	eb00 0a8a 	add.w	sl, r0, sl, lsl #2
 80034f6:	f003 0b07 	and.w	fp, r3, #7
 80034fa:	f8da 7020 	ldr.w	r7, [sl, #32]
 80034fe:	ea4f 0b8b 	mov.w	fp, fp, lsl #2
 8003502:	f04f 0e0f 	mov.w	lr, #15
 8003506:	fa0e fe0b 	lsl.w	lr, lr, fp
 800350a:	ea27 0e0e 	bic.w	lr, r7, lr
 800350e:	690f      	ldr	r7, [r1, #16]
 8003510:	fa07 f70b 	lsl.w	r7, r7, fp
 8003514:	ea47 070e 	orr.w	r7, r7, lr
 8003518:	f8ca 7020 	str.w	r7, [sl, #32]
 800351c:	e001      	b.n	8003522 <HAL_GPIO_Init+0xb2>
 800351e:	2d03      	cmp	r5, #3
 8003520:	d1da      	bne.n	80034d8 <HAL_GPIO_Init+0x68>
 8003522:	6807      	ldr	r7, [r0, #0]
 8003524:	fa05 f508 	lsl.w	r5, r5, r8
 8003528:	ea07 070c 	and.w	r7, r7, ip
 800352c:	433d      	orrs	r5, r7
 800352e:	f416 3f40 	tst.w	r6, #196608	; 0x30000
 8003532:	6005      	str	r5, [r0, #0]
 8003534:	d055      	beq.n	80035e2 <HAL_GPIO_Init+0x172>
 8003536:	f8d9 5060 	ldr.w	r5, [r9, #96]	; 0x60
 800353a:	f045 0501 	orr.w	r5, r5, #1
 800353e:	f8c9 5060 	str.w	r5, [r9, #96]	; 0x60
 8003542:	f8d9 5060 	ldr.w	r5, [r9, #96]	; 0x60
 8003546:	f023 0703 	bic.w	r7, r3, #3
 800354a:	f107 4780 	add.w	r7, r7, #1073741824	; 0x40000000
 800354e:	f005 0501 	and.w	r5, r5, #1
 8003552:	f507 3780 	add.w	r7, r7, #65536	; 0x10000
 8003556:	9501      	str	r5, [sp, #4]
 8003558:	f003 0e03 	and.w	lr, r3, #3
 800355c:	9d01      	ldr	r5, [sp, #4]
 800355e:	68bd      	ldr	r5, [r7, #8]
 8003560:	ea4f 0e8e 	mov.w	lr, lr, lsl #2
 8003564:	f04f 0c0f 	mov.w	ip, #15
 8003568:	fa0c fc0e 	lsl.w	ip, ip, lr
 800356c:	f1b0 4f90 	cmp.w	r0, #1207959552	; 0x48000000
 8003570:	ea25 0c0c 	bic.w	ip, r5, ip
 8003574:	d037      	beq.n	80035e6 <HAL_GPIO_Init+0x176>
 8003576:	4d22      	ldr	r5, [pc, #136]	; (8003600 <HAL_GPIO_Init+0x190>)
 8003578:	42a8      	cmp	r0, r5
 800357a:	d036      	beq.n	80035ea <HAL_GPIO_Init+0x17a>
 800357c:	f505 6580 	add.w	r5, r5, #1024	; 0x400
 8003580:	42a8      	cmp	r0, r5
 8003582:	d034      	beq.n	80035ee <HAL_GPIO_Init+0x17e>
 8003584:	f505 6580 	add.w	r5, r5, #1024	; 0x400
 8003588:	42a8      	cmp	r0, r5
 800358a:	d032      	beq.n	80035f2 <HAL_GPIO_Init+0x182>
 800358c:	f505 6580 	add.w	r5, r5, #1024	; 0x400
 8003590:	42a8      	cmp	r0, r5
 8003592:	d030      	beq.n	80035f6 <HAL_GPIO_Init+0x186>
 8003594:	f505 6580 	add.w	r5, r5, #1024	; 0x400
 8003598:	42a8      	cmp	r0, r5
 800359a:	bf0c      	ite	eq
 800359c:	2505      	moveq	r5, #5
 800359e:	2506      	movne	r5, #6
 80035a0:	fa05 f50e 	lsl.w	r5, r5, lr
 80035a4:	ea45 050c 	orr.w	r5, r5, ip
 80035a8:	60bd      	str	r5, [r7, #8]
 80035aa:	68a5      	ldr	r5, [r4, #8]
 80035ac:	43d7      	mvns	r7, r2
 80035ae:	f416 1f80 	tst.w	r6, #1048576	; 0x100000
 80035b2:	bf0c      	ite	eq
 80035b4:	403d      	andeq	r5, r7
 80035b6:	4315      	orrne	r5, r2
 80035b8:	60a5      	str	r5, [r4, #8]
 80035ba:	68e5      	ldr	r5, [r4, #12]
 80035bc:	f416 1f00 	tst.w	r6, #2097152	; 0x200000
 80035c0:	bf0c      	ite	eq
 80035c2:	403d      	andeq	r5, r7
 80035c4:	4315      	orrne	r5, r2
 80035c6:	60e5      	str	r5, [r4, #12]
 80035c8:	6865      	ldr	r5, [r4, #4]
 80035ca:	f416 3f00 	tst.w	r6, #131072	; 0x20000
 80035ce:	bf0c      	ite	eq
 80035d0:	403d      	andeq	r5, r7
 80035d2:	4315      	orrne	r5, r2
 80035d4:	6065      	str	r5, [r4, #4]
 80035d6:	6825      	ldr	r5, [r4, #0]
 80035d8:	03f6      	lsls	r6, r6, #15
 80035da:	bf54      	ite	pl
 80035dc:	403d      	andpl	r5, r7
 80035de:	4315      	orrmi	r5, r2
 80035e0:	6025      	str	r5, [r4, #0]
 80035e2:	3301      	adds	r3, #1
 80035e4:	e74a      	b.n	800347c <HAL_GPIO_Init+0xc>
 80035e6:	2500      	movs	r5, #0
 80035e8:	e7da      	b.n	80035a0 <HAL_GPIO_Init+0x130>
 80035ea:	2501      	movs	r5, #1
 80035ec:	e7d8      	b.n	80035a0 <HAL_GPIO_Init+0x130>
 80035ee:	2502      	movs	r5, #2
 80035f0:	e7d6      	b.n	80035a0 <HAL_GPIO_Init+0x130>
 80035f2:	2503      	movs	r5, #3
 80035f4:	e7d4      	b.n	80035a0 <HAL_GPIO_Init+0x130>
 80035f6:	2504      	movs	r5, #4
 80035f8:	e7d2      	b.n	80035a0 <HAL_GPIO_Init+0x130>
 80035fa:	bf00      	nop
 80035fc:	40010400 	.word	0x40010400
 8003600:	48000400 	.word	0x48000400
 8003604:	40021000 	.word	0x40021000

08003608 <HAL_GPIO_WritePin>:
 8003608:	b10a      	cbz	r2, 800360e <HAL_GPIO_WritePin+0x6>
 800360a:	6181      	str	r1, [r0, #24]
 800360c:	4770      	bx	lr
 800360e:	6281      	str	r1, [r0, #40]	; 0x28
 8003610:	4770      	bx	lr
	...

08003614 <HAL_PWREx_ControlVoltageScaling>:
 8003614:	4b29      	ldr	r3, [pc, #164]	; (80036bc <HAL_PWREx_ControlVoltageScaling+0xa8>)
 8003616:	681a      	ldr	r2, [r3, #0]
 8003618:	bb30      	cbnz	r0, 8003668 <HAL_PWREx_ControlVoltageScaling+0x54>
 800361a:	f402 62c0 	and.w	r2, r2, #1536	; 0x600
 800361e:	f5b2 6f80 	cmp.w	r2, #1024	; 0x400
 8003622:	f8d3 2080 	ldr.w	r2, [r3, #128]	; 0x80
 8003626:	f422 7280 	bic.w	r2, r2, #256	; 0x100
 800362a:	f8c3 2080 	str.w	r2, [r3, #128]	; 0x80
 800362e:	d11a      	bne.n	8003666 <HAL_PWREx_ControlVoltageScaling+0x52>
 8003630:	681a      	ldr	r2, [r3, #0]
 8003632:	f422 62c0 	bic.w	r2, r2, #1536	; 0x600
 8003636:	f442 7200 	orr.w	r2, r2, #512	; 0x200
 800363a:	601a      	str	r2, [r3, #0]
 800363c:	4a20      	ldr	r2, [pc, #128]	; (80036c0 <HAL_PWREx_ControlVoltageScaling+0xac>)
 800363e:	6812      	ldr	r2, [r2, #0]
 8003640:	2132      	movs	r1, #50	; 0x32
 8003642:	434a      	muls	r2, r1
 8003644:	491f      	ldr	r1, [pc, #124]	; (80036c4 <HAL_PWREx_ControlVoltageScaling+0xb0>)
 8003646:	fbb2 f2f1 	udiv	r2, r2, r1
 800364a:	3201      	adds	r2, #1
 800364c:	6959      	ldr	r1, [r3, #20]
 800364e:	0549      	lsls	r1, r1, #21
 8003650:	d500      	bpl.n	8003654 <HAL_PWREx_ControlVoltageScaling+0x40>
 8003652:	b922      	cbnz	r2, 800365e <HAL_PWREx_ControlVoltageScaling+0x4a>
 8003654:	695b      	ldr	r3, [r3, #20]
 8003656:	0558      	lsls	r0, r3, #21
 8003658:	d403      	bmi.n	8003662 <HAL_PWREx_ControlVoltageScaling+0x4e>
 800365a:	2000      	movs	r0, #0
 800365c:	4770      	bx	lr
 800365e:	3a01      	subs	r2, #1
 8003660:	e7f4      	b.n	800364c <HAL_PWREx_ControlVoltageScaling+0x38>
 8003662:	2003      	movs	r0, #3
 8003664:	4770      	bx	lr
 8003666:	4770      	bx	lr
 8003668:	f5b0 7f00 	cmp.w	r0, #512	; 0x200
 800366c:	d11f      	bne.n	80036ae <HAL_PWREx_ControlVoltageScaling+0x9a>
 800366e:	f402 62c0 	and.w	r2, r2, #1536	; 0x600
 8003672:	f5b2 6f80 	cmp.w	r2, #1024	; 0x400
 8003676:	f8d3 2080 	ldr.w	r2, [r3, #128]	; 0x80
 800367a:	f442 7280 	orr.w	r2, r2, #256	; 0x100
 800367e:	f8c3 2080 	str.w	r2, [r3, #128]	; 0x80
 8003682:	d1ea      	bne.n	800365a <HAL_PWREx_ControlVoltageScaling+0x46>
 8003684:	681a      	ldr	r2, [r3, #0]
 8003686:	f422 62c0 	bic.w	r2, r2, #1536	; 0x600
 800368a:	f442 7200 	orr.w	r2, r2, #512	; 0x200
 800368e:	601a      	str	r2, [r3, #0]
 8003690:	4a0b      	ldr	r2, [pc, #44]	; (80036c0 <HAL_PWREx_ControlVoltageScaling+0xac>)
 8003692:	6812      	ldr	r2, [r2, #0]
 8003694:	2132      	movs	r1, #50	; 0x32
 8003696:	434a      	muls	r2, r1
 8003698:	490a      	ldr	r1, [pc, #40]	; (80036c4 <HAL_PWREx_ControlVoltageScaling+0xb0>)
 800369a:	fbb2 f2f1 	udiv	r2, r2, r1
 800369e:	3201      	adds	r2, #1
 80036a0:	6959      	ldr	r1, [r3, #20]
 80036a2:	0549      	lsls	r1, r1, #21
 80036a4:	d5d6      	bpl.n	8003654 <HAL_PWREx_ControlVoltageScaling+0x40>
 80036a6:	2a00      	cmp	r2, #0
 80036a8:	d0d4      	beq.n	8003654 <HAL_PWREx_ControlVoltageScaling+0x40>
 80036aa:	3a01      	subs	r2, #1
 80036ac:	e7f8      	b.n	80036a0 <HAL_PWREx_ControlVoltageScaling+0x8c>
 80036ae:	f422 62c0 	bic.w	r2, r2, #1536	; 0x600
 80036b2:	f442 6280 	orr.w	r2, r2, #1024	; 0x400
 80036b6:	601a      	str	r2, [r3, #0]
 80036b8:	e7cf      	b.n	800365a <HAL_PWREx_ControlVoltageScaling+0x46>
 80036ba:	bf00      	nop
 80036bc:	40007000 	.word	0x40007000
 80036c0:	20000004 	.word	0x20000004
 80036c4:	000f4240 	.word	0x000f4240

080036c8 <HAL_PWREx_DisableUCPDDeadBattery>:
 80036c8:	4a02      	ldr	r2, [pc, #8]	; (80036d4 <HAL_PWREx_DisableUCPDDeadBattery+0xc>)
 80036ca:	6893      	ldr	r3, [r2, #8]
 80036cc:	f443 4380 	orr.w	r3, r3, #16384	; 0x4000
 80036d0:	6093      	str	r3, [r2, #8]
 80036d2:	4770      	bx	lr
 80036d4:	40007000 	.word	0x40007000

080036d8 <HAL_RCC_OscConfig>:
 80036d8:	e92d 41f3 	stmdb	sp!, {r0, r1, r4, r5, r6, r7, r8, lr}
 80036dc:	4604      	mov	r4, r0
 80036de:	b340      	cbz	r0, 8003732 <HAL_RCC_OscConfig+0x5a>
 80036e0:	6803      	ldr	r3, [r0, #0]
 80036e2:	07df      	lsls	r7, r3, #31
 80036e4:	d414      	bmi.n	8003710 <HAL_RCC_OscConfig+0x38>
 80036e6:	6823      	ldr	r3, [r4, #0]
 80036e8:	079e      	lsls	r6, r3, #30
 80036ea:	d45b      	bmi.n	80037a4 <HAL_RCC_OscConfig+0xcc>
 80036ec:	6823      	ldr	r3, [r4, #0]
 80036ee:	071e      	lsls	r6, r3, #28
 80036f0:	f100 80a4 	bmi.w	800383c <HAL_RCC_OscConfig+0x164>
 80036f4:	6823      	ldr	r3, [r4, #0]
 80036f6:	075d      	lsls	r5, r3, #29
 80036f8:	f100 80cb 	bmi.w	8003892 <HAL_RCC_OscConfig+0x1ba>
 80036fc:	6823      	ldr	r3, [r4, #0]
 80036fe:	069b      	lsls	r3, r3, #26
 8003700:	f100 8132 	bmi.w	8003968 <HAL_RCC_OscConfig+0x290>
 8003704:	69e0      	ldr	r0, [r4, #28]
 8003706:	2800      	cmp	r0, #0
 8003708:	f040 8160 	bne.w	80039cc <HAL_RCC_OscConfig+0x2f4>
 800370c:	2000      	movs	r0, #0
 800370e:	e028      	b.n	8003762 <HAL_RCC_OscConfig+0x8a>
 8003710:	4da1      	ldr	r5, [pc, #644]	; (8003998 <HAL_RCC_OscConfig+0x2c0>)
 8003712:	68ab      	ldr	r3, [r5, #8]
 8003714:	68ea      	ldr	r2, [r5, #12]
 8003716:	f003 030c 	and.w	r3, r3, #12
 800371a:	2b0c      	cmp	r3, #12
 800371c:	d10b      	bne.n	8003736 <HAL_RCC_OscConfig+0x5e>
 800371e:	f002 0303 	and.w	r3, r2, #3
 8003722:	2b03      	cmp	r3, #3
 8003724:	d109      	bne.n	800373a <HAL_RCC_OscConfig+0x62>
 8003726:	682b      	ldr	r3, [r5, #0]
 8003728:	039d      	lsls	r5, r3, #14
 800372a:	d5dc      	bpl.n	80036e6 <HAL_RCC_OscConfig+0xe>
 800372c:	6863      	ldr	r3, [r4, #4]
 800372e:	2b00      	cmp	r3, #0
 8003730:	d1d9      	bne.n	80036e6 <HAL_RCC_OscConfig+0xe>
 8003732:	2001      	movs	r0, #1
 8003734:	e015      	b.n	8003762 <HAL_RCC_OscConfig+0x8a>
 8003736:	2b08      	cmp	r3, #8
 8003738:	e7f4      	b.n	8003724 <HAL_RCC_OscConfig+0x4c>
 800373a:	6863      	ldr	r3, [r4, #4]
 800373c:	f5b3 3f80 	cmp.w	r3, #65536	; 0x10000
 8003740:	d112      	bne.n	8003768 <HAL_RCC_OscConfig+0x90>
 8003742:	682b      	ldr	r3, [r5, #0]
 8003744:	f443 3380 	orr.w	r3, r3, #65536	; 0x10000
 8003748:	602b      	str	r3, [r5, #0]
 800374a:	f7fe fb0f 	bl	8001d6c <HAL_GetTick>
 800374e:	4606      	mov	r6, r0
 8003750:	682b      	ldr	r3, [r5, #0]
 8003752:	0398      	lsls	r0, r3, #14
 8003754:	d4c7      	bmi.n	80036e6 <HAL_RCC_OscConfig+0xe>
 8003756:	f7fe fb09 	bl	8001d6c <HAL_GetTick>
 800375a:	1b80      	subs	r0, r0, r6
 800375c:	2864      	cmp	r0, #100	; 0x64
 800375e:	d9f7      	bls.n	8003750 <HAL_RCC_OscConfig+0x78>
 8003760:	2003      	movs	r0, #3
 8003762:	b002      	add	sp, #8
 8003764:	e8bd 81f0 	ldmia.w	sp!, {r4, r5, r6, r7, r8, pc}
 8003768:	f5b3 2fa0 	cmp.w	r3, #327680	; 0x50000
 800376c:	d104      	bne.n	8003778 <HAL_RCC_OscConfig+0xa0>
 800376e:	682b      	ldr	r3, [r5, #0]
 8003770:	f443 2380 	orr.w	r3, r3, #262144	; 0x40000
 8003774:	602b      	str	r3, [r5, #0]
 8003776:	e7e4      	b.n	8003742 <HAL_RCC_OscConfig+0x6a>
 8003778:	682a      	ldr	r2, [r5, #0]
 800377a:	f422 3280 	bic.w	r2, r2, #65536	; 0x10000
 800377e:	602a      	str	r2, [r5, #0]
 8003780:	682a      	ldr	r2, [r5, #0]
 8003782:	f422 2280 	bic.w	r2, r2, #262144	; 0x40000
 8003786:	602a      	str	r2, [r5, #0]
 8003788:	2b00      	cmp	r3, #0
 800378a:	d1de      	bne.n	800374a <HAL_RCC_OscConfig+0x72>
 800378c:	f7fe faee 	bl	8001d6c <HAL_GetTick>
 8003790:	4606      	mov	r6, r0
 8003792:	682b      	ldr	r3, [r5, #0]
 8003794:	0399      	lsls	r1, r3, #14
 8003796:	d5a6      	bpl.n	80036e6 <HAL_RCC_OscConfig+0xe>
 8003798:	f7fe fae8 	bl	8001d6c <HAL_GetTick>
 800379c:	1b80      	subs	r0, r0, r6
 800379e:	2864      	cmp	r0, #100	; 0x64
 80037a0:	d9f7      	bls.n	8003792 <HAL_RCC_OscConfig+0xba>
 80037a2:	e7dd      	b.n	8003760 <HAL_RCC_OscConfig+0x88>
 80037a4:	4d7c      	ldr	r5, [pc, #496]	; (8003998 <HAL_RCC_OscConfig+0x2c0>)
 80037a6:	68ab      	ldr	r3, [r5, #8]
 80037a8:	68ea      	ldr	r2, [r5, #12]
 80037aa:	f003 030c 	and.w	r3, r3, #12
 80037ae:	2b0c      	cmp	r3, #12
 80037b0:	d117      	bne.n	80037e2 <HAL_RCC_OscConfig+0x10a>
 80037b2:	f002 0303 	and.w	r3, r2, #3
 80037b6:	2b02      	cmp	r3, #2
 80037b8:	d115      	bne.n	80037e6 <HAL_RCC_OscConfig+0x10e>
 80037ba:	682b      	ldr	r3, [r5, #0]
 80037bc:	055a      	lsls	r2, r3, #21
 80037be:	d502      	bpl.n	80037c6 <HAL_RCC_OscConfig+0xee>
 80037c0:	68e3      	ldr	r3, [r4, #12]
 80037c2:	2b00      	cmp	r3, #0
 80037c4:	d0b5      	beq.n	8003732 <HAL_RCC_OscConfig+0x5a>
 80037c6:	686b      	ldr	r3, [r5, #4]
 80037c8:	6922      	ldr	r2, [r4, #16]
 80037ca:	f023 43fe 	bic.w	r3, r3, #2130706432	; 0x7f000000
 80037ce:	ea43 6302 	orr.w	r3, r3, r2, lsl #24
 80037d2:	606b      	str	r3, [r5, #4]
 80037d4:	4b71      	ldr	r3, [pc, #452]	; (800399c <HAL_RCC_OscConfig+0x2c4>)
 80037d6:	6818      	ldr	r0, [r3, #0]
 80037d8:	f7fe fa86 	bl	8001ce8 <HAL_InitTick>
 80037dc:	2800      	cmp	r0, #0
 80037de:	d085      	beq.n	80036ec <HAL_RCC_OscConfig+0x14>
 80037e0:	e7a7      	b.n	8003732 <HAL_RCC_OscConfig+0x5a>
 80037e2:	2b04      	cmp	r3, #4
 80037e4:	e7e8      	b.n	80037b8 <HAL_RCC_OscConfig+0xe0>
 80037e6:	68e3      	ldr	r3, [r4, #12]
 80037e8:	b1bb      	cbz	r3, 800381a <HAL_RCC_OscConfig+0x142>
 80037ea:	682b      	ldr	r3, [r5, #0]
 80037ec:	f443 7380 	orr.w	r3, r3, #256	; 0x100
 80037f0:	602b      	str	r3, [r5, #0]
 80037f2:	f7fe fabb 	bl	8001d6c <HAL_GetTick>
 80037f6:	4606      	mov	r6, r0
 80037f8:	682b      	ldr	r3, [r5, #0]
 80037fa:	055b      	lsls	r3, r3, #21
 80037fc:	d507      	bpl.n	800380e <HAL_RCC_OscConfig+0x136>
 80037fe:	686b      	ldr	r3, [r5, #4]
 8003800:	6922      	ldr	r2, [r4, #16]
 8003802:	f023 43fe 	bic.w	r3, r3, #2130706432	; 0x7f000000
 8003806:	ea43 6302 	orr.w	r3, r3, r2, lsl #24
 800380a:	606b      	str	r3, [r5, #4]
 800380c:	e76e      	b.n	80036ec <HAL_RCC_OscConfig+0x14>
 800380e:	f7fe faad 	bl	8001d6c <HAL_GetTick>
 8003812:	1b80      	subs	r0, r0, r6
 8003814:	2802      	cmp	r0, #2
 8003816:	d9ef      	bls.n	80037f8 <HAL_RCC_OscConfig+0x120>
 8003818:	e7a2      	b.n	8003760 <HAL_RCC_OscConfig+0x88>
 800381a:	682b      	ldr	r3, [r5, #0]
 800381c:	f423 7380 	bic.w	r3, r3, #256	; 0x100
 8003820:	602b      	str	r3, [r5, #0]
 8003822:	f7fe faa3 	bl	8001d6c <HAL_GetTick>
 8003826:	4606      	mov	r6, r0
 8003828:	682b      	ldr	r3, [r5, #0]
 800382a:	055f      	lsls	r7, r3, #21
 800382c:	f57f af5e 	bpl.w	80036ec <HAL_RCC_OscConfig+0x14>
 8003830:	f7fe fa9c 	bl	8001d6c <HAL_GetTick>
 8003834:	1b80      	subs	r0, r0, r6
 8003836:	2802      	cmp	r0, #2
 8003838:	d9f6      	bls.n	8003828 <HAL_RCC_OscConfig+0x150>
 800383a:	e791      	b.n	8003760 <HAL_RCC_OscConfig+0x88>
 800383c:	6963      	ldr	r3, [r4, #20]
 800383e:	4d56      	ldr	r5, [pc, #344]	; (8003998 <HAL_RCC_OscConfig+0x2c0>)
 8003840:	b19b      	cbz	r3, 800386a <HAL_RCC_OscConfig+0x192>
 8003842:	f8d5 3094 	ldr.w	r3, [r5, #148]	; 0x94
 8003846:	f043 0301 	orr.w	r3, r3, #1
 800384a:	f8c5 3094 	str.w	r3, [r5, #148]	; 0x94
 800384e:	f7fe fa8d 	bl	8001d6c <HAL_GetTick>
 8003852:	4606      	mov	r6, r0
 8003854:	f8d5 3094 	ldr.w	r3, [r5, #148]	; 0x94
 8003858:	0798      	lsls	r0, r3, #30
 800385a:	f53f af4b 	bmi.w	80036f4 <HAL_RCC_OscConfig+0x1c>
 800385e:	f7fe fa85 	bl	8001d6c <HAL_GetTick>
 8003862:	1b80      	subs	r0, r0, r6
 8003864:	2802      	cmp	r0, #2
 8003866:	d9f5      	bls.n	8003854 <HAL_RCC_OscConfig+0x17c>
 8003868:	e77a      	b.n	8003760 <HAL_RCC_OscConfig+0x88>
 800386a:	f8d5 3094 	ldr.w	r3, [r5, #148]	; 0x94
 800386e:	f023 0301 	bic.w	r3, r3, #1
 8003872:	f8c5 3094 	str.w	r3, [r5, #148]	; 0x94
 8003876:	f7fe fa79 	bl	8001d6c <HAL_GetTick>
 800387a:	4606      	mov	r6, r0
 800387c:	f8d5 3094 	ldr.w	r3, [r5, #148]	; 0x94
 8003880:	0799      	lsls	r1, r3, #30
 8003882:	f57f af37 	bpl.w	80036f4 <HAL_RCC_OscConfig+0x1c>
 8003886:	f7fe fa71 	bl	8001d6c <HAL_GetTick>
 800388a:	1b80      	subs	r0, r0, r6
 800388c:	2802      	cmp	r0, #2
 800388e:	d9f5      	bls.n	800387c <HAL_RCC_OscConfig+0x1a4>
 8003890:	e766      	b.n	8003760 <HAL_RCC_OscConfig+0x88>
 8003892:	4d41      	ldr	r5, [pc, #260]	; (8003998 <HAL_RCC_OscConfig+0x2c0>)
 8003894:	6dab      	ldr	r3, [r5, #88]	; 0x58
 8003896:	00da      	lsls	r2, r3, #3
 8003898:	d427      	bmi.n	80038ea <HAL_RCC_OscConfig+0x212>
 800389a:	6dab      	ldr	r3, [r5, #88]	; 0x58
 800389c:	f043 5380 	orr.w	r3, r3, #268435456	; 0x10000000
 80038a0:	65ab      	str	r3, [r5, #88]	; 0x58
 80038a2:	6dab      	ldr	r3, [r5, #88]	; 0x58
 80038a4:	f003 5380 	and.w	r3, r3, #268435456	; 0x10000000
 80038a8:	9301      	str	r3, [sp, #4]
 80038aa:	9b01      	ldr	r3, [sp, #4]
 80038ac:	2701      	movs	r7, #1
 80038ae:	4e3c      	ldr	r6, [pc, #240]	; (80039a0 <HAL_RCC_OscConfig+0x2c8>)
 80038b0:	6833      	ldr	r3, [r6, #0]
 80038b2:	05db      	lsls	r3, r3, #23
 80038b4:	d51b      	bpl.n	80038ee <HAL_RCC_OscConfig+0x216>
 80038b6:	68a3      	ldr	r3, [r4, #8]
 80038b8:	2b01      	cmp	r3, #1
 80038ba:	d129      	bne.n	8003910 <HAL_RCC_OscConfig+0x238>
 80038bc:	f8d5 3090 	ldr.w	r3, [r5, #144]	; 0x90
 80038c0:	f043 0301 	orr.w	r3, r3, #1
 80038c4:	f8c5 3090 	str.w	r3, [r5, #144]	; 0x90
 80038c8:	f7fe fa50 	bl	8001d6c <HAL_GetTick>
 80038cc:	f241 3888 	movw	r8, #5000	; 0x1388
 80038d0:	4606      	mov	r6, r0
 80038d2:	f8d5 3090 	ldr.w	r3, [r5, #144]	; 0x90
 80038d6:	0799      	lsls	r1, r3, #30
 80038d8:	d540      	bpl.n	800395c <HAL_RCC_OscConfig+0x284>
 80038da:	2f00      	cmp	r7, #0
 80038dc:	f43f af0e 	beq.w	80036fc <HAL_RCC_OscConfig+0x24>
 80038e0:	6dab      	ldr	r3, [r5, #88]	; 0x58
 80038e2:	f023 5380 	bic.w	r3, r3, #268435456	; 0x10000000
 80038e6:	65ab      	str	r3, [r5, #88]	; 0x58
 80038e8:	e708      	b.n	80036fc <HAL_RCC_OscConfig+0x24>
 80038ea:	2700      	movs	r7, #0
 80038ec:	e7df      	b.n	80038ae <HAL_RCC_OscConfig+0x1d6>
 80038ee:	6833      	ldr	r3, [r6, #0]
 80038f0:	f443 7380 	orr.w	r3, r3, #256	; 0x100
 80038f4:	6033      	str	r3, [r6, #0]
 80038f6:	f7fe fa39 	bl	8001d6c <HAL_GetTick>
 80038fa:	4680      	mov	r8, r0
 80038fc:	6833      	ldr	r3, [r6, #0]
 80038fe:	05d8      	lsls	r0, r3, #23
 8003900:	d4d9      	bmi.n	80038b6 <HAL_RCC_OscConfig+0x1de>
 8003902:	f7fe fa33 	bl	8001d6c <HAL_GetTick>
 8003906:	eba0 0008 	sub.w	r0, r0, r8
 800390a:	2802      	cmp	r0, #2
 800390c:	d9f6      	bls.n	80038fc <HAL_RCC_OscConfig+0x224>
 800390e:	e727      	b.n	8003760 <HAL_RCC_OscConfig+0x88>
 8003910:	2b05      	cmp	r3, #5
 8003912:	d106      	bne.n	8003922 <HAL_RCC_OscConfig+0x24a>
 8003914:	f8d5 3090 	ldr.w	r3, [r5, #144]	; 0x90
 8003918:	f043 0304 	orr.w	r3, r3, #4
 800391c:	f8c5 3090 	str.w	r3, [r5, #144]	; 0x90
 8003920:	e7cc      	b.n	80038bc <HAL_RCC_OscConfig+0x1e4>
 8003922:	f8d5 2090 	ldr.w	r2, [r5, #144]	; 0x90
 8003926:	f022 0201 	bic.w	r2, r2, #1
 800392a:	f8c5 2090 	str.w	r2, [r5, #144]	; 0x90
 800392e:	f8d5 2090 	ldr.w	r2, [r5, #144]	; 0x90
 8003932:	f022 0204 	bic.w	r2, r2, #4
 8003936:	f8c5 2090 	str.w	r2, [r5, #144]	; 0x90
 800393a:	2b00      	cmp	r3, #0
 800393c:	d1c4      	bne.n	80038c8 <HAL_RCC_OscConfig+0x1f0>
 800393e:	f7fe fa15 	bl	8001d6c <HAL_GetTick>
 8003942:	f241 3888 	movw	r8, #5000	; 0x1388
 8003946:	4606      	mov	r6, r0
 8003948:	f8d5 3090 	ldr.w	r3, [r5, #144]	; 0x90
 800394c:	079a      	lsls	r2, r3, #30
 800394e:	d5c4      	bpl.n	80038da <HAL_RCC_OscConfig+0x202>
 8003950:	f7fe fa0c 	bl	8001d6c <HAL_GetTick>
 8003954:	1b80      	subs	r0, r0, r6
 8003956:	4540      	cmp	r0, r8
 8003958:	d9f6      	bls.n	8003948 <HAL_RCC_OscConfig+0x270>
 800395a:	e701      	b.n	8003760 <HAL_RCC_OscConfig+0x88>
 800395c:	f7fe fa06 	bl	8001d6c <HAL_GetTick>
 8003960:	1b80      	subs	r0, r0, r6
 8003962:	4540      	cmp	r0, r8
 8003964:	d9b5      	bls.n	80038d2 <HAL_RCC_OscConfig+0x1fa>
 8003966:	e6fb      	b.n	8003760 <HAL_RCC_OscConfig+0x88>
 8003968:	69a3      	ldr	r3, [r4, #24]
 800396a:	4d0b      	ldr	r5, [pc, #44]	; (8003998 <HAL_RCC_OscConfig+0x2c0>)
 800396c:	b1d3      	cbz	r3, 80039a4 <HAL_RCC_OscConfig+0x2cc>
 800396e:	f8d5 3098 	ldr.w	r3, [r5, #152]	; 0x98
 8003972:	f043 0301 	orr.w	r3, r3, #1
 8003976:	f8c5 3098 	str.w	r3, [r5, #152]	; 0x98
 800397a:	f7fe f9f7 	bl	8001d6c <HAL_GetTick>
 800397e:	4606      	mov	r6, r0
 8003980:	f8d5 3098 	ldr.w	r3, [r5, #152]	; 0x98
 8003984:	079f      	lsls	r7, r3, #30
 8003986:	f53f aebd 	bmi.w	8003704 <HAL_RCC_OscConfig+0x2c>
 800398a:	f7fe f9ef 	bl	8001d6c <HAL_GetTick>
 800398e:	1b80      	subs	r0, r0, r6
 8003990:	2802      	cmp	r0, #2
 8003992:	d9f5      	bls.n	8003980 <HAL_RCC_OscConfig+0x2a8>
 8003994:	e6e4      	b.n	8003760 <HAL_RCC_OscConfig+0x88>
 8003996:	bf00      	nop
 8003998:	40021000 	.word	0x40021000
 800399c:	2000000c 	.word	0x2000000c
 80039a0:	40007000 	.word	0x40007000
 80039a4:	f8d5 3098 	ldr.w	r3, [r5, #152]	; 0x98
 80039a8:	f023 0301 	bic.w	r3, r3, #1
 80039ac:	f8c5 3098 	str.w	r3, [r5, #152]	; 0x98
 80039b0:	f7fe f9dc 	bl	8001d6c <HAL_GetTick>
 80039b4:	4606      	mov	r6, r0
 80039b6:	f8d5 3098 	ldr.w	r3, [r5, #152]	; 0x98
 80039ba:	0798      	lsls	r0, r3, #30
 80039bc:	f57f aea2 	bpl.w	8003704 <HAL_RCC_OscConfig+0x2c>
 80039c0:	f7fe f9d4 	bl	8001d6c <HAL_GetTick>
 80039c4:	1b80      	subs	r0, r0, r6
 80039c6:	2802      	cmp	r0, #2
 80039c8:	d9f5      	bls.n	80039b6 <HAL_RCC_OscConfig+0x2de>
 80039ca:	e6c9      	b.n	8003760 <HAL_RCC_OscConfig+0x88>
 80039cc:	4d48      	ldr	r5, [pc, #288]	; (8003af0 <HAL_RCC_OscConfig+0x418>)
 80039ce:	68ab      	ldr	r3, [r5, #8]
 80039d0:	f003 030c 	and.w	r3, r3, #12
 80039d4:	2b0c      	cmp	r3, #12
 80039d6:	d057      	beq.n	8003a88 <HAL_RCC_OscConfig+0x3b0>
 80039d8:	682b      	ldr	r3, [r5, #0]
 80039da:	2802      	cmp	r0, #2
 80039dc:	f023 7380 	bic.w	r3, r3, #16777216	; 0x1000000
 80039e0:	602b      	str	r3, [r5, #0]
 80039e2:	d13a      	bne.n	8003a5a <HAL_RCC_OscConfig+0x382>
 80039e4:	f7fe f9c2 	bl	8001d6c <HAL_GetTick>
 80039e8:	4606      	mov	r6, r0
 80039ea:	682b      	ldr	r3, [r5, #0]
 80039ec:	0199      	lsls	r1, r3, #6
 80039ee:	d42e      	bmi.n	8003a4e <HAL_RCC_OscConfig+0x376>
 80039f0:	68ea      	ldr	r2, [r5, #12]
 80039f2:	4b40      	ldr	r3, [pc, #256]	; (8003af4 <HAL_RCC_OscConfig+0x41c>)
 80039f4:	4013      	ands	r3, r2
 80039f6:	6a22      	ldr	r2, [r4, #32]
 80039f8:	4313      	orrs	r3, r2
 80039fa:	6aa2      	ldr	r2, [r4, #40]	; 0x28
 80039fc:	ea43 2302 	orr.w	r3, r3, r2, lsl #8
 8003a00:	6ae2      	ldr	r2, [r4, #44]	; 0x2c
 8003a02:	ea43 63c2 	orr.w	r3, r3, r2, lsl #27
 8003a06:	6a62      	ldr	r2, [r4, #36]	; 0x24
 8003a08:	3a01      	subs	r2, #1
 8003a0a:	ea43 1302 	orr.w	r3, r3, r2, lsl #4
 8003a0e:	6b22      	ldr	r2, [r4, #48]	; 0x30
 8003a10:	0852      	lsrs	r2, r2, #1
 8003a12:	3a01      	subs	r2, #1
 8003a14:	ea43 5342 	orr.w	r3, r3, r2, lsl #21
 8003a18:	6b62      	ldr	r2, [r4, #52]	; 0x34
 8003a1a:	0852      	lsrs	r2, r2, #1
 8003a1c:	3a01      	subs	r2, #1
 8003a1e:	ea43 6342 	orr.w	r3, r3, r2, lsl #25
 8003a22:	60eb      	str	r3, [r5, #12]
 8003a24:	682b      	ldr	r3, [r5, #0]
 8003a26:	f043 7380 	orr.w	r3, r3, #16777216	; 0x1000000
 8003a2a:	602b      	str	r3, [r5, #0]
 8003a2c:	68eb      	ldr	r3, [r5, #12]
 8003a2e:	f043 7380 	orr.w	r3, r3, #16777216	; 0x1000000
 8003a32:	60eb      	str	r3, [r5, #12]
 8003a34:	f7fe f99a 	bl	8001d6c <HAL_GetTick>
 8003a38:	4604      	mov	r4, r0
 8003a3a:	682b      	ldr	r3, [r5, #0]
 8003a3c:	019a      	lsls	r2, r3, #6
 8003a3e:	f53f ae65 	bmi.w	800370c <HAL_RCC_OscConfig+0x34>
 8003a42:	f7fe f993 	bl	8001d6c <HAL_GetTick>
 8003a46:	1b00      	subs	r0, r0, r4
 8003a48:	2802      	cmp	r0, #2
 8003a4a:	d9f6      	bls.n	8003a3a <HAL_RCC_OscConfig+0x362>
 8003a4c:	e688      	b.n	8003760 <HAL_RCC_OscConfig+0x88>
 8003a4e:	f7fe f98d 	bl	8001d6c <HAL_GetTick>
 8003a52:	1b80      	subs	r0, r0, r6
 8003a54:	2802      	cmp	r0, #2
 8003a56:	d9c8      	bls.n	80039ea <HAL_RCC_OscConfig+0x312>
 8003a58:	e682      	b.n	8003760 <HAL_RCC_OscConfig+0x88>
 8003a5a:	68eb      	ldr	r3, [r5, #12]
 8003a5c:	f023 0303 	bic.w	r3, r3, #3
 8003a60:	60eb      	str	r3, [r5, #12]
 8003a62:	68eb      	ldr	r3, [r5, #12]
 8003a64:	f023 7388 	bic.w	r3, r3, #17825792	; 0x1100000
 8003a68:	f423 3380 	bic.w	r3, r3, #65536	; 0x10000
 8003a6c:	60eb      	str	r3, [r5, #12]
 8003a6e:	f7fe f97d 	bl	8001d6c <HAL_GetTick>
 8003a72:	4604      	mov	r4, r0
 8003a74:	682b      	ldr	r3, [r5, #0]
 8003a76:	019b      	lsls	r3, r3, #6
 8003a78:	f57f ae48 	bpl.w	800370c <HAL_RCC_OscConfig+0x34>
 8003a7c:	f7fe f976 	bl	8001d6c <HAL_GetTick>
 8003a80:	1b00      	subs	r0, r0, r4
 8003a82:	2802      	cmp	r0, #2
 8003a84:	d9f6      	bls.n	8003a74 <HAL_RCC_OscConfig+0x39c>
 8003a86:	e66b      	b.n	8003760 <HAL_RCC_OscConfig+0x88>
 8003a88:	2801      	cmp	r0, #1
 8003a8a:	f43f ae6a 	beq.w	8003762 <HAL_RCC_OscConfig+0x8a>
 8003a8e:	68eb      	ldr	r3, [r5, #12]
 8003a90:	6a22      	ldr	r2, [r4, #32]
 8003a92:	f003 0103 	and.w	r1, r3, #3
 8003a96:	4291      	cmp	r1, r2
 8003a98:	f47f ae4b 	bne.w	8003732 <HAL_RCC_OscConfig+0x5a>
 8003a9c:	6a61      	ldr	r1, [r4, #36]	; 0x24
 8003a9e:	f003 02f0 	and.w	r2, r3, #240	; 0xf0
 8003aa2:	3901      	subs	r1, #1
 8003aa4:	ebb2 1f01 	cmp.w	r2, r1, lsl #4
 8003aa8:	f47f ae43 	bne.w	8003732 <HAL_RCC_OscConfig+0x5a>
 8003aac:	6aa1      	ldr	r1, [r4, #40]	; 0x28
 8003aae:	f403 42fe 	and.w	r2, r3, #32512	; 0x7f00
 8003ab2:	ebb2 2f01 	cmp.w	r2, r1, lsl #8
 8003ab6:	f47f ae3c 	bne.w	8003732 <HAL_RCC_OscConfig+0x5a>
 8003aba:	6ae1      	ldr	r1, [r4, #44]	; 0x2c
 8003abc:	f003 4278 	and.w	r2, r3, #4160749568	; 0xf8000000
 8003ac0:	ebb2 6fc1 	cmp.w	r2, r1, lsl #27
 8003ac4:	f47f ae35 	bne.w	8003732 <HAL_RCC_OscConfig+0x5a>
 8003ac8:	6b22      	ldr	r2, [r4, #48]	; 0x30
 8003aca:	0852      	lsrs	r2, r2, #1
 8003acc:	f403 01c0 	and.w	r1, r3, #6291456	; 0x600000
 8003ad0:	3a01      	subs	r2, #1
 8003ad2:	ebb1 5f42 	cmp.w	r1, r2, lsl #21
 8003ad6:	f47f ae2c 	bne.w	8003732 <HAL_RCC_OscConfig+0x5a>
 8003ada:	6b62      	ldr	r2, [r4, #52]	; 0x34
 8003adc:	0852      	lsrs	r2, r2, #1
 8003ade:	f003 63c0 	and.w	r3, r3, #100663296	; 0x6000000
 8003ae2:	3a01      	subs	r2, #1
 8003ae4:	ebb3 6f42 	cmp.w	r3, r2, lsl #25
 8003ae8:	f43f ae10 	beq.w	800370c <HAL_RCC_OscConfig+0x34>
 8003aec:	e621      	b.n	8003732 <HAL_RCC_OscConfig+0x5a>
 8003aee:	bf00      	nop
 8003af0:	40021000 	.word	0x40021000
 8003af4:	019f800c 	.word	0x019f800c

08003af8 <HAL_RCC_MCOConfig>:
 8003af8:	b5f0      	push	{r4, r5, r6, r7, lr}
 8003afa:	b087      	sub	sp, #28
 8003afc:	2302      	movs	r3, #2
 8003afe:	9302      	str	r3, [sp, #8]
 8003b00:	460e      	mov	r6, r1
 8003b02:	2300      	movs	r3, #0
 8003b04:	2103      	movs	r1, #3
 8003b06:	e9cd 3103 	strd	r3, r1, [sp, #12]
 8003b0a:	4d10      	ldr	r5, [pc, #64]	; (8003b4c <HAL_RCC_MCOConfig+0x54>)
 8003b0c:	4604      	mov	r4, r0
 8003b0e:	4617      	mov	r7, r2
 8003b10:	f3c0 4003 	ubfx	r0, r0, #16, #4
 8003b14:	6cea      	ldr	r2, [r5, #76]	; 0x4c
 8003b16:	2301      	movs	r3, #1
 8003b18:	4083      	lsls	r3, r0
 8003b1a:	4313      	orrs	r3, r2
 8003b1c:	64eb      	str	r3, [r5, #76]	; 0x4c
 8003b1e:	f500 1090 	add.w	r0, r0, #1179648	; 0x120000
 8003b22:	b2a3      	uxth	r3, r4
 8003b24:	9301      	str	r3, [sp, #4]
 8003b26:	0280      	lsls	r0, r0, #10
 8003b28:	f3c4 5307 	ubfx	r3, r4, #20, #8
 8003b2c:	a901      	add	r1, sp, #4
 8003b2e:	9305      	str	r3, [sp, #20]
 8003b30:	f7ff fc9e 	bl	8003470 <HAL_GPIO_Init>
 8003b34:	00e0      	lsls	r0, r4, #3
 8003b36:	d406      	bmi.n	8003b46 <HAL_RCC_MCOConfig+0x4e>
 8003b38:	68ab      	ldr	r3, [r5, #8]
 8003b3a:	f023 43fe 	bic.w	r3, r3, #2130706432	; 0x7f000000
 8003b3e:	ea43 0207 	orr.w	r2, r3, r7
 8003b42:	4332      	orrs	r2, r6
 8003b44:	60aa      	str	r2, [r5, #8]
 8003b46:	b007      	add	sp, #28
 8003b48:	bdf0      	pop	{r4, r5, r6, r7, pc}
 8003b4a:	bf00      	nop
 8003b4c:	40021000 	.word	0x40021000

08003b50 <HAL_RCC_GetSysClockFreq>:
 8003b50:	4b13      	ldr	r3, [pc, #76]	; (8003ba0 <HAL_RCC_GetSysClockFreq+0x50>)
 8003b52:	689a      	ldr	r2, [r3, #8]
 8003b54:	f002 020c 	and.w	r2, r2, #12
 8003b58:	2a04      	cmp	r2, #4
 8003b5a:	d01d      	beq.n	8003b98 <HAL_RCC_GetSysClockFreq+0x48>
 8003b5c:	689a      	ldr	r2, [r3, #8]
 8003b5e:	f002 020c 	and.w	r2, r2, #12
 8003b62:	2a08      	cmp	r2, #8
 8003b64:	d018      	beq.n	8003b98 <HAL_RCC_GetSysClockFreq+0x48>
 8003b66:	689a      	ldr	r2, [r3, #8]
 8003b68:	f002 020c 	and.w	r2, r2, #12
 8003b6c:	2a0c      	cmp	r2, #12
 8003b6e:	d115      	bne.n	8003b9c <HAL_RCC_GetSysClockFreq+0x4c>
 8003b70:	68da      	ldr	r2, [r3, #12]
 8003b72:	68d9      	ldr	r1, [r3, #12]
 8003b74:	68d8      	ldr	r0, [r3, #12]
 8003b76:	68db      	ldr	r3, [r3, #12]
 8003b78:	4a0a      	ldr	r2, [pc, #40]	; (8003ba4 <HAL_RCC_GetSysClockFreq+0x54>)
 8003b7a:	f3c3 6341 	ubfx	r3, r3, #25, #2
 8003b7e:	f3c1 1103 	ubfx	r1, r1, #4, #4
 8003b82:	f3c0 2006 	ubfx	r0, r0, #8, #7
 8003b86:	3301      	adds	r3, #1
 8003b88:	3101      	adds	r1, #1
 8003b8a:	005b      	lsls	r3, r3, #1
 8003b8c:	fbb2 f2f1 	udiv	r2, r2, r1
 8003b90:	4350      	muls	r0, r2
 8003b92:	fbb0 f0f3 	udiv	r0, r0, r3
 8003b96:	4770      	bx	lr
 8003b98:	4802      	ldr	r0, [pc, #8]	; (8003ba4 <HAL_RCC_GetSysClockFreq+0x54>)
 8003b9a:	4770      	bx	lr
 8003b9c:	2000      	movs	r0, #0
 8003b9e:	4770      	bx	lr
 8003ba0:	40021000 	.word	0x40021000
 8003ba4:	00f42400 	.word	0x00f42400

08003ba8 <HAL_RCC_ClockConfig>:
 8003ba8:	e92d 43f8 	stmdb	sp!, {r3, r4, r5, r6, r7, r8, r9, lr}
 8003bac:	460e      	mov	r6, r1
 8003bae:	4605      	mov	r5, r0
 8003bb0:	b910      	cbnz	r0, 8003bb8 <HAL_RCC_ClockConfig+0x10>
 8003bb2:	2001      	movs	r0, #1
 8003bb4:	e8bd 83f8 	ldmia.w	sp!, {r3, r4, r5, r6, r7, r8, r9, pc}
 8003bb8:	4a6a      	ldr	r2, [pc, #424]	; (8003d64 <HAL_RCC_ClockConfig+0x1bc>)
 8003bba:	6813      	ldr	r3, [r2, #0]
 8003bbc:	f003 030f 	and.w	r3, r3, #15
 8003bc0:	428b      	cmp	r3, r1
 8003bc2:	d345      	bcc.n	8003c50 <HAL_RCC_ClockConfig+0xa8>
 8003bc4:	6829      	ldr	r1, [r5, #0]
 8003bc6:	f011 0801 	ands.w	r8, r1, #1
 8003bca:	d14c      	bne.n	8003c66 <HAL_RCC_ClockConfig+0xbe>
 8003bcc:	682a      	ldr	r2, [r5, #0]
 8003bce:	0791      	lsls	r1, r2, #30
 8003bd0:	f140 80a1 	bpl.w	8003d16 <HAL_RCC_ClockConfig+0x16e>
 8003bd4:	4b64      	ldr	r3, [pc, #400]	; (8003d68 <HAL_RCC_ClockConfig+0x1c0>)
 8003bd6:	f012 0f04 	tst.w	r2, #4
 8003bda:	bf1e      	ittt	ne
 8003bdc:	6899      	ldrne	r1, [r3, #8]
 8003bde:	f441 61e0 	orrne.w	r1, r1, #1792	; 0x700
 8003be2:	6099      	strne	r1, [r3, #8]
 8003be4:	0712      	lsls	r2, r2, #28
 8003be6:	bf41      	itttt	mi
 8003be8:	689a      	ldrmi	r2, [r3, #8]
 8003bea:	f422 527c 	bicmi.w	r2, r2, #16128	; 0x3f00
 8003bee:	f442 62e0 	orrmi.w	r2, r2, #1792	; 0x700
 8003bf2:	609a      	strmi	r2, [r3, #8]
 8003bf4:	689a      	ldr	r2, [r3, #8]
 8003bf6:	68a9      	ldr	r1, [r5, #8]
 8003bf8:	f022 02f0 	bic.w	r2, r2, #240	; 0xf0
 8003bfc:	430a      	orrs	r2, r1
 8003bfe:	609a      	str	r2, [r3, #8]
 8003c00:	4c58      	ldr	r4, [pc, #352]	; (8003d64 <HAL_RCC_ClockConfig+0x1bc>)
 8003c02:	6823      	ldr	r3, [r4, #0]
 8003c04:	f003 030f 	and.w	r3, r3, #15
 8003c08:	42b3      	cmp	r3, r6
 8003c0a:	f200 808d 	bhi.w	8003d28 <HAL_RCC_ClockConfig+0x180>
 8003c0e:	682a      	ldr	r2, [r5, #0]
 8003c10:	4c55      	ldr	r4, [pc, #340]	; (8003d68 <HAL_RCC_ClockConfig+0x1c0>)
 8003c12:	f012 0f04 	tst.w	r2, #4
 8003c16:	f040 809d 	bne.w	8003d54 <HAL_RCC_ClockConfig+0x1ac>
 8003c1a:	0713      	lsls	r3, r2, #28
 8003c1c:	d506      	bpl.n	8003c2c <HAL_RCC_ClockConfig+0x84>
 8003c1e:	68a3      	ldr	r3, [r4, #8]
 8003c20:	692a      	ldr	r2, [r5, #16]
 8003c22:	f423 5360 	bic.w	r3, r3, #14336	; 0x3800
 8003c26:	ea43 03c2 	orr.w	r3, r3, r2, lsl #3
 8003c2a:	60a3      	str	r3, [r4, #8]
 8003c2c:	f7ff ff90 	bl	8003b50 <HAL_RCC_GetSysClockFreq>
 8003c30:	68a3      	ldr	r3, [r4, #8]
 8003c32:	4a4e      	ldr	r2, [pc, #312]	; (8003d6c <HAL_RCC_ClockConfig+0x1c4>)
 8003c34:	f3c3 1303 	ubfx	r3, r3, #4, #4
 8003c38:	5cd3      	ldrb	r3, [r2, r3]
 8003c3a:	f003 031f 	and.w	r3, r3, #31
 8003c3e:	40d8      	lsrs	r0, r3
 8003c40:	4b4b      	ldr	r3, [pc, #300]	; (8003d70 <HAL_RCC_ClockConfig+0x1c8>)
 8003c42:	6018      	str	r0, [r3, #0]
 8003c44:	4b4b      	ldr	r3, [pc, #300]	; (8003d74 <HAL_RCC_ClockConfig+0x1cc>)
 8003c46:	6818      	ldr	r0, [r3, #0]
 8003c48:	e8bd 43f8 	ldmia.w	sp!, {r3, r4, r5, r6, r7, r8, r9, lr}
 8003c4c:	f7fe b84c 	b.w	8001ce8 <HAL_InitTick>
 8003c50:	6813      	ldr	r3, [r2, #0]
 8003c52:	f023 030f 	bic.w	r3, r3, #15
 8003c56:	430b      	orrs	r3, r1
 8003c58:	6013      	str	r3, [r2, #0]
 8003c5a:	6813      	ldr	r3, [r2, #0]
 8003c5c:	f003 030f 	and.w	r3, r3, #15
 8003c60:	428b      	cmp	r3, r1
 8003c62:	d1a6      	bne.n	8003bb2 <HAL_RCC_ClockConfig+0xa>
 8003c64:	e7ae      	b.n	8003bc4 <HAL_RCC_ClockConfig+0x1c>
 8003c66:	686f      	ldr	r7, [r5, #4]
 8003c68:	4c3f      	ldr	r4, [pc, #252]	; (8003d68 <HAL_RCC_ClockConfig+0x1c0>)
 8003c6a:	2f03      	cmp	r7, #3
 8003c6c:	6823      	ldr	r3, [r4, #0]
 8003c6e:	d143      	bne.n	8003cf8 <HAL_RCC_ClockConfig+0x150>
 8003c70:	019b      	lsls	r3, r3, #6
 8003c72:	d59e      	bpl.n	8003bb2 <HAL_RCC_ClockConfig+0xa>
 8003c74:	68e3      	ldr	r3, [r4, #12]
 8003c76:	68e0      	ldr	r0, [r4, #12]
 8003c78:	68e3      	ldr	r3, [r4, #12]
 8003c7a:	4a3f      	ldr	r2, [pc, #252]	; (8003d78 <HAL_RCC_ClockConfig+0x1d0>)
 8003c7c:	f3c0 1003 	ubfx	r0, r0, #4, #4
 8003c80:	f3c3 2306 	ubfx	r3, r3, #8, #7
 8003c84:	3001      	adds	r0, #1
 8003c86:	fbb2 f2f0 	udiv	r2, r2, r0
 8003c8a:	4353      	muls	r3, r2
 8003c8c:	68e2      	ldr	r2, [r4, #12]
 8003c8e:	f3c2 6241 	ubfx	r2, r2, #25, #2
 8003c92:	3201      	adds	r2, #1
 8003c94:	0052      	lsls	r2, r2, #1
 8003c96:	fbb3 f3f2 	udiv	r3, r3, r2
 8003c9a:	4a38      	ldr	r2, [pc, #224]	; (8003d7c <HAL_RCC_ClockConfig+0x1d4>)
 8003c9c:	4293      	cmp	r3, r2
 8003c9e:	d819      	bhi.n	8003cd4 <HAL_RCC_ClockConfig+0x12c>
 8003ca0:	f04f 0800 	mov.w	r8, #0
 8003ca4:	68a3      	ldr	r3, [r4, #8]
 8003ca6:	f023 0303 	bic.w	r3, r3, #3
 8003caa:	433b      	orrs	r3, r7
 8003cac:	60a3      	str	r3, [r4, #8]
 8003cae:	f7fe f85d 	bl	8001d6c <HAL_GetTick>
 8003cb2:	f241 3988 	movw	r9, #5000	; 0x1388
 8003cb6:	4607      	mov	r7, r0
 8003cb8:	68a3      	ldr	r3, [r4, #8]
 8003cba:	686a      	ldr	r2, [r5, #4]
 8003cbc:	f003 030c 	and.w	r3, r3, #12
 8003cc0:	ebb3 0f82 	cmp.w	r3, r2, lsl #2
 8003cc4:	d082      	beq.n	8003bcc <HAL_RCC_ClockConfig+0x24>
 8003cc6:	f7fe f851 	bl	8001d6c <HAL_GetTick>
 8003cca:	1bc0      	subs	r0, r0, r7
 8003ccc:	4548      	cmp	r0, r9
 8003cce:	d9f3      	bls.n	8003cb8 <HAL_RCC_ClockConfig+0x110>
 8003cd0:	2003      	movs	r0, #3
 8003cd2:	e76f      	b.n	8003bb4 <HAL_RCC_ClockConfig+0xc>
 8003cd4:	68a3      	ldr	r3, [r4, #8]
 8003cd6:	f013 0ff0 	tst.w	r3, #240	; 0xf0
 8003cda:	d004      	beq.n	8003ce6 <HAL_RCC_ClockConfig+0x13e>
 8003cdc:	0788      	lsls	r0, r1, #30
 8003cde:	d5df      	bpl.n	8003ca0 <HAL_RCC_ClockConfig+0xf8>
 8003ce0:	68ab      	ldr	r3, [r5, #8]
 8003ce2:	2b00      	cmp	r3, #0
 8003ce4:	d1dc      	bne.n	8003ca0 <HAL_RCC_ClockConfig+0xf8>
 8003ce6:	68a3      	ldr	r3, [r4, #8]
 8003ce8:	f023 03f0 	bic.w	r3, r3, #240	; 0xf0
 8003cec:	f043 0380 	orr.w	r3, r3, #128	; 0x80
 8003cf0:	60a3      	str	r3, [r4, #8]
 8003cf2:	f04f 0880 	mov.w	r8, #128	; 0x80
 8003cf6:	e7d5      	b.n	8003ca4 <HAL_RCC_ClockConfig+0xfc>
 8003cf8:	2f02      	cmp	r7, #2
 8003cfa:	d109      	bne.n	8003d10 <HAL_RCC_ClockConfig+0x168>
 8003cfc:	f413 3f00 	tst.w	r3, #131072	; 0x20000
 8003d00:	f43f af57 	beq.w	8003bb2 <HAL_RCC_ClockConfig+0xa>
 8003d04:	f7ff ff24 	bl	8003b50 <HAL_RCC_GetSysClockFreq>
 8003d08:	4b1c      	ldr	r3, [pc, #112]	; (8003d7c <HAL_RCC_ClockConfig+0x1d4>)
 8003d0a:	4298      	cmp	r0, r3
 8003d0c:	d9c8      	bls.n	8003ca0 <HAL_RCC_ClockConfig+0xf8>
 8003d0e:	e7ea      	b.n	8003ce6 <HAL_RCC_ClockConfig+0x13e>
 8003d10:	f413 6f80 	tst.w	r3, #1024	; 0x400
 8003d14:	e7f4      	b.n	8003d00 <HAL_RCC_ClockConfig+0x158>
 8003d16:	f1b8 0f80 	cmp.w	r8, #128	; 0x80
 8003d1a:	bf01      	itttt	eq
 8003d1c:	4a12      	ldreq	r2, [pc, #72]	; (8003d68 <HAL_RCC_ClockConfig+0x1c0>)
 8003d1e:	6893      	ldreq	r3, [r2, #8]
 8003d20:	f023 03f0 	biceq.w	r3, r3, #240	; 0xf0
 8003d24:	6093      	streq	r3, [r2, #8]
 8003d26:	e76b      	b.n	8003c00 <HAL_RCC_ClockConfig+0x58>
 8003d28:	6823      	ldr	r3, [r4, #0]
 8003d2a:	f023 030f 	bic.w	r3, r3, #15
 8003d2e:	4333      	orrs	r3, r6
 8003d30:	6023      	str	r3, [r4, #0]
 8003d32:	f7fe f81b 	bl	8001d6c <HAL_GetTick>
 8003d36:	f241 3888 	movw	r8, #5000	; 0x1388
 8003d3a:	4607      	mov	r7, r0
 8003d3c:	6823      	ldr	r3, [r4, #0]
 8003d3e:	f003 030f 	and.w	r3, r3, #15
 8003d42:	42b3      	cmp	r3, r6
 8003d44:	f43f af63 	beq.w	8003c0e <HAL_RCC_ClockConfig+0x66>
 8003d48:	f7fe f810 	bl	8001d6c <HAL_GetTick>
 8003d4c:	1bc0      	subs	r0, r0, r7
 8003d4e:	4540      	cmp	r0, r8
 8003d50:	d9f4      	bls.n	8003d3c <HAL_RCC_ClockConfig+0x194>
 8003d52:	e7bd      	b.n	8003cd0 <HAL_RCC_ClockConfig+0x128>
 8003d54:	68a3      	ldr	r3, [r4, #8]
 8003d56:	68e9      	ldr	r1, [r5, #12]
 8003d58:	f423 63e0 	bic.w	r3, r3, #1792	; 0x700
 8003d5c:	430b      	orrs	r3, r1
 8003d5e:	60a3      	str	r3, [r4, #8]
 8003d60:	e75b      	b.n	8003c1a <HAL_RCC_ClockConfig+0x72>
 8003d62:	bf00      	nop
 8003d64:	40022000 	.word	0x40022000
 8003d68:	40021000 	.word	0x40021000
 8003d6c:	08005b3c 	.word	0x08005b3c
 8003d70:	20000004 	.word	0x20000004
 8003d74:	2000000c 	.word	0x2000000c
 8003d78:	00f42400 	.word	0x00f42400
 8003d7c:	04c4b400 	.word	0x04c4b400

08003d80 <HAL_RCC_GetHCLKFreq>:
 8003d80:	4b01      	ldr	r3, [pc, #4]	; (8003d88 <HAL_RCC_GetHCLKFreq+0x8>)
 8003d82:	6818      	ldr	r0, [r3, #0]
 8003d84:	4770      	bx	lr
 8003d86:	bf00      	nop
 8003d88:	20000004 	.word	0x20000004

08003d8c <HAL_RCC_GetPCLK1Freq>:
 8003d8c:	4b05      	ldr	r3, [pc, #20]	; (8003da4 <HAL_RCC_GetPCLK1Freq+0x18>)
 8003d8e:	4a06      	ldr	r2, [pc, #24]	; (8003da8 <HAL_RCC_GetPCLK1Freq+0x1c>)
 8003d90:	689b      	ldr	r3, [r3, #8]
 8003d92:	f3c3 2302 	ubfx	r3, r3, #8, #3
 8003d96:	5cd3      	ldrb	r3, [r2, r3]
 8003d98:	4a04      	ldr	r2, [pc, #16]	; (8003dac <HAL_RCC_GetPCLK1Freq+0x20>)
 8003d9a:	6810      	ldr	r0, [r2, #0]
 8003d9c:	f003 031f 	and.w	r3, r3, #31
 8003da0:	40d8      	lsrs	r0, r3
 8003da2:	4770      	bx	lr
 8003da4:	40021000 	.word	0x40021000
 8003da8:	08005b4c 	.word	0x08005b4c
 8003dac:	20000004 	.word	0x20000004

08003db0 <HAL_RCC_GetPCLK2Freq>:
 8003db0:	4b05      	ldr	r3, [pc, #20]	; (8003dc8 <HAL_RCC_GetPCLK2Freq+0x18>)
 8003db2:	4a06      	ldr	r2, [pc, #24]	; (8003dcc <HAL_RCC_GetPCLK2Freq+0x1c>)
 8003db4:	689b      	ldr	r3, [r3, #8]
 8003db6:	f3c3 23c2 	ubfx	r3, r3, #11, #3
 8003dba:	5cd3      	ldrb	r3, [r2, r3]
 8003dbc:	4a04      	ldr	r2, [pc, #16]	; (8003dd0 <HAL_RCC_GetPCLK2Freq+0x20>)
 8003dbe:	6810      	ldr	r0, [r2, #0]
 8003dc0:	f003 031f 	and.w	r3, r3, #31
 8003dc4:	40d8      	lsrs	r0, r3
 8003dc6:	4770      	bx	lr
 8003dc8:	40021000 	.word	0x40021000
 8003dcc:	08005b4c 	.word	0x08005b4c
 8003dd0:	20000004 	.word	0x20000004

08003dd4 <HAL_RCCEx_PeriphCLKConfig>:
 8003dd4:	e92d 41f3 	stmdb	sp!, {r0, r1, r4, r5, r6, r7, r8, lr}
 8003dd8:	4604      	mov	r4, r0
 8003dda:	6800      	ldr	r0, [r0, #0]
 8003ddc:	f410 2000 	ands.w	r0, r0, #524288	; 0x80000
 8003de0:	d039      	beq.n	8003e56 <HAL_RCCEx_PeriphCLKConfig+0x82>
 8003de2:	4d99      	ldr	r5, [pc, #612]	; (8004048 <HAL_RCCEx_PeriphCLKConfig+0x274>)
 8003de4:	6dab      	ldr	r3, [r5, #88]	; 0x58
 8003de6:	00d8      	lsls	r0, r3, #3
 8003de8:	d427      	bmi.n	8003e3a <HAL_RCCEx_PeriphCLKConfig+0x66>
 8003dea:	6dab      	ldr	r3, [r5, #88]	; 0x58
 8003dec:	f043 5380 	orr.w	r3, r3, #268435456	; 0x10000000
 8003df0:	65ab      	str	r3, [r5, #88]	; 0x58
 8003df2:	6dab      	ldr	r3, [r5, #88]	; 0x58
 8003df4:	f003 5380 	and.w	r3, r3, #268435456	; 0x10000000
 8003df8:	9301      	str	r3, [sp, #4]
 8003dfa:	9b01      	ldr	r3, [sp, #4]
 8003dfc:	2601      	movs	r6, #1
 8003dfe:	4f93      	ldr	r7, [pc, #588]	; (800404c <HAL_RCCEx_PeriphCLKConfig+0x278>)
 8003e00:	683b      	ldr	r3, [r7, #0]
 8003e02:	f443 7380 	orr.w	r3, r3, #256	; 0x100
 8003e06:	603b      	str	r3, [r7, #0]
 8003e08:	f7fd ffb0 	bl	8001d6c <HAL_GetTick>
 8003e0c:	4680      	mov	r8, r0
 8003e0e:	683b      	ldr	r3, [r7, #0]
 8003e10:	05d9      	lsls	r1, r3, #23
 8003e12:	d514      	bpl.n	8003e3e <HAL_RCCEx_PeriphCLKConfig+0x6a>
 8003e14:	f8d5 3090 	ldr.w	r3, [r5, #144]	; 0x90
 8003e18:	6c22      	ldr	r2, [r4, #64]	; 0x40
 8003e1a:	f413 7340 	ands.w	r3, r3, #768	; 0x300
 8003e1e:	d002      	beq.n	8003e26 <HAL_RCCEx_PeriphCLKConfig+0x52>
 8003e20:	4293      	cmp	r3, r2
 8003e22:	f040 80eb 	bne.w	8003ffc <HAL_RCCEx_PeriphCLKConfig+0x228>
 8003e26:	f8d5 3090 	ldr.w	r3, [r5, #144]	; 0x90
 8003e2a:	6c22      	ldr	r2, [r4, #64]	; 0x40
 8003e2c:	f423 7340 	bic.w	r3, r3, #768	; 0x300
 8003e30:	4313      	orrs	r3, r2
 8003e32:	f8c5 3090 	str.w	r3, [r5, #144]	; 0x90
 8003e36:	2000      	movs	r0, #0
 8003e38:	e008      	b.n	8003e4c <HAL_RCCEx_PeriphCLKConfig+0x78>
 8003e3a:	2600      	movs	r6, #0
 8003e3c:	e7df      	b.n	8003dfe <HAL_RCCEx_PeriphCLKConfig+0x2a>
 8003e3e:	f7fd ff95 	bl	8001d6c <HAL_GetTick>
 8003e42:	eba0 0008 	sub.w	r0, r0, r8
 8003e46:	2802      	cmp	r0, #2
 8003e48:	d9e1      	bls.n	8003e0e <HAL_RCCEx_PeriphCLKConfig+0x3a>
 8003e4a:	2003      	movs	r0, #3
 8003e4c:	b11e      	cbz	r6, 8003e56 <HAL_RCCEx_PeriphCLKConfig+0x82>
 8003e4e:	6dab      	ldr	r3, [r5, #88]	; 0x58
 8003e50:	f023 5380 	bic.w	r3, r3, #268435456	; 0x10000000
 8003e54:	65ab      	str	r3, [r5, #88]	; 0x58
 8003e56:	6823      	ldr	r3, [r4, #0]
 8003e58:	07de      	lsls	r6, r3, #31
 8003e5a:	d508      	bpl.n	8003e6e <HAL_RCCEx_PeriphCLKConfig+0x9a>
 8003e5c:	497a      	ldr	r1, [pc, #488]	; (8004048 <HAL_RCCEx_PeriphCLKConfig+0x274>)
 8003e5e:	6865      	ldr	r5, [r4, #4]
 8003e60:	f8d1 2088 	ldr.w	r2, [r1, #136]	; 0x88
 8003e64:	f022 0203 	bic.w	r2, r2, #3
 8003e68:	432a      	orrs	r2, r5
 8003e6a:	f8c1 2088 	str.w	r2, [r1, #136]	; 0x88
 8003e6e:	079d      	lsls	r5, r3, #30
 8003e70:	d508      	bpl.n	8003e84 <HAL_RCCEx_PeriphCLKConfig+0xb0>
 8003e72:	4975      	ldr	r1, [pc, #468]	; (8004048 <HAL_RCCEx_PeriphCLKConfig+0x274>)
 8003e74:	68a5      	ldr	r5, [r4, #8]
 8003e76:	f8d1 2088 	ldr.w	r2, [r1, #136]	; 0x88
 8003e7a:	f022 020c 	bic.w	r2, r2, #12
 8003e7e:	432a      	orrs	r2, r5
 8003e80:	f8c1 2088 	str.w	r2, [r1, #136]	; 0x88
 8003e84:	0759      	lsls	r1, r3, #29
 8003e86:	d508      	bpl.n	8003e9a <HAL_RCCEx_PeriphCLKConfig+0xc6>
 8003e88:	496f      	ldr	r1, [pc, #444]	; (8004048 <HAL_RCCEx_PeriphCLKConfig+0x274>)
 8003e8a:	68e5      	ldr	r5, [r4, #12]
 8003e8c:	f8d1 2088 	ldr.w	r2, [r1, #136]	; 0x88
 8003e90:	f022 0230 	bic.w	r2, r2, #48	; 0x30
 8003e94:	432a      	orrs	r2, r5
 8003e96:	f8c1 2088 	str.w	r2, [r1, #136]	; 0x88
 8003e9a:	071a      	lsls	r2, r3, #28
 8003e9c:	d508      	bpl.n	8003eb0 <HAL_RCCEx_PeriphCLKConfig+0xdc>
 8003e9e:	496a      	ldr	r1, [pc, #424]	; (8004048 <HAL_RCCEx_PeriphCLKConfig+0x274>)
 8003ea0:	6925      	ldr	r5, [r4, #16]
 8003ea2:	f8d1 2088 	ldr.w	r2, [r1, #136]	; 0x88
 8003ea6:	f022 02c0 	bic.w	r2, r2, #192	; 0xc0
 8003eaa:	432a      	orrs	r2, r5
 8003eac:	f8c1 2088 	str.w	r2, [r1, #136]	; 0x88
 8003eb0:	069f      	lsls	r7, r3, #26
 8003eb2:	d508      	bpl.n	8003ec6 <HAL_RCCEx_PeriphCLKConfig+0xf2>
 8003eb4:	4964      	ldr	r1, [pc, #400]	; (8004048 <HAL_RCCEx_PeriphCLKConfig+0x274>)
 8003eb6:	6965      	ldr	r5, [r4, #20]
 8003eb8:	f8d1 2088 	ldr.w	r2, [r1, #136]	; 0x88
 8003ebc:	f422 6240 	bic.w	r2, r2, #3072	; 0xc00
 8003ec0:	432a      	orrs	r2, r5
 8003ec2:	f8c1 2088 	str.w	r2, [r1, #136]	; 0x88
 8003ec6:	065e      	lsls	r6, r3, #25
 8003ec8:	d508      	bpl.n	8003edc <HAL_RCCEx_PeriphCLKConfig+0x108>
 8003eca:	495f      	ldr	r1, [pc, #380]	; (8004048 <HAL_RCCEx_PeriphCLKConfig+0x274>)
 8003ecc:	69a5      	ldr	r5, [r4, #24]
 8003ece:	f8d1 2088 	ldr.w	r2, [r1, #136]	; 0x88
 8003ed2:	f422 5240 	bic.w	r2, r2, #12288	; 0x3000
 8003ed6:	432a      	orrs	r2, r5
 8003ed8:	f8c1 2088 	str.w	r2, [r1, #136]	; 0x88
 8003edc:	061d      	lsls	r5, r3, #24
 8003ede:	d508      	bpl.n	8003ef2 <HAL_RCCEx_PeriphCLKConfig+0x11e>
 8003ee0:	4959      	ldr	r1, [pc, #356]	; (8004048 <HAL_RCCEx_PeriphCLKConfig+0x274>)
 8003ee2:	69e5      	ldr	r5, [r4, #28]
 8003ee4:	f8d1 2088 	ldr.w	r2, [r1, #136]	; 0x88
 8003ee8:	f422 4240 	bic.w	r2, r2, #49152	; 0xc000
 8003eec:	432a      	orrs	r2, r5
 8003eee:	f8c1 2088 	str.w	r2, [r1, #136]	; 0x88
 8003ef2:	05d9      	lsls	r1, r3, #23
 8003ef4:	d508      	bpl.n	8003f08 <HAL_RCCEx_PeriphCLKConfig+0x134>
 8003ef6:	4954      	ldr	r1, [pc, #336]	; (8004048 <HAL_RCCEx_PeriphCLKConfig+0x274>)
 8003ef8:	6a25      	ldr	r5, [r4, #32]
 8003efa:	f8d1 2088 	ldr.w	r2, [r1, #136]	; 0x88
 8003efe:	f422 3240 	bic.w	r2, r2, #196608	; 0x30000
 8003f02:	432a      	orrs	r2, r5
 8003f04:	f8c1 2088 	str.w	r2, [r1, #136]	; 0x88
 8003f08:	059a      	lsls	r2, r3, #22
 8003f0a:	d508      	bpl.n	8003f1e <HAL_RCCEx_PeriphCLKConfig+0x14a>
 8003f0c:	494e      	ldr	r1, [pc, #312]	; (8004048 <HAL_RCCEx_PeriphCLKConfig+0x274>)
 8003f0e:	6a65      	ldr	r5, [r4, #36]	; 0x24
 8003f10:	f8d1 2088 	ldr.w	r2, [r1, #136]	; 0x88
 8003f14:	f422 2240 	bic.w	r2, r2, #786432	; 0xc0000
 8003f18:	432a      	orrs	r2, r5
 8003f1a:	f8c1 2088 	str.w	r2, [r1, #136]	; 0x88
 8003f1e:	055f      	lsls	r7, r3, #21
 8003f20:	d50f      	bpl.n	8003f42 <HAL_RCCEx_PeriphCLKConfig+0x16e>
 8003f22:	4949      	ldr	r1, [pc, #292]	; (8004048 <HAL_RCCEx_PeriphCLKConfig+0x274>)
 8003f24:	6aa5      	ldr	r5, [r4, #40]	; 0x28
 8003f26:	f8d1 2088 	ldr.w	r2, [r1, #136]	; 0x88
 8003f2a:	f422 1240 	bic.w	r2, r2, #3145728	; 0x300000
 8003f2e:	432a      	orrs	r2, r5
 8003f30:	f8c1 2088 	str.w	r2, [r1, #136]	; 0x88
 8003f34:	f5b5 1f80 	cmp.w	r5, #1048576	; 0x100000
 8003f38:	bf02      	ittt	eq
 8003f3a:	68ca      	ldreq	r2, [r1, #12]
 8003f3c:	f442 1280 	orreq.w	r2, r2, #1048576	; 0x100000
 8003f40:	60ca      	streq	r2, [r1, #12]
 8003f42:	051e      	lsls	r6, r3, #20
 8003f44:	d50f      	bpl.n	8003f66 <HAL_RCCEx_PeriphCLKConfig+0x192>
 8003f46:	4940      	ldr	r1, [pc, #256]	; (8004048 <HAL_RCCEx_PeriphCLKConfig+0x274>)
 8003f48:	6ae5      	ldr	r5, [r4, #44]	; 0x2c
 8003f4a:	f8d1 2088 	ldr.w	r2, [r1, #136]	; 0x88
 8003f4e:	f422 0240 	bic.w	r2, r2, #12582912	; 0xc00000
 8003f52:	432a      	orrs	r2, r5
 8003f54:	f8c1 2088 	str.w	r2, [r1, #136]	; 0x88
 8003f58:	f5b5 0f80 	cmp.w	r5, #4194304	; 0x400000
 8003f5c:	bf02      	ittt	eq
 8003f5e:	68ca      	ldreq	r2, [r1, #12]
 8003f60:	f442 1280 	orreq.w	r2, r2, #1048576	; 0x100000
 8003f64:	60ca      	streq	r2, [r1, #12]
 8003f66:	04dd      	lsls	r5, r3, #19
 8003f68:	d50f      	bpl.n	8003f8a <HAL_RCCEx_PeriphCLKConfig+0x1b6>
 8003f6a:	4937      	ldr	r1, [pc, #220]	; (8004048 <HAL_RCCEx_PeriphCLKConfig+0x274>)
 8003f6c:	6b25      	ldr	r5, [r4, #48]	; 0x30
 8003f6e:	f8d1 2088 	ldr.w	r2, [r1, #136]	; 0x88
 8003f72:	f022 7240 	bic.w	r2, r2, #50331648	; 0x3000000
 8003f76:	432a      	orrs	r2, r5
 8003f78:	f8c1 2088 	str.w	r2, [r1, #136]	; 0x88
 8003f7c:	f1b5 7f80 	cmp.w	r5, #16777216	; 0x1000000
 8003f80:	bf02      	ittt	eq
 8003f82:	68ca      	ldreq	r2, [r1, #12]
 8003f84:	f442 1280 	orreq.w	r2, r2, #1048576	; 0x100000
 8003f88:	60ca      	streq	r2, [r1, #12]
 8003f8a:	0499      	lsls	r1, r3, #18
 8003f8c:	d50f      	bpl.n	8003fae <HAL_RCCEx_PeriphCLKConfig+0x1da>
 8003f8e:	492e      	ldr	r1, [pc, #184]	; (8004048 <HAL_RCCEx_PeriphCLKConfig+0x274>)
 8003f90:	6b65      	ldr	r5, [r4, #52]	; 0x34
 8003f92:	f8d1 2088 	ldr.w	r2, [r1, #136]	; 0x88
 8003f96:	f022 6240 	bic.w	r2, r2, #201326592	; 0xc000000
 8003f9a:	432a      	orrs	r2, r5
 8003f9c:	f8c1 2088 	str.w	r2, [r1, #136]	; 0x88
 8003fa0:	f1b5 6f00 	cmp.w	r5, #134217728	; 0x8000000
 8003fa4:	bf02      	ittt	eq
 8003fa6:	68ca      	ldreq	r2, [r1, #12]
 8003fa8:	f442 1280 	orreq.w	r2, r2, #1048576	; 0x100000
 8003fac:	60ca      	streq	r2, [r1, #12]
 8003fae:	045a      	lsls	r2, r3, #17
 8003fb0:	d50f      	bpl.n	8003fd2 <HAL_RCCEx_PeriphCLKConfig+0x1fe>
 8003fb2:	4925      	ldr	r1, [pc, #148]	; (8004048 <HAL_RCCEx_PeriphCLKConfig+0x274>)
 8003fb4:	6ba5      	ldr	r5, [r4, #56]	; 0x38
 8003fb6:	f8d1 2088 	ldr.w	r2, [r1, #136]	; 0x88
 8003fba:	f022 6240 	bic.w	r2, r2, #201326592	; 0xc000000
 8003fbe:	432a      	orrs	r2, r5
 8003fc0:	f8c1 2088 	str.w	r2, [r1, #136]	; 0x88
 8003fc4:	f1b5 6f00 	cmp.w	r5, #134217728	; 0x8000000
 8003fc8:	bf02      	ittt	eq
 8003fca:	68ca      	ldreq	r2, [r1, #12]
 8003fcc:	f442 1280 	orreq.w	r2, r2, #1048576	; 0x100000
 8003fd0:	60ca      	streq	r2, [r1, #12]
 8003fd2:	041b      	lsls	r3, r3, #16
 8003fd4:	d50f      	bpl.n	8003ff6 <HAL_RCCEx_PeriphCLKConfig+0x222>
 8003fd6:	4a1c      	ldr	r2, [pc, #112]	; (8004048 <HAL_RCCEx_PeriphCLKConfig+0x274>)
 8003fd8:	6be1      	ldr	r1, [r4, #60]	; 0x3c
 8003fda:	f8d2 3088 	ldr.w	r3, [r2, #136]	; 0x88
 8003fde:	f023 5340 	bic.w	r3, r3, #805306368	; 0x30000000
 8003fe2:	430b      	orrs	r3, r1
 8003fe4:	f1b1 5f80 	cmp.w	r1, #268435456	; 0x10000000
 8003fe8:	f8c2 3088 	str.w	r3, [r2, #136]	; 0x88
 8003fec:	d103      	bne.n	8003ff6 <HAL_RCCEx_PeriphCLKConfig+0x222>
 8003fee:	68d3      	ldr	r3, [r2, #12]
 8003ff0:	f443 3380 	orr.w	r3, r3, #65536	; 0x10000
 8003ff4:	60d3      	str	r3, [r2, #12]
 8003ff6:	b002      	add	sp, #8
 8003ff8:	e8bd 81f0 	ldmia.w	sp!, {r4, r5, r6, r7, r8, pc}
 8003ffc:	f8d5 2090 	ldr.w	r2, [r5, #144]	; 0x90
 8004000:	f8d5 3090 	ldr.w	r3, [r5, #144]	; 0x90
 8004004:	f443 3380 	orr.w	r3, r3, #65536	; 0x10000
 8004008:	f8c5 3090 	str.w	r3, [r5, #144]	; 0x90
 800400c:	f8d5 3090 	ldr.w	r3, [r5, #144]	; 0x90
 8004010:	f422 7140 	bic.w	r1, r2, #768	; 0x300
 8004014:	f423 3380 	bic.w	r3, r3, #65536	; 0x10000
 8004018:	07d2      	lsls	r2, r2, #31
 800401a:	f8c5 3090 	str.w	r3, [r5, #144]	; 0x90
 800401e:	f8c5 1090 	str.w	r1, [r5, #144]	; 0x90
 8004022:	f57f af00 	bpl.w	8003e26 <HAL_RCCEx_PeriphCLKConfig+0x52>
 8004026:	f7fd fea1 	bl	8001d6c <HAL_GetTick>
 800402a:	f241 3888 	movw	r8, #5000	; 0x1388
 800402e:	4607      	mov	r7, r0
 8004030:	f8d5 3090 	ldr.w	r3, [r5, #144]	; 0x90
 8004034:	079b      	lsls	r3, r3, #30
 8004036:	f53f aef6 	bmi.w	8003e26 <HAL_RCCEx_PeriphCLKConfig+0x52>
 800403a:	f7fd fe97 	bl	8001d6c <HAL_GetTick>
 800403e:	1bc0      	subs	r0, r0, r7
 8004040:	4540      	cmp	r0, r8
 8004042:	d9f5      	bls.n	8004030 <HAL_RCCEx_PeriphCLKConfig+0x25c>
 8004044:	e701      	b.n	8003e4a <HAL_RCCEx_PeriphCLKConfig+0x76>
 8004046:	bf00      	nop
 8004048:	40021000 	.word	0x40021000
 800404c:	40007000 	.word	0x40007000

08004050 <SPI_WaitFifoStateUntilTimeout.constprop.0>:
 8004050:	e92d 43f7 	stmdb	sp!, {r0, r1, r2, r4, r5, r6, r7, r8, r9, lr}
 8004054:	461c      	mov	r4, r3
 8004056:	2300      	movs	r3, #0
 8004058:	4617      	mov	r7, r2
 800405a:	f88d 3003 	strb.w	r3, [sp, #3]
 800405e:	4605      	mov	r5, r0
 8004060:	460e      	mov	r6, r1
 8004062:	f7fd fe83 	bl	8001d6c <HAL_GetTick>
 8004066:	443c      	add	r4, r7
 8004068:	1a24      	subs	r4, r4, r0
 800406a:	f7fd fe7f 	bl	8001d6c <HAL_GetTick>
 800406e:	4b29      	ldr	r3, [pc, #164]	; (8004114 <SPI_WaitFifoStateUntilTimeout.constprop.0+0xc4>)
 8004070:	f8d5 9000 	ldr.w	r9, [r5]
 8004074:	681b      	ldr	r3, [r3, #0]
 8004076:	2223      	movs	r2, #35	; 0x23
 8004078:	4353      	muls	r3, r2
 800407a:	0d1b      	lsrs	r3, r3, #20
 800407c:	4680      	mov	r8, r0
 800407e:	4363      	muls	r3, r4
 8004080:	682a      	ldr	r2, [r5, #0]
 8004082:	9301      	str	r3, [sp, #4]
 8004084:	6893      	ldr	r3, [r2, #8]
 8004086:	4033      	ands	r3, r6
 8004088:	d101      	bne.n	800408e <SPI_WaitFifoStateUntilTimeout.constprop.0+0x3e>
 800408a:	4618      	mov	r0, r3
 800408c:	e038      	b.n	8004100 <SPI_WaitFifoStateUntilTimeout.constprop.0+0xb0>
 800408e:	f5b6 6fc0 	cmp.w	r6, #1536	; 0x600
 8004092:	bf01      	itttt	eq
 8004094:	f899 300c 	ldrbeq.w	r3, [r9, #12]
 8004098:	b2db      	uxtbeq	r3, r3
 800409a:	f88d 3003 	strbeq.w	r3, [sp, #3]
 800409e:	f89d 3003 	ldrbeq.w	r3, [sp, #3]
 80040a2:	1c7b      	adds	r3, r7, #1
 80040a4:	d0ee      	beq.n	8004084 <SPI_WaitFifoStateUntilTimeout.constprop.0+0x34>
 80040a6:	f7fd fe61 	bl	8001d6c <HAL_GetTick>
 80040aa:	eba0 0008 	sub.w	r0, r0, r8
 80040ae:	42a0      	cmp	r0, r4
 80040b0:	d329      	bcc.n	8004106 <SPI_WaitFifoStateUntilTimeout.constprop.0+0xb6>
 80040b2:	682b      	ldr	r3, [r5, #0]
 80040b4:	685a      	ldr	r2, [r3, #4]
 80040b6:	f022 02e0 	bic.w	r2, r2, #224	; 0xe0
 80040ba:	605a      	str	r2, [r3, #4]
 80040bc:	686a      	ldr	r2, [r5, #4]
 80040be:	f5b2 7f82 	cmp.w	r2, #260	; 0x104
 80040c2:	d10a      	bne.n	80040da <SPI_WaitFifoStateUntilTimeout.constprop.0+0x8a>
 80040c4:	68aa      	ldr	r2, [r5, #8]
 80040c6:	f5b2 4f00 	cmp.w	r2, #32768	; 0x8000
 80040ca:	d002      	beq.n	80040d2 <SPI_WaitFifoStateUntilTimeout.constprop.0+0x82>
 80040cc:	f5b2 6f80 	cmp.w	r2, #1024	; 0x400
 80040d0:	d103      	bne.n	80040da <SPI_WaitFifoStateUntilTimeout.constprop.0+0x8a>
 80040d2:	681a      	ldr	r2, [r3, #0]
 80040d4:	f022 0240 	bic.w	r2, r2, #64	; 0x40
 80040d8:	601a      	str	r2, [r3, #0]
 80040da:	6aaa      	ldr	r2, [r5, #40]	; 0x28
 80040dc:	f5b2 5f00 	cmp.w	r2, #8192	; 0x2000
 80040e0:	d107      	bne.n	80040f2 <SPI_WaitFifoStateUntilTimeout.constprop.0+0xa2>
 80040e2:	681a      	ldr	r2, [r3, #0]
 80040e4:	f422 5200 	bic.w	r2, r2, #8192	; 0x2000
 80040e8:	601a      	str	r2, [r3, #0]
 80040ea:	681a      	ldr	r2, [r3, #0]
 80040ec:	f442 5200 	orr.w	r2, r2, #8192	; 0x2000
 80040f0:	601a      	str	r2, [r3, #0]
 80040f2:	2301      	movs	r3, #1
 80040f4:	f885 305d 	strb.w	r3, [r5, #93]	; 0x5d
 80040f8:	2300      	movs	r3, #0
 80040fa:	f885 305c 	strb.w	r3, [r5, #92]	; 0x5c
 80040fe:	2003      	movs	r0, #3
 8004100:	b003      	add	sp, #12
 8004102:	e8bd 83f0 	ldmia.w	sp!, {r4, r5, r6, r7, r8, r9, pc}
 8004106:	9b01      	ldr	r3, [sp, #4]
 8004108:	2b00      	cmp	r3, #0
 800410a:	9b01      	ldr	r3, [sp, #4]
 800410c:	bf08      	it	eq
 800410e:	2400      	moveq	r4, #0
 8004110:	3b01      	subs	r3, #1
 8004112:	e7b5      	b.n	8004080 <SPI_WaitFifoStateUntilTimeout.constprop.0+0x30>
 8004114:	20000004 	.word	0x20000004

08004118 <SPI_WaitFlagStateUntilTimeout.constprop.0>:
 8004118:	b5f7      	push	{r0, r1, r2, r4, r5, r6, r7, lr}
 800411a:	460e      	mov	r6, r1
 800411c:	4614      	mov	r4, r2
 800411e:	4605      	mov	r5, r0
 8004120:	f7fd fe24 	bl	8001d6c <HAL_GetTick>
 8004124:	4434      	add	r4, r6
 8004126:	1a24      	subs	r4, r4, r0
 8004128:	f7fd fe20 	bl	8001d6c <HAL_GetTick>
 800412c:	4b22      	ldr	r3, [pc, #136]	; (80041b8 <SPI_WaitFlagStateUntilTimeout.constprop.0+0xa0>)
 800412e:	681b      	ldr	r3, [r3, #0]
 8004130:	f3c3 33cb 	ubfx	r3, r3, #15, #12
 8004134:	4607      	mov	r7, r0
 8004136:	4363      	muls	r3, r4
 8004138:	682a      	ldr	r2, [r5, #0]
 800413a:	9301      	str	r3, [sp, #4]
 800413c:	6893      	ldr	r3, [r2, #8]
 800413e:	f013 0380 	ands.w	r3, r3, #128	; 0x80
 8004142:	d101      	bne.n	8004148 <SPI_WaitFlagStateUntilTimeout.constprop.0+0x30>
 8004144:	4618      	mov	r0, r3
 8004146:	e02d      	b.n	80041a4 <SPI_WaitFlagStateUntilTimeout.constprop.0+0x8c>
 8004148:	1c73      	adds	r3, r6, #1
 800414a:	d0f7      	beq.n	800413c <SPI_WaitFlagStateUntilTimeout.constprop.0+0x24>
 800414c:	f7fd fe0e 	bl	8001d6c <HAL_GetTick>
 8004150:	1bc0      	subs	r0, r0, r7
 8004152:	42a0      	cmp	r0, r4
 8004154:	d328      	bcc.n	80041a8 <SPI_WaitFlagStateUntilTimeout.constprop.0+0x90>
 8004156:	682b      	ldr	r3, [r5, #0]
 8004158:	685a      	ldr	r2, [r3, #4]
 800415a:	f022 02e0 	bic.w	r2, r2, #224	; 0xe0
 800415e:	605a      	str	r2, [r3, #4]
 8004160:	686a      	ldr	r2, [r5, #4]
 8004162:	f5b2 7f82 	cmp.w	r2, #260	; 0x104
 8004166:	d10a      	bne.n	800417e <SPI_WaitFlagStateUntilTimeout.constprop.0+0x66>
 8004168:	68aa      	ldr	r2, [r5, #8]
 800416a:	f5b2 4f00 	cmp.w	r2, #32768	; 0x8000
 800416e:	d002      	beq.n	8004176 <SPI_WaitFlagStateUntilTimeout.constprop.0+0x5e>
 8004170:	f5b2 6f80 	cmp.w	r2, #1024	; 0x400
 8004174:	d103      	bne.n	800417e <SPI_WaitFlagStateUntilTimeout.constprop.0+0x66>
 8004176:	681a      	ldr	r2, [r3, #0]
 8004178:	f022 0240 	bic.w	r2, r2, #64	; 0x40
 800417c:	601a      	str	r2, [r3, #0]
 800417e:	6aaa      	ldr	r2, [r5, #40]	; 0x28
 8004180:	f5b2 5f00 	cmp.w	r2, #8192	; 0x2000
 8004184:	d107      	bne.n	8004196 <SPI_WaitFlagStateUntilTimeout.constprop.0+0x7e>
 8004186:	681a      	ldr	r2, [r3, #0]
 8004188:	f422 5200 	bic.w	r2, r2, #8192	; 0x2000
 800418c:	601a      	str	r2, [r3, #0]
 800418e:	681a      	ldr	r2, [r3, #0]
 8004190:	f442 5200 	orr.w	r2, r2, #8192	; 0x2000
 8004194:	601a      	str	r2, [r3, #0]
 8004196:	2301      	movs	r3, #1
 8004198:	f885 305d 	strb.w	r3, [r5, #93]	; 0x5d
 800419c:	2300      	movs	r3, #0
 800419e:	f885 305c 	strb.w	r3, [r5, #92]	; 0x5c
 80041a2:	2003      	movs	r0, #3
 80041a4:	b003      	add	sp, #12
 80041a6:	bdf0      	pop	{r4, r5, r6, r7, pc}
 80041a8:	9b01      	ldr	r3, [sp, #4]
 80041aa:	2b00      	cmp	r3, #0
 80041ac:	9b01      	ldr	r3, [sp, #4]
 80041ae:	bf08      	it	eq
 80041b0:	2400      	moveq	r4, #0
 80041b2:	3b01      	subs	r3, #1
 80041b4:	e7c0      	b.n	8004138 <SPI_WaitFlagStateUntilTimeout.constprop.0+0x20>
 80041b6:	bf00      	nop
 80041b8:	20000004 	.word	0x20000004

080041bc <SPI_EndRxTransaction>:
 80041bc:	4613      	mov	r3, r2
 80041be:	6842      	ldr	r2, [r0, #4]
 80041c0:	f5b2 7f82 	cmp.w	r2, #260	; 0x104
 80041c4:	b573      	push	{r0, r1, r4, r5, r6, lr}
 80041c6:	4604      	mov	r4, r0
 80041c8:	460e      	mov	r6, r1
 80041ca:	d10b      	bne.n	80041e4 <SPI_EndRxTransaction+0x28>
 80041cc:	6882      	ldr	r2, [r0, #8]
 80041ce:	f5b2 4f00 	cmp.w	r2, #32768	; 0x8000
 80041d2:	d002      	beq.n	80041da <SPI_EndRxTransaction+0x1e>
 80041d4:	f5b2 6f80 	cmp.w	r2, #1024	; 0x400
 80041d8:	d104      	bne.n	80041e4 <SPI_EndRxTransaction+0x28>
 80041da:	6821      	ldr	r1, [r4, #0]
 80041dc:	680a      	ldr	r2, [r1, #0]
 80041de:	f022 0240 	bic.w	r2, r2, #64	; 0x40
 80041e2:	600a      	str	r2, [r1, #0]
 80041e4:	461a      	mov	r2, r3
 80041e6:	4631      	mov	r1, r6
 80041e8:	4620      	mov	r0, r4
 80041ea:	9301      	str	r3, [sp, #4]
 80041ec:	f7ff ff94 	bl	8004118 <SPI_WaitFlagStateUntilTimeout.constprop.0>
 80041f0:	9b01      	ldr	r3, [sp, #4]
 80041f2:	4605      	mov	r5, r0
 80041f4:	b128      	cbz	r0, 8004202 <SPI_EndRxTransaction+0x46>
 80041f6:	6e23      	ldr	r3, [r4, #96]	; 0x60
 80041f8:	f043 0320 	orr.w	r3, r3, #32
 80041fc:	6623      	str	r3, [r4, #96]	; 0x60
 80041fe:	2503      	movs	r5, #3
 8004200:	e012      	b.n	8004228 <SPI_EndRxTransaction+0x6c>
 8004202:	6862      	ldr	r2, [r4, #4]
 8004204:	f5b2 7f82 	cmp.w	r2, #260	; 0x104
 8004208:	d10e      	bne.n	8004228 <SPI_EndRxTransaction+0x6c>
 800420a:	68a2      	ldr	r2, [r4, #8]
 800420c:	f5b2 4f00 	cmp.w	r2, #32768	; 0x8000
 8004210:	d002      	beq.n	8004218 <SPI_EndRxTransaction+0x5c>
 8004212:	f5b2 6f80 	cmp.w	r2, #1024	; 0x400
 8004216:	d107      	bne.n	8004228 <SPI_EndRxTransaction+0x6c>
 8004218:	4632      	mov	r2, r6
 800421a:	f44f 61c0 	mov.w	r1, #1536	; 0x600
 800421e:	4620      	mov	r0, r4
 8004220:	f7ff ff16 	bl	8004050 <SPI_WaitFifoStateUntilTimeout.constprop.0>
 8004224:	2800      	cmp	r0, #0
 8004226:	d1e6      	bne.n	80041f6 <SPI_EndRxTransaction+0x3a>
 8004228:	4628      	mov	r0, r5
 800422a:	b002      	add	sp, #8
 800422c:	bd70      	pop	{r4, r5, r6, pc}

0800422e <SPI_EndRxTxTransaction>:
 800422e:	b537      	push	{r0, r1, r2, r4, r5, lr}
 8004230:	4613      	mov	r3, r2
 8004232:	9201      	str	r2, [sp, #4]
 8004234:	460d      	mov	r5, r1
 8004236:	460a      	mov	r2, r1
 8004238:	f44f 51c0 	mov.w	r1, #6144	; 0x1800
 800423c:	4604      	mov	r4, r0
 800423e:	f7ff ff07 	bl	8004050 <SPI_WaitFifoStateUntilTimeout.constprop.0>
 8004242:	9b01      	ldr	r3, [sp, #4]
 8004244:	b128      	cbz	r0, 8004252 <SPI_EndRxTxTransaction+0x24>
 8004246:	6e23      	ldr	r3, [r4, #96]	; 0x60
 8004248:	f043 0320 	orr.w	r3, r3, #32
 800424c:	6623      	str	r3, [r4, #96]	; 0x60
 800424e:	2003      	movs	r0, #3
 8004250:	e010      	b.n	8004274 <SPI_EndRxTxTransaction+0x46>
 8004252:	461a      	mov	r2, r3
 8004254:	4629      	mov	r1, r5
 8004256:	4620      	mov	r0, r4
 8004258:	9301      	str	r3, [sp, #4]
 800425a:	f7ff ff5d 	bl	8004118 <SPI_WaitFlagStateUntilTimeout.constprop.0>
 800425e:	9b01      	ldr	r3, [sp, #4]
 8004260:	2800      	cmp	r0, #0
 8004262:	d1f0      	bne.n	8004246 <SPI_EndRxTxTransaction+0x18>
 8004264:	462a      	mov	r2, r5
 8004266:	f44f 61c0 	mov.w	r1, #1536	; 0x600
 800426a:	4620      	mov	r0, r4
 800426c:	f7ff fef0 	bl	8004050 <SPI_WaitFifoStateUntilTimeout.constprop.0>
 8004270:	2800      	cmp	r0, #0
 8004272:	d1e8      	bne.n	8004246 <SPI_EndRxTxTransaction+0x18>
 8004274:	b003      	add	sp, #12
 8004276:	bd30      	pop	{r4, r5, pc}

08004278 <HAL_SPI_Init>:
 8004278:	b570      	push	{r4, r5, r6, lr}
 800427a:	4604      	mov	r4, r0
 800427c:	2800      	cmp	r0, #0
 800427e:	d063      	beq.n	8004348 <HAL_SPI_Init+0xd0>
 8004280:	6a43      	ldr	r3, [r0, #36]	; 0x24
 8004282:	2b00      	cmp	r3, #0
 8004284:	d15c      	bne.n	8004340 <HAL_SPI_Init+0xc8>
 8004286:	6842      	ldr	r2, [r0, #4]
 8004288:	f5b2 7f82 	cmp.w	r2, #260	; 0x104
 800428c:	d000      	beq.n	8004290 <HAL_SPI_Init+0x18>
 800428e:	61c3      	str	r3, [r0, #28]
 8004290:	2300      	movs	r3, #0
 8004292:	62a3      	str	r3, [r4, #40]	; 0x28
 8004294:	f894 305d 	ldrb.w	r3, [r4, #93]	; 0x5d
 8004298:	f003 02ff 	and.w	r2, r3, #255	; 0xff
 800429c:	b923      	cbnz	r3, 80042a8 <HAL_SPI_Init+0x30>
 800429e:	f884 205c 	strb.w	r2, [r4, #92]	; 0x5c
 80042a2:	4620      	mov	r0, r4
 80042a4:	f7fd f9d0 	bl	8001648 <HAL_SPI_MspInit>
 80042a8:	6822      	ldr	r2, [r4, #0]
 80042aa:	68e0      	ldr	r0, [r4, #12]
 80042ac:	2302      	movs	r3, #2
 80042ae:	f884 305d 	strb.w	r3, [r4, #93]	; 0x5d
 80042b2:	6813      	ldr	r3, [r2, #0]
 80042b4:	f5b0 6fe0 	cmp.w	r0, #1792	; 0x700
 80042b8:	f023 0340 	bic.w	r3, r3, #64	; 0x40
 80042bc:	6013      	str	r3, [r2, #0]
 80042be:	f04f 0300 	mov.w	r3, #0
 80042c2:	d843      	bhi.n	800434c <HAL_SPI_Init+0xd4>
 80042c4:	f44f 5580 	mov.w	r5, #4096	; 0x1000
 80042c8:	d000      	beq.n	80042cc <HAL_SPI_Init+0x54>
 80042ca:	62a3      	str	r3, [r4, #40]	; 0x28
 80042cc:	6863      	ldr	r3, [r4, #4]
 80042ce:	68a6      	ldr	r6, [r4, #8]
 80042d0:	69a1      	ldr	r1, [r4, #24]
 80042d2:	f406 4604 	and.w	r6, r6, #33792	; 0x8400
 80042d6:	f403 7382 	and.w	r3, r3, #260	; 0x104
 80042da:	4333      	orrs	r3, r6
 80042dc:	6926      	ldr	r6, [r4, #16]
 80042de:	f006 0602 	and.w	r6, r6, #2
 80042e2:	4333      	orrs	r3, r6
 80042e4:	6966      	ldr	r6, [r4, #20]
 80042e6:	f006 0601 	and.w	r6, r6, #1
 80042ea:	4333      	orrs	r3, r6
 80042ec:	f401 7600 	and.w	r6, r1, #512	; 0x200
 80042f0:	4333      	orrs	r3, r6
 80042f2:	69e6      	ldr	r6, [r4, #28]
 80042f4:	f006 0638 	and.w	r6, r6, #56	; 0x38
 80042f8:	4333      	orrs	r3, r6
 80042fa:	6a26      	ldr	r6, [r4, #32]
 80042fc:	f006 0680 	and.w	r6, r6, #128	; 0x80
 8004300:	4333      	orrs	r3, r6
 8004302:	6aa6      	ldr	r6, [r4, #40]	; 0x28
 8004304:	f406 5600 	and.w	r6, r6, #8192	; 0x2000
 8004308:	4333      	orrs	r3, r6
 800430a:	6013      	str	r3, [r2, #0]
 800430c:	6b66      	ldr	r6, [r4, #52]	; 0x34
 800430e:	6a63      	ldr	r3, [r4, #36]	; 0x24
 8004310:	f006 0608 	and.w	r6, r6, #8
 8004314:	f003 0310 	and.w	r3, r3, #16
 8004318:	f400 6070 	and.w	r0, r0, #3840	; 0xf00
 800431c:	4333      	orrs	r3, r6
 800431e:	0c09      	lsrs	r1, r1, #16
 8004320:	4303      	orrs	r3, r0
 8004322:	f001 0104 	and.w	r1, r1, #4
 8004326:	430b      	orrs	r3, r1
 8004328:	432b      	orrs	r3, r5
 800432a:	6053      	str	r3, [r2, #4]
 800432c:	69d3      	ldr	r3, [r2, #28]
 800432e:	f423 6300 	bic.w	r3, r3, #2048	; 0x800
 8004332:	61d3      	str	r3, [r2, #28]
 8004334:	2000      	movs	r0, #0
 8004336:	2301      	movs	r3, #1
 8004338:	6620      	str	r0, [r4, #96]	; 0x60
 800433a:	f884 305d 	strb.w	r3, [r4, #93]	; 0x5d
 800433e:	bd70      	pop	{r4, r5, r6, pc}
 8004340:	2300      	movs	r3, #0
 8004342:	e9c0 3304 	strd	r3, r3, [r0, #16]
 8004346:	e7a3      	b.n	8004290 <HAL_SPI_Init+0x18>
 8004348:	2001      	movs	r0, #1
 800434a:	e7f8      	b.n	800433e <HAL_SPI_Init+0xc6>
 800434c:	461d      	mov	r5, r3
 800434e:	f5b0 6f70 	cmp.w	r0, #3840	; 0xf00
 8004352:	e7b9      	b.n	80042c8 <HAL_SPI_Init+0x50>

08004354 <HAL_SPI_TransmitReceive_DMA>:
 8004354:	b570      	push	{r4, r5, r6, lr}
 8004356:	4604      	mov	r4, r0
 8004358:	f890 005c 	ldrb.w	r0, [r0, #92]	; 0x5c
 800435c:	2801      	cmp	r0, #1
 800435e:	f000 80c7 	beq.w	80044f0 <HAL_SPI_TransmitReceive_DMA+0x19c>
 8004362:	2001      	movs	r0, #1
 8004364:	f884 005c 	strb.w	r0, [r4, #92]	; 0x5c
 8004368:	f894 005d 	ldrb.w	r0, [r4, #93]	; 0x5d
 800436c:	6866      	ldr	r6, [r4, #4]
 800436e:	2801      	cmp	r0, #1
 8004370:	b2c5      	uxtb	r5, r0
 8004372:	d00a      	beq.n	800438a <HAL_SPI_TransmitReceive_DMA+0x36>
 8004374:	f5b6 7f82 	cmp.w	r6, #260	; 0x104
 8004378:	f040 80b6 	bne.w	80044e8 <HAL_SPI_TransmitReceive_DMA+0x194>
 800437c:	68a0      	ldr	r0, [r4, #8]
 800437e:	2800      	cmp	r0, #0
 8004380:	f040 80b2 	bne.w	80044e8 <HAL_SPI_TransmitReceive_DMA+0x194>
 8004384:	2d04      	cmp	r5, #4
 8004386:	f040 80af 	bne.w	80044e8 <HAL_SPI_TransmitReceive_DMA+0x194>
 800438a:	2900      	cmp	r1, #0
 800438c:	f000 80ae 	beq.w	80044ec <HAL_SPI_TransmitReceive_DMA+0x198>
 8004390:	2a00      	cmp	r2, #0
 8004392:	f000 80ab 	beq.w	80044ec <HAL_SPI_TransmitReceive_DMA+0x198>
 8004396:	2b00      	cmp	r3, #0
 8004398:	f000 80a8 	beq.w	80044ec <HAL_SPI_TransmitReceive_DMA+0x198>
 800439c:	f894 005d 	ldrb.w	r0, [r4, #93]	; 0x5d
 80043a0:	63a1      	str	r1, [r4, #56]	; 0x38
 80043a2:	2804      	cmp	r0, #4
 80043a4:	bf1c      	itt	ne
 80043a6:	2005      	movne	r0, #5
 80043a8:	f884 005d 	strbne.w	r0, [r4, #93]	; 0x5d
 80043ac:	6821      	ldr	r1, [r4, #0]
 80043ae:	87a3      	strh	r3, [r4, #60]	; 0x3c
 80043b0:	2000      	movs	r0, #0
 80043b2:	6620      	str	r0, [r4, #96]	; 0x60
 80043b4:	87e3      	strh	r3, [r4, #62]	; 0x3e
 80043b6:	f8a4 3046 	strh.w	r3, [r4, #70]	; 0x46
 80043ba:	e9c4 0013 	strd	r0, r0, [r4, #76]	; 0x4c
 80043be:	6848      	ldr	r0, [r1, #4]
 80043c0:	6422      	str	r2, [r4, #64]	; 0x40
 80043c2:	f420 40c0 	bic.w	r0, r0, #24576	; 0x6000
 80043c6:	f8a4 3044 	strh.w	r3, [r4, #68]	; 0x44
 80043ca:	6048      	str	r0, [r1, #4]
 80043cc:	68e0      	ldr	r0, [r4, #12]
 80043ce:	f5b0 6fe0 	cmp.w	r0, #1792	; 0x700
 80043d2:	6da0      	ldr	r0, [r4, #88]	; 0x58
 80043d4:	d927      	bls.n	8004426 <HAL_SPI_TransmitReceive_DMA+0xd2>
 80043d6:	684b      	ldr	r3, [r1, #4]
 80043d8:	f423 5380 	bic.w	r3, r3, #4096	; 0x1000
 80043dc:	604b      	str	r3, [r1, #4]
 80043de:	f894 305d 	ldrb.w	r3, [r4, #93]	; 0x5d
 80043e2:	4e44      	ldr	r6, [pc, #272]	; (80044f4 <HAL_SPI_TransmitReceive_DMA+0x1a0>)
 80043e4:	4d44      	ldr	r5, [pc, #272]	; (80044f8 <HAL_SPI_TransmitReceive_DMA+0x1a4>)
 80043e6:	2b04      	cmp	r3, #4
 80043e8:	4b44      	ldr	r3, [pc, #272]	; (80044fc <HAL_SPI_TransmitReceive_DMA+0x1a8>)
 80043ea:	bf08      	it	eq
 80043ec:	461d      	moveq	r5, r3
 80043ee:	4b44      	ldr	r3, [pc, #272]	; (8004500 <HAL_SPI_TransmitReceive_DMA+0x1ac>)
 80043f0:	bf08      	it	eq
 80043f2:	4633      	moveq	r3, r6
 80043f4:	e9c0 350b 	strd	r3, r5, [r0, #44]	; 0x2c
 80043f8:	4b42      	ldr	r3, [pc, #264]	; (8004504 <HAL_SPI_TransmitReceive_DMA+0x1b0>)
 80043fa:	6343      	str	r3, [r0, #52]	; 0x34
 80043fc:	2300      	movs	r3, #0
 80043fe:	6383      	str	r3, [r0, #56]	; 0x38
 8004400:	f8b4 3046 	ldrh.w	r3, [r4, #70]	; 0x46
 8004404:	310c      	adds	r1, #12
 8004406:	b29b      	uxth	r3, r3
 8004408:	f7fe fce2 	bl	8002dd0 <HAL_DMA_Start_IT>
 800440c:	2800      	cmp	r0, #0
 800440e:	d047      	beq.n	80044a0 <HAL_SPI_TransmitReceive_DMA+0x14c>
 8004410:	6e23      	ldr	r3, [r4, #96]	; 0x60
 8004412:	2001      	movs	r0, #1
 8004414:	f043 0310 	orr.w	r3, r3, #16
 8004418:	6623      	str	r3, [r4, #96]	; 0x60
 800441a:	f884 005d 	strb.w	r0, [r4, #93]	; 0x5d
 800441e:	2300      	movs	r3, #0
 8004420:	f884 305c 	strb.w	r3, [r4, #92]	; 0x5c
 8004424:	bd70      	pop	{r4, r5, r6, pc}
 8004426:	684d      	ldr	r5, [r1, #4]
 8004428:	f445 5580 	orr.w	r5, r5, #4096	; 0x1000
 800442c:	604d      	str	r5, [r1, #4]
 800442e:	6d65      	ldr	r5, [r4, #84]	; 0x54
 8004430:	69ad      	ldr	r5, [r5, #24]
 8004432:	f5b5 6f80 	cmp.w	r5, #1024	; 0x400
 8004436:	d10a      	bne.n	800444e <HAL_SPI_TransmitReceive_DMA+0xfa>
 8004438:	f013 0f01 	tst.w	r3, #1
 800443c:	684b      	ldr	r3, [r1, #4]
 800443e:	d11e      	bne.n	800447e <HAL_SPI_TransmitReceive_DMA+0x12a>
 8004440:	f423 4380 	bic.w	r3, r3, #16384	; 0x4000
 8004444:	604b      	str	r3, [r1, #4]
 8004446:	8fe3      	ldrh	r3, [r4, #62]	; 0x3e
 8004448:	f3c3 034e 	ubfx	r3, r3, #1, #15
 800444c:	87e3      	strh	r3, [r4, #62]	; 0x3e
 800444e:	6983      	ldr	r3, [r0, #24]
 8004450:	f5b3 6f80 	cmp.w	r3, #1024	; 0x400
 8004454:	d1c3      	bne.n	80043de <HAL_SPI_TransmitReceive_DMA+0x8a>
 8004456:	684b      	ldr	r3, [r1, #4]
 8004458:	f423 5380 	bic.w	r3, r3, #4096	; 0x1000
 800445c:	604b      	str	r3, [r1, #4]
 800445e:	f8b4 3046 	ldrh.w	r3, [r4, #70]	; 0x46
 8004462:	f013 0f01 	tst.w	r3, #1
 8004466:	684b      	ldr	r3, [r1, #4]
 8004468:	d111      	bne.n	800448e <HAL_SPI_TransmitReceive_DMA+0x13a>
 800446a:	f423 5300 	bic.w	r3, r3, #8192	; 0x2000
 800446e:	604b      	str	r3, [r1, #4]
 8004470:	f8b4 3046 	ldrh.w	r3, [r4, #70]	; 0x46
 8004474:	f3c3 034e 	ubfx	r3, r3, #1, #15
 8004478:	f8a4 3046 	strh.w	r3, [r4, #70]	; 0x46
 800447c:	e7af      	b.n	80043de <HAL_SPI_TransmitReceive_DMA+0x8a>
 800447e:	f443 4380 	orr.w	r3, r3, #16384	; 0x4000
 8004482:	604b      	str	r3, [r1, #4]
 8004484:	8fe3      	ldrh	r3, [r4, #62]	; 0x3e
 8004486:	f3c3 034e 	ubfx	r3, r3, #1, #15
 800448a:	3301      	adds	r3, #1
 800448c:	e7de      	b.n	800444c <HAL_SPI_TransmitReceive_DMA+0xf8>
 800448e:	f443 5300 	orr.w	r3, r3, #8192	; 0x2000
 8004492:	604b      	str	r3, [r1, #4]
 8004494:	f8b4 3046 	ldrh.w	r3, [r4, #70]	; 0x46
 8004498:	f3c3 034e 	ubfx	r3, r3, #1, #15
 800449c:	3301      	adds	r3, #1
 800449e:	e7eb      	b.n	8004478 <HAL_SPI_TransmitReceive_DMA+0x124>
 80044a0:	6822      	ldr	r2, [r4, #0]
 80044a2:	6d65      	ldr	r5, [r4, #84]	; 0x54
 80044a4:	6853      	ldr	r3, [r2, #4]
 80044a6:	6ba1      	ldr	r1, [r4, #56]	; 0x38
 80044a8:	f043 0301 	orr.w	r3, r3, #1
 80044ac:	6053      	str	r3, [r2, #4]
 80044ae:	8fe3      	ldrh	r3, [r4, #62]	; 0x3e
 80044b0:	e9c5 000b 	strd	r0, r0, [r5, #44]	; 0x2c
 80044b4:	e9c5 000d 	strd	r0, r0, [r5, #52]	; 0x34
 80044b8:	b29b      	uxth	r3, r3
 80044ba:	320c      	adds	r2, #12
 80044bc:	4628      	mov	r0, r5
 80044be:	f7fe fc87 	bl	8002dd0 <HAL_DMA_Start_IT>
 80044c2:	2800      	cmp	r0, #0
 80044c4:	d1a4      	bne.n	8004410 <HAL_SPI_TransmitReceive_DMA+0xbc>
 80044c6:	6823      	ldr	r3, [r4, #0]
 80044c8:	681a      	ldr	r2, [r3, #0]
 80044ca:	0652      	lsls	r2, r2, #25
 80044cc:	bf5e      	ittt	pl
 80044ce:	681a      	ldrpl	r2, [r3, #0]
 80044d0:	f042 0240 	orrpl.w	r2, r2, #64	; 0x40
 80044d4:	601a      	strpl	r2, [r3, #0]
 80044d6:	685a      	ldr	r2, [r3, #4]
 80044d8:	f042 0220 	orr.w	r2, r2, #32
 80044dc:	605a      	str	r2, [r3, #4]
 80044de:	685a      	ldr	r2, [r3, #4]
 80044e0:	f042 0202 	orr.w	r2, r2, #2
 80044e4:	605a      	str	r2, [r3, #4]
 80044e6:	e79a      	b.n	800441e <HAL_SPI_TransmitReceive_DMA+0xca>
 80044e8:	2002      	movs	r0, #2
 80044ea:	e798      	b.n	800441e <HAL_SPI_TransmitReceive_DMA+0xca>
 80044ec:	2001      	movs	r0, #1
 80044ee:	e796      	b.n	800441e <HAL_SPI_TransmitReceive_DMA+0xca>
 80044f0:	2002      	movs	r0, #2
 80044f2:	e797      	b.n	8004424 <HAL_SPI_TransmitReceive_DMA+0xd0>
 80044f4:	08004547 	.word	0x08004547
 80044f8:	08004519 	.word	0x08004519
 80044fc:	0800450d 	.word	0x0800450d
 8004500:	080045af 	.word	0x080045af
 8004504:	08004525 	.word	0x08004525

08004508 <HAL_SPI_RxCpltCallback>:
 8004508:	4770      	bx	lr

0800450a <HAL_SPI_RxHalfCpltCallback>:
 800450a:	4770      	bx	lr

0800450c <SPI_DMAHalfReceiveCplt>:
 800450c:	b508      	push	{r3, lr}
 800450e:	6a80      	ldr	r0, [r0, #40]	; 0x28
 8004510:	f7ff fffb 	bl	800450a <HAL_SPI_RxHalfCpltCallback>
 8004514:	bd08      	pop	{r3, pc}

08004516 <HAL_SPI_TxRxHalfCpltCallback>:
 8004516:	4770      	bx	lr

08004518 <SPI_DMAHalfTransmitReceiveCplt>:
 8004518:	b508      	push	{r3, lr}
 800451a:	6a80      	ldr	r0, [r0, #40]	; 0x28
 800451c:	f7ff fffb 	bl	8004516 <HAL_SPI_TxRxHalfCpltCallback>
 8004520:	bd08      	pop	{r3, pc}

08004522 <HAL_SPI_ErrorCallback>:
 8004522:	4770      	bx	lr

08004524 <SPI_DMAError>:
 8004524:	6a80      	ldr	r0, [r0, #40]	; 0x28
 8004526:	6802      	ldr	r2, [r0, #0]
 8004528:	b508      	push	{r3, lr}
 800452a:	6853      	ldr	r3, [r2, #4]
 800452c:	f023 0303 	bic.w	r3, r3, #3
 8004530:	6053      	str	r3, [r2, #4]
 8004532:	6e03      	ldr	r3, [r0, #96]	; 0x60
 8004534:	f043 0310 	orr.w	r3, r3, #16
 8004538:	6603      	str	r3, [r0, #96]	; 0x60
 800453a:	2301      	movs	r3, #1
 800453c:	f880 305d 	strb.w	r3, [r0, #93]	; 0x5d
 8004540:	f7ff ffef 	bl	8004522 <HAL_SPI_ErrorCallback>
 8004544:	bd08      	pop	{r3, pc}

08004546 <SPI_DMAReceiveCplt>:
 8004546:	b538      	push	{r3, r4, r5, lr}
 8004548:	4605      	mov	r5, r0
 800454a:	6a84      	ldr	r4, [r0, #40]	; 0x28
 800454c:	f7fd fc0e 	bl	8001d6c <HAL_GetTick>
 8004550:	682b      	ldr	r3, [r5, #0]
 8004552:	681b      	ldr	r3, [r3, #0]
 8004554:	069b      	lsls	r3, r3, #26
 8004556:	4602      	mov	r2, r0
 8004558:	d425      	bmi.n	80045a6 <SPI_DMAReceiveCplt+0x60>
 800455a:	6823      	ldr	r3, [r4, #0]
 800455c:	6859      	ldr	r1, [r3, #4]
 800455e:	f021 0120 	bic.w	r1, r1, #32
 8004562:	6059      	str	r1, [r3, #4]
 8004564:	68a1      	ldr	r1, [r4, #8]
 8004566:	b9d1      	cbnz	r1, 800459e <SPI_DMAReceiveCplt+0x58>
 8004568:	6861      	ldr	r1, [r4, #4]
 800456a:	f5b1 7f82 	cmp.w	r1, #260	; 0x104
 800456e:	d116      	bne.n	800459e <SPI_DMAReceiveCplt+0x58>
 8004570:	6859      	ldr	r1, [r3, #4]
 8004572:	f021 0103 	bic.w	r1, r1, #3
 8004576:	6059      	str	r1, [r3, #4]
 8004578:	4620      	mov	r0, r4
 800457a:	2164      	movs	r1, #100	; 0x64
 800457c:	f7ff fe1e 	bl	80041bc <SPI_EndRxTransaction>
 8004580:	b108      	cbz	r0, 8004586 <SPI_DMAReceiveCplt+0x40>
 8004582:	2320      	movs	r3, #32
 8004584:	6623      	str	r3, [r4, #96]	; 0x60
 8004586:	2300      	movs	r3, #0
 8004588:	f8a4 3046 	strh.w	r3, [r4, #70]	; 0x46
 800458c:	2301      	movs	r3, #1
 800458e:	f884 305d 	strb.w	r3, [r4, #93]	; 0x5d
 8004592:	6e23      	ldr	r3, [r4, #96]	; 0x60
 8004594:	b13b      	cbz	r3, 80045a6 <SPI_DMAReceiveCplt+0x60>
 8004596:	4620      	mov	r0, r4
 8004598:	f7ff ffc3 	bl	8004522 <HAL_SPI_ErrorCallback>
 800459c:	bd38      	pop	{r3, r4, r5, pc}
 800459e:	6859      	ldr	r1, [r3, #4]
 80045a0:	f021 0101 	bic.w	r1, r1, #1
 80045a4:	e7e7      	b.n	8004576 <SPI_DMAReceiveCplt+0x30>
 80045a6:	4620      	mov	r0, r4
 80045a8:	f7ff ffae 	bl	8004508 <HAL_SPI_RxCpltCallback>
 80045ac:	e7f6      	b.n	800459c <SPI_DMAReceiveCplt+0x56>

080045ae <SPI_DMATransmitReceiveCplt>:
 80045ae:	b538      	push	{r3, r4, r5, lr}
 80045b0:	4605      	mov	r5, r0
 80045b2:	6a84      	ldr	r4, [r0, #40]	; 0x28
 80045b4:	f7fd fbda 	bl	8001d6c <HAL_GetTick>
 80045b8:	682b      	ldr	r3, [r5, #0]
 80045ba:	681b      	ldr	r3, [r3, #0]
 80045bc:	069b      	lsls	r3, r3, #26
 80045be:	4602      	mov	r2, r0
 80045c0:	d41f      	bmi.n	8004602 <SPI_DMATransmitReceiveCplt+0x54>
 80045c2:	6821      	ldr	r1, [r4, #0]
 80045c4:	684b      	ldr	r3, [r1, #4]
 80045c6:	f023 0320 	bic.w	r3, r3, #32
 80045ca:	604b      	str	r3, [r1, #4]
 80045cc:	4620      	mov	r0, r4
 80045ce:	2164      	movs	r1, #100	; 0x64
 80045d0:	f7ff fe2d 	bl	800422e <SPI_EndRxTxTransaction>
 80045d4:	b118      	cbz	r0, 80045de <SPI_DMATransmitReceiveCplt+0x30>
 80045d6:	6e23      	ldr	r3, [r4, #96]	; 0x60
 80045d8:	f043 0320 	orr.w	r3, r3, #32
 80045dc:	6623      	str	r3, [r4, #96]	; 0x60
 80045de:	6822      	ldr	r2, [r4, #0]
 80045e0:	6853      	ldr	r3, [r2, #4]
 80045e2:	f023 0303 	bic.w	r3, r3, #3
 80045e6:	6053      	str	r3, [r2, #4]
 80045e8:	2300      	movs	r3, #0
 80045ea:	87e3      	strh	r3, [r4, #62]	; 0x3e
 80045ec:	f8a4 3046 	strh.w	r3, [r4, #70]	; 0x46
 80045f0:	2301      	movs	r3, #1
 80045f2:	f884 305d 	strb.w	r3, [r4, #93]	; 0x5d
 80045f6:	6e23      	ldr	r3, [r4, #96]	; 0x60
 80045f8:	b11b      	cbz	r3, 8004602 <SPI_DMATransmitReceiveCplt+0x54>
 80045fa:	4620      	mov	r0, r4
 80045fc:	f7ff ff91 	bl	8004522 <HAL_SPI_ErrorCallback>
 8004600:	bd38      	pop	{r3, r4, r5, pc}
 8004602:	4620      	mov	r0, r4
 8004604:	f7fc f88e 	bl	8000724 <HAL_SPI_TxRxCpltCallback>
 8004608:	e7fa      	b.n	8004600 <SPI_DMATransmitReceiveCplt+0x52>
	...

0800460c <HAL_SPI_IRQHandler>:
 800460c:	6803      	ldr	r3, [r0, #0]
 800460e:	b530      	push	{r4, r5, lr}
 8004610:	6859      	ldr	r1, [r3, #4]
 8004612:	689a      	ldr	r2, [r3, #8]
 8004614:	f002 0541 	and.w	r5, r2, #65	; 0x41
 8004618:	2d01      	cmp	r5, #1
 800461a:	b085      	sub	sp, #20
 800461c:	4604      	mov	r4, r0
 800461e:	d106      	bne.n	800462e <HAL_SPI_IRQHandler+0x22>
 8004620:	064d      	lsls	r5, r1, #25
 8004622:	d504      	bpl.n	800462e <HAL_SPI_IRQHandler+0x22>
 8004624:	6cc3      	ldr	r3, [r0, #76]	; 0x4c
 8004626:	b005      	add	sp, #20
 8004628:	e8bd 4030 	ldmia.w	sp!, {r4, r5, lr}
 800462c:	4718      	bx	r3
 800462e:	0795      	lsls	r5, r2, #30
 8004630:	d504      	bpl.n	800463c <HAL_SPI_IRQHandler+0x30>
 8004632:	0608      	lsls	r0, r1, #24
 8004634:	d502      	bpl.n	800463c <HAL_SPI_IRQHandler+0x30>
 8004636:	6d23      	ldr	r3, [r4, #80]	; 0x50
 8004638:	4620      	mov	r0, r4
 800463a:	e7f4      	b.n	8004626 <HAL_SPI_IRQHandler+0x1a>
 800463c:	f412 7fb0 	tst.w	r2, #352	; 0x160
 8004640:	d059      	beq.n	80046f6 <HAL_SPI_IRQHandler+0xea>
 8004642:	068d      	lsls	r5, r1, #26
 8004644:	d557      	bpl.n	80046f6 <HAL_SPI_IRQHandler+0xea>
 8004646:	0650      	lsls	r0, r2, #25
 8004648:	d50f      	bpl.n	800466a <HAL_SPI_IRQHandler+0x5e>
 800464a:	f894 005d 	ldrb.w	r0, [r4, #93]	; 0x5d
 800464e:	2803      	cmp	r0, #3
 8004650:	f04f 0500 	mov.w	r5, #0
 8004654:	d049      	beq.n	80046ea <HAL_SPI_IRQHandler+0xde>
 8004656:	6e20      	ldr	r0, [r4, #96]	; 0x60
 8004658:	f040 0004 	orr.w	r0, r0, #4
 800465c:	6620      	str	r0, [r4, #96]	; 0x60
 800465e:	9500      	str	r5, [sp, #0]
 8004660:	68d8      	ldr	r0, [r3, #12]
 8004662:	9000      	str	r0, [sp, #0]
 8004664:	6898      	ldr	r0, [r3, #8]
 8004666:	9000      	str	r0, [sp, #0]
 8004668:	9800      	ldr	r0, [sp, #0]
 800466a:	0695      	lsls	r5, r2, #26
 800466c:	d50c      	bpl.n	8004688 <HAL_SPI_IRQHandler+0x7c>
 800466e:	6e20      	ldr	r0, [r4, #96]	; 0x60
 8004670:	f040 0001 	orr.w	r0, r0, #1
 8004674:	6620      	str	r0, [r4, #96]	; 0x60
 8004676:	2000      	movs	r0, #0
 8004678:	9002      	str	r0, [sp, #8]
 800467a:	6898      	ldr	r0, [r3, #8]
 800467c:	9002      	str	r0, [sp, #8]
 800467e:	6818      	ldr	r0, [r3, #0]
 8004680:	f020 0040 	bic.w	r0, r0, #64	; 0x40
 8004684:	6018      	str	r0, [r3, #0]
 8004686:	9802      	ldr	r0, [sp, #8]
 8004688:	05d0      	lsls	r0, r2, #23
 800468a:	d508      	bpl.n	800469e <HAL_SPI_IRQHandler+0x92>
 800468c:	6e22      	ldr	r2, [r4, #96]	; 0x60
 800468e:	f042 0208 	orr.w	r2, r2, #8
 8004692:	6622      	str	r2, [r4, #96]	; 0x60
 8004694:	2200      	movs	r2, #0
 8004696:	9203      	str	r2, [sp, #12]
 8004698:	689a      	ldr	r2, [r3, #8]
 800469a:	9203      	str	r2, [sp, #12]
 800469c:	9a03      	ldr	r2, [sp, #12]
 800469e:	6e22      	ldr	r2, [r4, #96]	; 0x60
 80046a0:	b34a      	cbz	r2, 80046f6 <HAL_SPI_IRQHandler+0xea>
 80046a2:	685a      	ldr	r2, [r3, #4]
 80046a4:	f022 02e0 	bic.w	r2, r2, #224	; 0xe0
 80046a8:	605a      	str	r2, [r3, #4]
 80046aa:	2201      	movs	r2, #1
 80046ac:	f884 205d 	strb.w	r2, [r4, #93]	; 0x5d
 80046b0:	078a      	lsls	r2, r1, #30
 80046b2:	d022      	beq.n	80046fa <HAL_SPI_IRQHandler+0xee>
 80046b4:	685a      	ldr	r2, [r3, #4]
 80046b6:	6da0      	ldr	r0, [r4, #88]	; 0x58
 80046b8:	f022 0203 	bic.w	r2, r2, #3
 80046bc:	605a      	str	r2, [r3, #4]
 80046be:	b140      	cbz	r0, 80046d2 <HAL_SPI_IRQHandler+0xc6>
 80046c0:	4b10      	ldr	r3, [pc, #64]	; (8004704 <HAL_SPI_IRQHandler+0xf8>)
 80046c2:	6383      	str	r3, [r0, #56]	; 0x38
 80046c4:	f7fe fbf8 	bl	8002eb8 <HAL_DMA_Abort_IT>
 80046c8:	b118      	cbz	r0, 80046d2 <HAL_SPI_IRQHandler+0xc6>
 80046ca:	6e23      	ldr	r3, [r4, #96]	; 0x60
 80046cc:	f043 0340 	orr.w	r3, r3, #64	; 0x40
 80046d0:	6623      	str	r3, [r4, #96]	; 0x60
 80046d2:	6d60      	ldr	r0, [r4, #84]	; 0x54
 80046d4:	b178      	cbz	r0, 80046f6 <HAL_SPI_IRQHandler+0xea>
 80046d6:	4b0b      	ldr	r3, [pc, #44]	; (8004704 <HAL_SPI_IRQHandler+0xf8>)
 80046d8:	6383      	str	r3, [r0, #56]	; 0x38
 80046da:	f7fe fbed 	bl	8002eb8 <HAL_DMA_Abort_IT>
 80046de:	b150      	cbz	r0, 80046f6 <HAL_SPI_IRQHandler+0xea>
 80046e0:	6e23      	ldr	r3, [r4, #96]	; 0x60
 80046e2:	f043 0340 	orr.w	r3, r3, #64	; 0x40
 80046e6:	6623      	str	r3, [r4, #96]	; 0x60
 80046e8:	e005      	b.n	80046f6 <HAL_SPI_IRQHandler+0xea>
 80046ea:	9501      	str	r5, [sp, #4]
 80046ec:	68da      	ldr	r2, [r3, #12]
 80046ee:	9201      	str	r2, [sp, #4]
 80046f0:	689b      	ldr	r3, [r3, #8]
 80046f2:	9301      	str	r3, [sp, #4]
 80046f4:	9b01      	ldr	r3, [sp, #4]
 80046f6:	b005      	add	sp, #20
 80046f8:	bd30      	pop	{r4, r5, pc}
 80046fa:	4620      	mov	r0, r4
 80046fc:	f7ff ff11 	bl	8004522 <HAL_SPI_ErrorCallback>
 8004700:	e7f9      	b.n	80046f6 <HAL_SPI_IRQHandler+0xea>
 8004702:	bf00      	nop
 8004704:	08004709 	.word	0x08004709

08004708 <SPI_DMAAbortOnError>:
 8004708:	b508      	push	{r3, lr}
 800470a:	6a80      	ldr	r0, [r0, #40]	; 0x28
 800470c:	2300      	movs	r3, #0
 800470e:	f8a0 3046 	strh.w	r3, [r0, #70]	; 0x46
 8004712:	87c3      	strh	r3, [r0, #62]	; 0x3e
 8004714:	f7ff ff05 	bl	8004522 <HAL_SPI_ErrorCallback>
 8004718:	bd08      	pop	{r3, pc}
	...

0800471c <TIM_OC1_SetConfig>:
 800471c:	6a03      	ldr	r3, [r0, #32]
 800471e:	f023 0301 	bic.w	r3, r3, #1
 8004722:	6203      	str	r3, [r0, #32]
 8004724:	6a03      	ldr	r3, [r0, #32]
 8004726:	b570      	push	{r4, r5, r6, lr}
 8004728:	6844      	ldr	r4, [r0, #4]
 800472a:	6982      	ldr	r2, [r0, #24]
 800472c:	680d      	ldr	r5, [r1, #0]
 800472e:	f422 3280 	bic.w	r2, r2, #65536	; 0x10000
 8004732:	f022 0273 	bic.w	r2, r2, #115	; 0x73
 8004736:	432a      	orrs	r2, r5
 8004738:	688d      	ldr	r5, [r1, #8]
 800473a:	f023 0302 	bic.w	r3, r3, #2
 800473e:	432b      	orrs	r3, r5
 8004740:	4d1b      	ldr	r5, [pc, #108]	; (80047b0 <TIM_OC1_SetConfig+0x94>)
 8004742:	42a8      	cmp	r0, r5
 8004744:	d00f      	beq.n	8004766 <TIM_OC1_SetConfig+0x4a>
 8004746:	f505 6500 	add.w	r5, r5, #2048	; 0x800
 800474a:	42a8      	cmp	r0, r5
 800474c:	d00b      	beq.n	8004766 <TIM_OC1_SetConfig+0x4a>
 800474e:	f505 6540 	add.w	r5, r5, #3072	; 0xc00
 8004752:	42a8      	cmp	r0, r5
 8004754:	d007      	beq.n	8004766 <TIM_OC1_SetConfig+0x4a>
 8004756:	f505 6580 	add.w	r5, r5, #1024	; 0x400
 800475a:	42a8      	cmp	r0, r5
 800475c:	d003      	beq.n	8004766 <TIM_OC1_SetConfig+0x4a>
 800475e:	f505 6580 	add.w	r5, r5, #1024	; 0x400
 8004762:	42a8      	cmp	r0, r5
 8004764:	d11e      	bne.n	80047a4 <TIM_OC1_SetConfig+0x88>
 8004766:	68cd      	ldr	r5, [r1, #12]
 8004768:	f023 0308 	bic.w	r3, r3, #8
 800476c:	432b      	orrs	r3, r5
 800476e:	4d10      	ldr	r5, [pc, #64]	; (80047b0 <TIM_OC1_SetConfig+0x94>)
 8004770:	42a8      	cmp	r0, r5
 8004772:	f023 0304 	bic.w	r3, r3, #4
 8004776:	d00f      	beq.n	8004798 <TIM_OC1_SetConfig+0x7c>
 8004778:	f505 6500 	add.w	r5, r5, #2048	; 0x800
 800477c:	42a8      	cmp	r0, r5
 800477e:	d00b      	beq.n	8004798 <TIM_OC1_SetConfig+0x7c>
 8004780:	f505 6540 	add.w	r5, r5, #3072	; 0xc00
 8004784:	42a8      	cmp	r0, r5
 8004786:	d007      	beq.n	8004798 <TIM_OC1_SetConfig+0x7c>
 8004788:	f505 6580 	add.w	r5, r5, #1024	; 0x400
 800478c:	42a8      	cmp	r0, r5
 800478e:	d003      	beq.n	8004798 <TIM_OC1_SetConfig+0x7c>
 8004790:	f505 6580 	add.w	r5, r5, #1024	; 0x400
 8004794:	42a8      	cmp	r0, r5
 8004796:	d105      	bne.n	80047a4 <TIM_OC1_SetConfig+0x88>
 8004798:	f424 7540 	bic.w	r5, r4, #768	; 0x300
 800479c:	e9d1 4605 	ldrd	r4, r6, [r1, #20]
 80047a0:	4334      	orrs	r4, r6
 80047a2:	432c      	orrs	r4, r5
 80047a4:	6044      	str	r4, [r0, #4]
 80047a6:	6182      	str	r2, [r0, #24]
 80047a8:	684a      	ldr	r2, [r1, #4]
 80047aa:	6342      	str	r2, [r0, #52]	; 0x34
 80047ac:	6203      	str	r3, [r0, #32]
 80047ae:	bd70      	pop	{r4, r5, r6, pc}
 80047b0:	40012c00 	.word	0x40012c00

080047b4 <TIM_OC3_SetConfig>:
 80047b4:	6a03      	ldr	r3, [r0, #32]
 80047b6:	f423 7380 	bic.w	r3, r3, #256	; 0x100
 80047ba:	6203      	str	r3, [r0, #32]
 80047bc:	6a03      	ldr	r3, [r0, #32]
 80047be:	b570      	push	{r4, r5, r6, lr}
 80047c0:	6844      	ldr	r4, [r0, #4]
 80047c2:	69c2      	ldr	r2, [r0, #28]
 80047c4:	680d      	ldr	r5, [r1, #0]
 80047c6:	f422 3280 	bic.w	r2, r2, #65536	; 0x10000
 80047ca:	f022 0273 	bic.w	r2, r2, #115	; 0x73
 80047ce:	432a      	orrs	r2, r5
 80047d0:	688d      	ldr	r5, [r1, #8]
 80047d2:	f423 7300 	bic.w	r3, r3, #512	; 0x200
 80047d6:	ea43 2305 	orr.w	r3, r3, r5, lsl #8
 80047da:	4d16      	ldr	r5, [pc, #88]	; (8004834 <TIM_OC3_SetConfig+0x80>)
 80047dc:	42a8      	cmp	r0, r5
 80047de:	d003      	beq.n	80047e8 <TIM_OC3_SetConfig+0x34>
 80047e0:	f505 6500 	add.w	r5, r5, #2048	; 0x800
 80047e4:	42a8      	cmp	r0, r5
 80047e6:	d10d      	bne.n	8004804 <TIM_OC3_SetConfig+0x50>
 80047e8:	68cd      	ldr	r5, [r1, #12]
 80047ea:	f423 6300 	bic.w	r3, r3, #2048	; 0x800
 80047ee:	ea43 2305 	orr.w	r3, r3, r5, lsl #8
 80047f2:	4d10      	ldr	r5, [pc, #64]	; (8004834 <TIM_OC3_SetConfig+0x80>)
 80047f4:	42a8      	cmp	r0, r5
 80047f6:	f423 6380 	bic.w	r3, r3, #1024	; 0x400
 80047fa:	d00e      	beq.n	800481a <TIM_OC3_SetConfig+0x66>
 80047fc:	f505 6500 	add.w	r5, r5, #2048	; 0x800
 8004800:	42a8      	cmp	r0, r5
 8004802:	d00a      	beq.n	800481a <TIM_OC3_SetConfig+0x66>
 8004804:	4d0c      	ldr	r5, [pc, #48]	; (8004838 <TIM_OC3_SetConfig+0x84>)
 8004806:	42a8      	cmp	r0, r5
 8004808:	d007      	beq.n	800481a <TIM_OC3_SetConfig+0x66>
 800480a:	f505 6580 	add.w	r5, r5, #1024	; 0x400
 800480e:	42a8      	cmp	r0, r5
 8004810:	d003      	beq.n	800481a <TIM_OC3_SetConfig+0x66>
 8004812:	f505 6580 	add.w	r5, r5, #1024	; 0x400
 8004816:	42a8      	cmp	r0, r5
 8004818:	d106      	bne.n	8004828 <TIM_OC3_SetConfig+0x74>
 800481a:	f424 5540 	bic.w	r5, r4, #12288	; 0x3000
 800481e:	e9d1 4605 	ldrd	r4, r6, [r1, #20]
 8004822:	4334      	orrs	r4, r6
 8004824:	ea45 1404 	orr.w	r4, r5, r4, lsl #4
 8004828:	6044      	str	r4, [r0, #4]
 800482a:	61c2      	str	r2, [r0, #28]
 800482c:	684a      	ldr	r2, [r1, #4]
 800482e:	63c2      	str	r2, [r0, #60]	; 0x3c
 8004830:	6203      	str	r3, [r0, #32]
 8004832:	bd70      	pop	{r4, r5, r6, pc}
 8004834:	40012c00 	.word	0x40012c00
 8004838:	40014000 	.word	0x40014000

0800483c <TIM_OC4_SetConfig>:
 800483c:	6a03      	ldr	r3, [r0, #32]
 800483e:	f423 5380 	bic.w	r3, r3, #4096	; 0x1000
 8004842:	6203      	str	r3, [r0, #32]
 8004844:	6a03      	ldr	r3, [r0, #32]
 8004846:	b570      	push	{r4, r5, r6, lr}
 8004848:	6844      	ldr	r4, [r0, #4]
 800484a:	69c2      	ldr	r2, [r0, #28]
 800484c:	680d      	ldr	r5, [r1, #0]
 800484e:	f022 7280 	bic.w	r2, r2, #16777216	; 0x1000000
 8004852:	f422 42e6 	bic.w	r2, r2, #29440	; 0x7300
 8004856:	ea42 2205 	orr.w	r2, r2, r5, lsl #8
 800485a:	688d      	ldr	r5, [r1, #8]
 800485c:	f423 5300 	bic.w	r3, r3, #8192	; 0x2000
 8004860:	ea43 3305 	orr.w	r3, r3, r5, lsl #12
 8004864:	4d16      	ldr	r5, [pc, #88]	; (80048c0 <TIM_OC4_SetConfig+0x84>)
 8004866:	42a8      	cmp	r0, r5
 8004868:	d003      	beq.n	8004872 <TIM_OC4_SetConfig+0x36>
 800486a:	f505 6500 	add.w	r5, r5, #2048	; 0x800
 800486e:	42a8      	cmp	r0, r5
 8004870:	d10d      	bne.n	800488e <TIM_OC4_SetConfig+0x52>
 8004872:	68cd      	ldr	r5, [r1, #12]
 8004874:	f423 4300 	bic.w	r3, r3, #32768	; 0x8000
 8004878:	ea43 3305 	orr.w	r3, r3, r5, lsl #12
 800487c:	4d10      	ldr	r5, [pc, #64]	; (80048c0 <TIM_OC4_SetConfig+0x84>)
 800487e:	42a8      	cmp	r0, r5
 8004880:	f423 4380 	bic.w	r3, r3, #16384	; 0x4000
 8004884:	d00e      	beq.n	80048a4 <TIM_OC4_SetConfig+0x68>
 8004886:	f505 6500 	add.w	r5, r5, #2048	; 0x800
 800488a:	42a8      	cmp	r0, r5
 800488c:	d00a      	beq.n	80048a4 <TIM_OC4_SetConfig+0x68>
 800488e:	4d0d      	ldr	r5, [pc, #52]	; (80048c4 <TIM_OC4_SetConfig+0x88>)
 8004890:	42a8      	cmp	r0, r5
 8004892:	d007      	beq.n	80048a4 <TIM_OC4_SetConfig+0x68>
 8004894:	f505 6580 	add.w	r5, r5, #1024	; 0x400
 8004898:	42a8      	cmp	r0, r5
 800489a:	d003      	beq.n	80048a4 <TIM_OC4_SetConfig+0x68>
 800489c:	f505 6580 	add.w	r5, r5, #1024	; 0x400
 80048a0:	42a8      	cmp	r0, r5
 80048a2:	d106      	bne.n	80048b2 <TIM_OC4_SetConfig+0x76>
 80048a4:	f424 4540 	bic.w	r5, r4, #49152	; 0xc000
 80048a8:	e9d1 4605 	ldrd	r4, r6, [r1, #20]
 80048ac:	4334      	orrs	r4, r6
 80048ae:	ea45 1484 	orr.w	r4, r5, r4, lsl #6
 80048b2:	6044      	str	r4, [r0, #4]
 80048b4:	61c2      	str	r2, [r0, #28]
 80048b6:	684a      	ldr	r2, [r1, #4]
 80048b8:	6402      	str	r2, [r0, #64]	; 0x40
 80048ba:	6203      	str	r3, [r0, #32]
 80048bc:	bd70      	pop	{r4, r5, r6, pc}
 80048be:	bf00      	nop
 80048c0:	40012c00 	.word	0x40012c00
 80048c4:	40014000 	.word	0x40014000

080048c8 <TIM_OC5_SetConfig>:
 80048c8:	6a03      	ldr	r3, [r0, #32]
 80048ca:	f423 3380 	bic.w	r3, r3, #65536	; 0x10000
 80048ce:	6203      	str	r3, [r0, #32]
 80048d0:	6a03      	ldr	r3, [r0, #32]
 80048d2:	b530      	push	{r4, r5, lr}
 80048d4:	6844      	ldr	r4, [r0, #4]
 80048d6:	6d02      	ldr	r2, [r0, #80]	; 0x50
 80048d8:	680d      	ldr	r5, [r1, #0]
 80048da:	f422 3280 	bic.w	r2, r2, #65536	; 0x10000
 80048de:	f022 0270 	bic.w	r2, r2, #112	; 0x70
 80048e2:	432a      	orrs	r2, r5
 80048e4:	688d      	ldr	r5, [r1, #8]
 80048e6:	f423 3300 	bic.w	r3, r3, #131072	; 0x20000
 80048ea:	ea43 4305 	orr.w	r3, r3, r5, lsl #16
 80048ee:	4d0f      	ldr	r5, [pc, #60]	; (800492c <TIM_OC5_SetConfig+0x64>)
 80048f0:	42a8      	cmp	r0, r5
 80048f2:	d00f      	beq.n	8004914 <TIM_OC5_SetConfig+0x4c>
 80048f4:	f505 6500 	add.w	r5, r5, #2048	; 0x800
 80048f8:	42a8      	cmp	r0, r5
 80048fa:	d00b      	beq.n	8004914 <TIM_OC5_SetConfig+0x4c>
 80048fc:	f505 6540 	add.w	r5, r5, #3072	; 0xc00
 8004900:	42a8      	cmp	r0, r5
 8004902:	d007      	beq.n	8004914 <TIM_OC5_SetConfig+0x4c>
 8004904:	f505 6580 	add.w	r5, r5, #1024	; 0x400
 8004908:	42a8      	cmp	r0, r5
 800490a:	d003      	beq.n	8004914 <TIM_OC5_SetConfig+0x4c>
 800490c:	f505 6580 	add.w	r5, r5, #1024	; 0x400
 8004910:	42a8      	cmp	r0, r5
 8004912:	d104      	bne.n	800491e <TIM_OC5_SetConfig+0x56>
 8004914:	694d      	ldr	r5, [r1, #20]
 8004916:	f424 3480 	bic.w	r4, r4, #65536	; 0x10000
 800491a:	ea44 2405 	orr.w	r4, r4, r5, lsl #8
 800491e:	6044      	str	r4, [r0, #4]
 8004920:	6502      	str	r2, [r0, #80]	; 0x50
 8004922:	684a      	ldr	r2, [r1, #4]
 8004924:	6482      	str	r2, [r0, #72]	; 0x48
 8004926:	6203      	str	r3, [r0, #32]
 8004928:	bd30      	pop	{r4, r5, pc}
 800492a:	bf00      	nop
 800492c:	40012c00 	.word	0x40012c00

08004930 <TIM_OC6_SetConfig>:
 8004930:	6a03      	ldr	r3, [r0, #32]
 8004932:	f423 1380 	bic.w	r3, r3, #1048576	; 0x100000
 8004936:	6203      	str	r3, [r0, #32]
 8004938:	6a03      	ldr	r3, [r0, #32]
 800493a:	b530      	push	{r4, r5, lr}
 800493c:	6844      	ldr	r4, [r0, #4]
 800493e:	6d02      	ldr	r2, [r0, #80]	; 0x50
 8004940:	680d      	ldr	r5, [r1, #0]
 8004942:	f022 7280 	bic.w	r2, r2, #16777216	; 0x1000000
 8004946:	f422 42e0 	bic.w	r2, r2, #28672	; 0x7000
 800494a:	ea42 2205 	orr.w	r2, r2, r5, lsl #8
 800494e:	688d      	ldr	r5, [r1, #8]
 8004950:	f423 1300 	bic.w	r3, r3, #2097152	; 0x200000
 8004954:	ea43 5305 	orr.w	r3, r3, r5, lsl #20
 8004958:	4d0e      	ldr	r5, [pc, #56]	; (8004994 <TIM_OC6_SetConfig+0x64>)
 800495a:	42a8      	cmp	r0, r5
 800495c:	d00f      	beq.n	800497e <TIM_OC6_SetConfig+0x4e>
 800495e:	f505 6500 	add.w	r5, r5, #2048	; 0x800
 8004962:	42a8      	cmp	r0, r5
 8004964:	d00b      	beq.n	800497e <TIM_OC6_SetConfig+0x4e>
 8004966:	f505 6540 	add.w	r5, r5, #3072	; 0xc00
 800496a:	42a8      	cmp	r0, r5
 800496c:	d007      	beq.n	800497e <TIM_OC6_SetConfig+0x4e>
 800496e:	f505 6580 	add.w	r5, r5, #1024	; 0x400
 8004972:	42a8      	cmp	r0, r5
 8004974:	d003      	beq.n	800497e <TIM_OC6_SetConfig+0x4e>
 8004976:	f505 6580 	add.w	r5, r5, #1024	; 0x400
 800497a:	42a8      	cmp	r0, r5
 800497c:	d104      	bne.n	8004988 <TIM_OC6_SetConfig+0x58>
 800497e:	694d      	ldr	r5, [r1, #20]
 8004980:	f424 2480 	bic.w	r4, r4, #262144	; 0x40000
 8004984:	ea44 2485 	orr.w	r4, r4, r5, lsl #10
 8004988:	6044      	str	r4, [r0, #4]
 800498a:	6502      	str	r2, [r0, #80]	; 0x50
 800498c:	684a      	ldr	r2, [r1, #4]
 800498e:	64c2      	str	r2, [r0, #76]	; 0x4c
 8004990:	6203      	str	r3, [r0, #32]
 8004992:	bd30      	pop	{r4, r5, pc}
 8004994:	40012c00 	.word	0x40012c00

08004998 <HAL_TIM_Base_Start_IT>:
 8004998:	f890 303d 	ldrb.w	r3, [r0, #61]	; 0x3d
 800499c:	2b01      	cmp	r3, #1
 800499e:	d12b      	bne.n	80049f8 <HAL_TIM_Base_Start_IT+0x60>
 80049a0:	2302      	movs	r3, #2
 80049a2:	f880 303d 	strb.w	r3, [r0, #61]	; 0x3d
 80049a6:	6803      	ldr	r3, [r0, #0]
 80049a8:	68da      	ldr	r2, [r3, #12]
 80049aa:	f042 0201 	orr.w	r2, r2, #1
 80049ae:	60da      	str	r2, [r3, #12]
 80049b0:	4a12      	ldr	r2, [pc, #72]	; (80049fc <HAL_TIM_Base_Start_IT+0x64>)
 80049b2:	4293      	cmp	r3, r2
 80049b4:	d012      	beq.n	80049dc <HAL_TIM_Base_Start_IT+0x44>
 80049b6:	f1b3 4f80 	cmp.w	r3, #1073741824	; 0x40000000
 80049ba:	d00f      	beq.n	80049dc <HAL_TIM_Base_Start_IT+0x44>
 80049bc:	f5a2 3294 	sub.w	r2, r2, #75776	; 0x12800
 80049c0:	4293      	cmp	r3, r2
 80049c2:	d00b      	beq.n	80049dc <HAL_TIM_Base_Start_IT+0x44>
 80049c4:	f502 6280 	add.w	r2, r2, #1024	; 0x400
 80049c8:	4293      	cmp	r3, r2
 80049ca:	d007      	beq.n	80049dc <HAL_TIM_Base_Start_IT+0x44>
 80049cc:	f502 3296 	add.w	r2, r2, #76800	; 0x12c00
 80049d0:	4293      	cmp	r3, r2
 80049d2:	d003      	beq.n	80049dc <HAL_TIM_Base_Start_IT+0x44>
 80049d4:	f502 6240 	add.w	r2, r2, #3072	; 0xc00
 80049d8:	4293      	cmp	r3, r2
 80049da:	d107      	bne.n	80049ec <HAL_TIM_Base_Start_IT+0x54>
 80049dc:	6899      	ldr	r1, [r3, #8]
 80049de:	4a08      	ldr	r2, [pc, #32]	; (8004a00 <HAL_TIM_Base_Start_IT+0x68>)
 80049e0:	400a      	ands	r2, r1
 80049e2:	2a06      	cmp	r2, #6
 80049e4:	d006      	beq.n	80049f4 <HAL_TIM_Base_Start_IT+0x5c>
 80049e6:	f5b2 3f80 	cmp.w	r2, #65536	; 0x10000
 80049ea:	d003      	beq.n	80049f4 <HAL_TIM_Base_Start_IT+0x5c>
 80049ec:	681a      	ldr	r2, [r3, #0]
 80049ee:	f042 0201 	orr.w	r2, r2, #1
 80049f2:	601a      	str	r2, [r3, #0]
 80049f4:	2000      	movs	r0, #0
 80049f6:	4770      	bx	lr
 80049f8:	2001      	movs	r0, #1
 80049fa:	4770      	bx	lr
 80049fc:	40012c00 	.word	0x40012c00
 8004a00:	00010007 	.word	0x00010007

08004a04 <HAL_TIM_PWM_MspInit>:
 8004a04:	4770      	bx	lr

08004a06 <HAL_TIM_OC_DelayElapsedCallback>:
 8004a06:	4770      	bx	lr

08004a08 <HAL_TIM_IC_CaptureCallback>:
 8004a08:	4770      	bx	lr

08004a0a <HAL_TIM_PWM_PulseFinishedCallback>:
 8004a0a:	4770      	bx	lr

08004a0c <HAL_TIM_TriggerCallback>:
 8004a0c:	4770      	bx	lr

08004a0e <HAL_TIM_IRQHandler>:
 8004a0e:	6803      	ldr	r3, [r0, #0]
 8004a10:	691a      	ldr	r2, [r3, #16]
 8004a12:	0791      	lsls	r1, r2, #30
 8004a14:	b510      	push	{r4, lr}
 8004a16:	4604      	mov	r4, r0
 8004a18:	d50f      	bpl.n	8004a3a <HAL_TIM_IRQHandler+0x2c>
 8004a1a:	68da      	ldr	r2, [r3, #12]
 8004a1c:	0792      	lsls	r2, r2, #30
 8004a1e:	d50c      	bpl.n	8004a3a <HAL_TIM_IRQHandler+0x2c>
 8004a20:	f06f 0202 	mvn.w	r2, #2
 8004a24:	611a      	str	r2, [r3, #16]
 8004a26:	2201      	movs	r2, #1
 8004a28:	7702      	strb	r2, [r0, #28]
 8004a2a:	699b      	ldr	r3, [r3, #24]
 8004a2c:	0799      	lsls	r1, r3, #30
 8004a2e:	f000 80bc 	beq.w	8004baa <HAL_TIM_IRQHandler+0x19c>
 8004a32:	f7ff ffe9 	bl	8004a08 <HAL_TIM_IC_CaptureCallback>
 8004a36:	2300      	movs	r3, #0
 8004a38:	7723      	strb	r3, [r4, #28]
 8004a3a:	6823      	ldr	r3, [r4, #0]
 8004a3c:	691a      	ldr	r2, [r3, #16]
 8004a3e:	0752      	lsls	r2, r2, #29
 8004a40:	d511      	bpl.n	8004a66 <HAL_TIM_IRQHandler+0x58>
 8004a42:	68da      	ldr	r2, [r3, #12]
 8004a44:	0750      	lsls	r0, r2, #29
 8004a46:	d50e      	bpl.n	8004a66 <HAL_TIM_IRQHandler+0x58>
 8004a48:	f06f 0204 	mvn.w	r2, #4
 8004a4c:	611a      	str	r2, [r3, #16]
 8004a4e:	2202      	movs	r2, #2
 8004a50:	7722      	strb	r2, [r4, #28]
 8004a52:	699b      	ldr	r3, [r3, #24]
 8004a54:	f413 7f40 	tst.w	r3, #768	; 0x300
 8004a58:	4620      	mov	r0, r4
 8004a5a:	f000 80ac 	beq.w	8004bb6 <HAL_TIM_IRQHandler+0x1a8>
 8004a5e:	f7ff ffd3 	bl	8004a08 <HAL_TIM_IC_CaptureCallback>
 8004a62:	2300      	movs	r3, #0
 8004a64:	7723      	strb	r3, [r4, #28]
 8004a66:	6823      	ldr	r3, [r4, #0]
 8004a68:	691a      	ldr	r2, [r3, #16]
 8004a6a:	0711      	lsls	r1, r2, #28
 8004a6c:	d510      	bpl.n	8004a90 <HAL_TIM_IRQHandler+0x82>
 8004a6e:	68da      	ldr	r2, [r3, #12]
 8004a70:	0712      	lsls	r2, r2, #28
 8004a72:	d50d      	bpl.n	8004a90 <HAL_TIM_IRQHandler+0x82>
 8004a74:	f06f 0208 	mvn.w	r2, #8
 8004a78:	611a      	str	r2, [r3, #16]
 8004a7a:	2204      	movs	r2, #4
 8004a7c:	7722      	strb	r2, [r4, #28]
 8004a7e:	69db      	ldr	r3, [r3, #28]
 8004a80:	079b      	lsls	r3, r3, #30
 8004a82:	4620      	mov	r0, r4
 8004a84:	f000 809d 	beq.w	8004bc2 <HAL_TIM_IRQHandler+0x1b4>
 8004a88:	f7ff ffbe 	bl	8004a08 <HAL_TIM_IC_CaptureCallback>
 8004a8c:	2300      	movs	r3, #0
 8004a8e:	7723      	strb	r3, [r4, #28]
 8004a90:	6823      	ldr	r3, [r4, #0]
 8004a92:	691a      	ldr	r2, [r3, #16]
 8004a94:	06d1      	lsls	r1, r2, #27
 8004a96:	d511      	bpl.n	8004abc <HAL_TIM_IRQHandler+0xae>
 8004a98:	68da      	ldr	r2, [r3, #12]
 8004a9a:	06d2      	lsls	r2, r2, #27
 8004a9c:	d50e      	bpl.n	8004abc <HAL_TIM_IRQHandler+0xae>
 8004a9e:	f06f 0210 	mvn.w	r2, #16
 8004aa2:	611a      	str	r2, [r3, #16]
 8004aa4:	2208      	movs	r2, #8
 8004aa6:	7722      	strb	r2, [r4, #28]
 8004aa8:	69db      	ldr	r3, [r3, #28]
 8004aaa:	f413 7f40 	tst.w	r3, #768	; 0x300
 8004aae:	4620      	mov	r0, r4
 8004ab0:	f000 808d 	beq.w	8004bce <HAL_TIM_IRQHandler+0x1c0>
 8004ab4:	f7ff ffa8 	bl	8004a08 <HAL_TIM_IC_CaptureCallback>
 8004ab8:	2300      	movs	r3, #0
 8004aba:	7723      	strb	r3, [r4, #28]
 8004abc:	6823      	ldr	r3, [r4, #0]
 8004abe:	691a      	ldr	r2, [r3, #16]
 8004ac0:	07d0      	lsls	r0, r2, #31
 8004ac2:	d508      	bpl.n	8004ad6 <HAL_TIM_IRQHandler+0xc8>
 8004ac4:	68da      	ldr	r2, [r3, #12]
 8004ac6:	07d1      	lsls	r1, r2, #31
 8004ac8:	d505      	bpl.n	8004ad6 <HAL_TIM_IRQHandler+0xc8>
 8004aca:	f06f 0201 	mvn.w	r2, #1
 8004ace:	611a      	str	r2, [r3, #16]
 8004ad0:	4620      	mov	r0, r4
 8004ad2:	f7fb feb9 	bl	8000848 <HAL_TIM_PeriodElapsedCallback>
 8004ad6:	6823      	ldr	r3, [r4, #0]
 8004ad8:	691a      	ldr	r2, [r3, #16]
 8004ada:	0612      	lsls	r2, r2, #24
 8004adc:	d508      	bpl.n	8004af0 <HAL_TIM_IRQHandler+0xe2>
 8004ade:	68da      	ldr	r2, [r3, #12]
 8004ae0:	0610      	lsls	r0, r2, #24
 8004ae2:	d505      	bpl.n	8004af0 <HAL_TIM_IRQHandler+0xe2>
 8004ae4:	f06f 0280 	mvn.w	r2, #128	; 0x80
 8004ae8:	611a      	str	r2, [r3, #16]
 8004aea:	4620      	mov	r0, r4
 8004aec:	f000 fb55 	bl	800519a <HAL_TIMEx_BreakCallback>
 8004af0:	6823      	ldr	r3, [r4, #0]
 8004af2:	691a      	ldr	r2, [r3, #16]
 8004af4:	05d1      	lsls	r1, r2, #23
 8004af6:	d508      	bpl.n	8004b0a <HAL_TIM_IRQHandler+0xfc>
 8004af8:	68da      	ldr	r2, [r3, #12]
 8004afa:	0612      	lsls	r2, r2, #24
 8004afc:	d505      	bpl.n	8004b0a <HAL_TIM_IRQHandler+0xfc>
 8004afe:	f46f 7280 	mvn.w	r2, #256	; 0x100
 8004b02:	611a      	str	r2, [r3, #16]
 8004b04:	4620      	mov	r0, r4
 8004b06:	f000 fb49 	bl	800519c <HAL_TIMEx_Break2Callback>
 8004b0a:	6823      	ldr	r3, [r4, #0]
 8004b0c:	691a      	ldr	r2, [r3, #16]
 8004b0e:	0650      	lsls	r0, r2, #25
 8004b10:	d508      	bpl.n	8004b24 <HAL_TIM_IRQHandler+0x116>
 8004b12:	68da      	ldr	r2, [r3, #12]
 8004b14:	0651      	lsls	r1, r2, #25
 8004b16:	d505      	bpl.n	8004b24 <HAL_TIM_IRQHandler+0x116>
 8004b18:	f06f 0240 	mvn.w	r2, #64	; 0x40
 8004b1c:	611a      	str	r2, [r3, #16]
 8004b1e:	4620      	mov	r0, r4
 8004b20:	f7ff ff74 	bl	8004a0c <HAL_TIM_TriggerCallback>
 8004b24:	6823      	ldr	r3, [r4, #0]
 8004b26:	691a      	ldr	r2, [r3, #16]
 8004b28:	0692      	lsls	r2, r2, #26
 8004b2a:	d508      	bpl.n	8004b3e <HAL_TIM_IRQHandler+0x130>
 8004b2c:	68da      	ldr	r2, [r3, #12]
 8004b2e:	0690      	lsls	r0, r2, #26
 8004b30:	d505      	bpl.n	8004b3e <HAL_TIM_IRQHandler+0x130>
 8004b32:	f06f 0220 	mvn.w	r2, #32
 8004b36:	611a      	str	r2, [r3, #16]
 8004b38:	4620      	mov	r0, r4
 8004b3a:	f000 fb2d 	bl	8005198 <HAL_TIMEx_CommutCallback>
 8004b3e:	6823      	ldr	r3, [r4, #0]
 8004b40:	691a      	ldr	r2, [r3, #16]
 8004b42:	02d1      	lsls	r1, r2, #11
 8004b44:	d508      	bpl.n	8004b58 <HAL_TIM_IRQHandler+0x14a>
 8004b46:	68da      	ldr	r2, [r3, #12]
 8004b48:	02d2      	lsls	r2, r2, #11
 8004b4a:	d505      	bpl.n	8004b58 <HAL_TIM_IRQHandler+0x14a>
 8004b4c:	f46f 1280 	mvn.w	r2, #1048576	; 0x100000
 8004b50:	611a      	str	r2, [r3, #16]
 8004b52:	4620      	mov	r0, r4
 8004b54:	f000 fb23 	bl	800519e <HAL_TIMEx_EncoderIndexCallback>
 8004b58:	6823      	ldr	r3, [r4, #0]
 8004b5a:	691a      	ldr	r2, [r3, #16]
 8004b5c:	0290      	lsls	r0, r2, #10
 8004b5e:	d508      	bpl.n	8004b72 <HAL_TIM_IRQHandler+0x164>
 8004b60:	68da      	ldr	r2, [r3, #12]
 8004b62:	0291      	lsls	r1, r2, #10
 8004b64:	d505      	bpl.n	8004b72 <HAL_TIM_IRQHandler+0x164>
 8004b66:	f46f 1200 	mvn.w	r2, #2097152	; 0x200000
 8004b6a:	611a      	str	r2, [r3, #16]
 8004b6c:	4620      	mov	r0, r4
 8004b6e:	f000 fb17 	bl	80051a0 <HAL_TIMEx_DirectionChangeCallback>
 8004b72:	6823      	ldr	r3, [r4, #0]
 8004b74:	691a      	ldr	r2, [r3, #16]
 8004b76:	0252      	lsls	r2, r2, #9
 8004b78:	d508      	bpl.n	8004b8c <HAL_TIM_IRQHandler+0x17e>
 8004b7a:	68da      	ldr	r2, [r3, #12]
 8004b7c:	0250      	lsls	r0, r2, #9
 8004b7e:	d505      	bpl.n	8004b8c <HAL_TIM_IRQHandler+0x17e>
 8004b80:	f46f 0280 	mvn.w	r2, #4194304	; 0x400000
 8004b84:	611a      	str	r2, [r3, #16]
 8004b86:	4620      	mov	r0, r4
 8004b88:	f000 fb0b 	bl	80051a2 <HAL_TIMEx_IndexErrorCallback>
 8004b8c:	6823      	ldr	r3, [r4, #0]
 8004b8e:	691a      	ldr	r2, [r3, #16]
 8004b90:	0211      	lsls	r1, r2, #8
 8004b92:	d522      	bpl.n	8004bda <HAL_TIM_IRQHandler+0x1cc>
 8004b94:	68da      	ldr	r2, [r3, #12]
 8004b96:	0212      	lsls	r2, r2, #8
 8004b98:	d51f      	bpl.n	8004bda <HAL_TIM_IRQHandler+0x1cc>
 8004b9a:	f46f 0200 	mvn.w	r2, #8388608	; 0x800000
 8004b9e:	4620      	mov	r0, r4
 8004ba0:	611a      	str	r2, [r3, #16]
 8004ba2:	e8bd 4010 	ldmia.w	sp!, {r4, lr}
 8004ba6:	f000 bafd 	b.w	80051a4 <HAL_TIMEx_TransitionErrorCallback>
 8004baa:	f7ff ff2c 	bl	8004a06 <HAL_TIM_OC_DelayElapsedCallback>
 8004bae:	4620      	mov	r0, r4
 8004bb0:	f7ff ff2b 	bl	8004a0a <HAL_TIM_PWM_PulseFinishedCallback>
 8004bb4:	e73f      	b.n	8004a36 <HAL_TIM_IRQHandler+0x28>
 8004bb6:	f7ff ff26 	bl	8004a06 <HAL_TIM_OC_DelayElapsedCallback>
 8004bba:	4620      	mov	r0, r4
 8004bbc:	f7ff ff25 	bl	8004a0a <HAL_TIM_PWM_PulseFinishedCallback>
 8004bc0:	e74f      	b.n	8004a62 <HAL_TIM_IRQHandler+0x54>
 8004bc2:	f7ff ff20 	bl	8004a06 <HAL_TIM_OC_DelayElapsedCallback>
 8004bc6:	4620      	mov	r0, r4
 8004bc8:	f7ff ff1f 	bl	8004a0a <HAL_TIM_PWM_PulseFinishedCallback>
 8004bcc:	e75e      	b.n	8004a8c <HAL_TIM_IRQHandler+0x7e>
 8004bce:	f7ff ff1a 	bl	8004a06 <HAL_TIM_OC_DelayElapsedCallback>
 8004bd2:	4620      	mov	r0, r4
 8004bd4:	f7ff ff19 	bl	8004a0a <HAL_TIM_PWM_PulseFinishedCallback>
 8004bd8:	e76e      	b.n	8004ab8 <HAL_TIM_IRQHandler+0xaa>
 8004bda:	bd10      	pop	{r4, pc}

08004bdc <TIM_Base_SetConfig>:
 8004bdc:	4a2c      	ldr	r2, [pc, #176]	; (8004c90 <TIM_Base_SetConfig+0xb4>)
 8004bde:	6803      	ldr	r3, [r0, #0]
 8004be0:	4290      	cmp	r0, r2
 8004be2:	d00e      	beq.n	8004c02 <TIM_Base_SetConfig+0x26>
 8004be4:	f1b0 4f80 	cmp.w	r0, #1073741824	; 0x40000000
 8004be8:	d00b      	beq.n	8004c02 <TIM_Base_SetConfig+0x26>
 8004bea:	f5a2 3294 	sub.w	r2, r2, #75776	; 0x12800
 8004bee:	4290      	cmp	r0, r2
 8004bf0:	d007      	beq.n	8004c02 <TIM_Base_SetConfig+0x26>
 8004bf2:	f502 6280 	add.w	r2, r2, #1024	; 0x400
 8004bf6:	4290      	cmp	r0, r2
 8004bf8:	d003      	beq.n	8004c02 <TIM_Base_SetConfig+0x26>
 8004bfa:	f502 3296 	add.w	r2, r2, #76800	; 0x12c00
 8004bfe:	4290      	cmp	r0, r2
 8004c00:	d115      	bne.n	8004c2e <TIM_Base_SetConfig+0x52>
 8004c02:	684a      	ldr	r2, [r1, #4]
 8004c04:	f023 0370 	bic.w	r3, r3, #112	; 0x70
 8004c08:	4313      	orrs	r3, r2
 8004c0a:	4a21      	ldr	r2, [pc, #132]	; (8004c90 <TIM_Base_SetConfig+0xb4>)
 8004c0c:	4290      	cmp	r0, r2
 8004c0e:	d019      	beq.n	8004c44 <TIM_Base_SetConfig+0x68>
 8004c10:	f1b0 4f80 	cmp.w	r0, #1073741824	; 0x40000000
 8004c14:	d016      	beq.n	8004c44 <TIM_Base_SetConfig+0x68>
 8004c16:	f5a2 3294 	sub.w	r2, r2, #75776	; 0x12800
 8004c1a:	4290      	cmp	r0, r2
 8004c1c:	d012      	beq.n	8004c44 <TIM_Base_SetConfig+0x68>
 8004c1e:	f502 6280 	add.w	r2, r2, #1024	; 0x400
 8004c22:	4290      	cmp	r0, r2
 8004c24:	d00e      	beq.n	8004c44 <TIM_Base_SetConfig+0x68>
 8004c26:	f502 3296 	add.w	r2, r2, #76800	; 0x12c00
 8004c2a:	4290      	cmp	r0, r2
 8004c2c:	d00a      	beq.n	8004c44 <TIM_Base_SetConfig+0x68>
 8004c2e:	4a19      	ldr	r2, [pc, #100]	; (8004c94 <TIM_Base_SetConfig+0xb8>)
 8004c30:	4290      	cmp	r0, r2
 8004c32:	d007      	beq.n	8004c44 <TIM_Base_SetConfig+0x68>
 8004c34:	f502 6280 	add.w	r2, r2, #1024	; 0x400
 8004c38:	4290      	cmp	r0, r2
 8004c3a:	d003      	beq.n	8004c44 <TIM_Base_SetConfig+0x68>
 8004c3c:	f502 6280 	add.w	r2, r2, #1024	; 0x400
 8004c40:	4290      	cmp	r0, r2
 8004c42:	d103      	bne.n	8004c4c <TIM_Base_SetConfig+0x70>
 8004c44:	68ca      	ldr	r2, [r1, #12]
 8004c46:	f423 7340 	bic.w	r3, r3, #768	; 0x300
 8004c4a:	4313      	orrs	r3, r2
 8004c4c:	694a      	ldr	r2, [r1, #20]
 8004c4e:	f023 0380 	bic.w	r3, r3, #128	; 0x80
 8004c52:	4313      	orrs	r3, r2
 8004c54:	6003      	str	r3, [r0, #0]
 8004c56:	688b      	ldr	r3, [r1, #8]
 8004c58:	62c3      	str	r3, [r0, #44]	; 0x2c
 8004c5a:	680b      	ldr	r3, [r1, #0]
 8004c5c:	6283      	str	r3, [r0, #40]	; 0x28
 8004c5e:	4b0c      	ldr	r3, [pc, #48]	; (8004c90 <TIM_Base_SetConfig+0xb4>)
 8004c60:	4298      	cmp	r0, r3
 8004c62:	d00f      	beq.n	8004c84 <TIM_Base_SetConfig+0xa8>
 8004c64:	f503 6300 	add.w	r3, r3, #2048	; 0x800
 8004c68:	4298      	cmp	r0, r3
 8004c6a:	d00b      	beq.n	8004c84 <TIM_Base_SetConfig+0xa8>
 8004c6c:	f503 6340 	add.w	r3, r3, #3072	; 0xc00
 8004c70:	4298      	cmp	r0, r3
 8004c72:	d007      	beq.n	8004c84 <TIM_Base_SetConfig+0xa8>
 8004c74:	f503 6380 	add.w	r3, r3, #1024	; 0x400
 8004c78:	4298      	cmp	r0, r3
 8004c7a:	d003      	beq.n	8004c84 <TIM_Base_SetConfig+0xa8>
 8004c7c:	f503 6380 	add.w	r3, r3, #1024	; 0x400
 8004c80:	4298      	cmp	r0, r3
 8004c82:	d101      	bne.n	8004c88 <TIM_Base_SetConfig+0xac>
 8004c84:	690b      	ldr	r3, [r1, #16]
 8004c86:	6303      	str	r3, [r0, #48]	; 0x30
 8004c88:	2301      	movs	r3, #1
 8004c8a:	6143      	str	r3, [r0, #20]
 8004c8c:	4770      	bx	lr
 8004c8e:	bf00      	nop
 8004c90:	40012c00 	.word	0x40012c00
 8004c94:	40014000 	.word	0x40014000

08004c98 <HAL_TIM_Base_Init>:
 8004c98:	b510      	push	{r4, lr}
 8004c9a:	4604      	mov	r4, r0
 8004c9c:	b350      	cbz	r0, 8004cf4 <HAL_TIM_Base_Init+0x5c>
 8004c9e:	f890 303d 	ldrb.w	r3, [r0, #61]	; 0x3d
 8004ca2:	f003 02ff 	and.w	r2, r3, #255	; 0xff
 8004ca6:	b91b      	cbnz	r3, 8004cb0 <HAL_TIM_Base_Init+0x18>
 8004ca8:	f880 203c 	strb.w	r2, [r0, #60]	; 0x3c
 8004cac:	f7fc fe5a 	bl	8001964 <HAL_TIM_Base_MspInit>
 8004cb0:	2302      	movs	r3, #2
 8004cb2:	6820      	ldr	r0, [r4, #0]
 8004cb4:	f884 303d 	strb.w	r3, [r4, #61]	; 0x3d
 8004cb8:	1d21      	adds	r1, r4, #4
 8004cba:	f7ff ff8f 	bl	8004bdc <TIM_Base_SetConfig>
 8004cbe:	2301      	movs	r3, #1
 8004cc0:	f884 3048 	strb.w	r3, [r4, #72]	; 0x48
 8004cc4:	2000      	movs	r0, #0
 8004cc6:	f884 303e 	strb.w	r3, [r4, #62]	; 0x3e
 8004cca:	f884 303f 	strb.w	r3, [r4, #63]	; 0x3f
 8004cce:	f884 3040 	strb.w	r3, [r4, #64]	; 0x40
 8004cd2:	f884 3041 	strb.w	r3, [r4, #65]	; 0x41
 8004cd6:	f884 3042 	strb.w	r3, [r4, #66]	; 0x42
 8004cda:	f884 3043 	strb.w	r3, [r4, #67]	; 0x43
 8004cde:	f884 3044 	strb.w	r3, [r4, #68]	; 0x44
 8004ce2:	f884 3045 	strb.w	r3, [r4, #69]	; 0x45
 8004ce6:	f884 3046 	strb.w	r3, [r4, #70]	; 0x46
 8004cea:	f884 3047 	strb.w	r3, [r4, #71]	; 0x47
 8004cee:	f884 303d 	strb.w	r3, [r4, #61]	; 0x3d
 8004cf2:	bd10      	pop	{r4, pc}
 8004cf4:	2001      	movs	r0, #1
 8004cf6:	e7fc      	b.n	8004cf2 <HAL_TIM_Base_Init+0x5a>

08004cf8 <HAL_TIM_PWM_Init>:
 8004cf8:	b510      	push	{r4, lr}
 8004cfa:	4604      	mov	r4, r0
 8004cfc:	b350      	cbz	r0, 8004d54 <HAL_TIM_PWM_Init+0x5c>
 8004cfe:	f890 303d 	ldrb.w	r3, [r0, #61]	; 0x3d
 8004d02:	f003 02ff 	and.w	r2, r3, #255	; 0xff
 8004d06:	b91b      	cbnz	r3, 8004d10 <HAL_TIM_PWM_Init+0x18>
 8004d08:	f880 203c 	strb.w	r2, [r0, #60]	; 0x3c
 8004d0c:	f7ff fe7a 	bl	8004a04 <HAL_TIM_PWM_MspInit>
 8004d10:	2302      	movs	r3, #2
 8004d12:	6820      	ldr	r0, [r4, #0]
 8004d14:	f884 303d 	strb.w	r3, [r4, #61]	; 0x3d
 8004d18:	1d21      	adds	r1, r4, #4
 8004d1a:	f7ff ff5f 	bl	8004bdc <TIM_Base_SetConfig>
 8004d1e:	2301      	movs	r3, #1
 8004d20:	f884 3048 	strb.w	r3, [r4, #72]	; 0x48
 8004d24:	2000      	movs	r0, #0
 8004d26:	f884 303e 	strb.w	r3, [r4, #62]	; 0x3e
 8004d2a:	f884 303f 	strb.w	r3, [r4, #63]	; 0x3f
 8004d2e:	f884 3040 	strb.w	r3, [r4, #64]	; 0x40
 8004d32:	f884 3041 	strb.w	r3, [r4, #65]	; 0x41
 8004d36:	f884 3042 	strb.w	r3, [r4, #66]	; 0x42
 8004d3a:	f884 3043 	strb.w	r3, [r4, #67]	; 0x43
 8004d3e:	f884 3044 	strb.w	r3, [r4, #68]	; 0x44
 8004d42:	f884 3045 	strb.w	r3, [r4, #69]	; 0x45
 8004d46:	f884 3046 	strb.w	r3, [r4, #70]	; 0x46
 8004d4a:	f884 3047 	strb.w	r3, [r4, #71]	; 0x47
 8004d4e:	f884 303d 	strb.w	r3, [r4, #61]	; 0x3d
 8004d52:	bd10      	pop	{r4, pc}
 8004d54:	2001      	movs	r0, #1
 8004d56:	e7fc      	b.n	8004d52 <HAL_TIM_PWM_Init+0x5a>

08004d58 <TIM_OC2_SetConfig>:
 8004d58:	6a03      	ldr	r3, [r0, #32]
 8004d5a:	f023 0310 	bic.w	r3, r3, #16
 8004d5e:	6203      	str	r3, [r0, #32]
 8004d60:	6a03      	ldr	r3, [r0, #32]
 8004d62:	b570      	push	{r4, r5, r6, lr}
 8004d64:	6844      	ldr	r4, [r0, #4]
 8004d66:	6982      	ldr	r2, [r0, #24]
 8004d68:	680d      	ldr	r5, [r1, #0]
 8004d6a:	f022 7280 	bic.w	r2, r2, #16777216	; 0x1000000
 8004d6e:	f422 42e6 	bic.w	r2, r2, #29440	; 0x7300
 8004d72:	ea42 2205 	orr.w	r2, r2, r5, lsl #8
 8004d76:	688d      	ldr	r5, [r1, #8]
 8004d78:	f023 0320 	bic.w	r3, r3, #32
 8004d7c:	ea43 1305 	orr.w	r3, r3, r5, lsl #4
 8004d80:	4d16      	ldr	r5, [pc, #88]	; (8004ddc <TIM_OC2_SetConfig+0x84>)
 8004d82:	42a8      	cmp	r0, r5
 8004d84:	d003      	beq.n	8004d8e <TIM_OC2_SetConfig+0x36>
 8004d86:	f505 6500 	add.w	r5, r5, #2048	; 0x800
 8004d8a:	42a8      	cmp	r0, r5
 8004d8c:	d10d      	bne.n	8004daa <TIM_OC2_SetConfig+0x52>
 8004d8e:	68cd      	ldr	r5, [r1, #12]
 8004d90:	f023 0380 	bic.w	r3, r3, #128	; 0x80
 8004d94:	ea43 1305 	orr.w	r3, r3, r5, lsl #4
 8004d98:	4d10      	ldr	r5, [pc, #64]	; (8004ddc <TIM_OC2_SetConfig+0x84>)
 8004d9a:	42a8      	cmp	r0, r5
 8004d9c:	f023 0340 	bic.w	r3, r3, #64	; 0x40
 8004da0:	d00e      	beq.n	8004dc0 <TIM_OC2_SetConfig+0x68>
 8004da2:	f505 6500 	add.w	r5, r5, #2048	; 0x800
 8004da6:	42a8      	cmp	r0, r5
 8004da8:	d00a      	beq.n	8004dc0 <TIM_OC2_SetConfig+0x68>
 8004daa:	4d0d      	ldr	r5, [pc, #52]	; (8004de0 <TIM_OC2_SetConfig+0x88>)
 8004dac:	42a8      	cmp	r0, r5
 8004dae:	d007      	beq.n	8004dc0 <TIM_OC2_SetConfig+0x68>
 8004db0:	f505 6580 	add.w	r5, r5, #1024	; 0x400
 8004db4:	42a8      	cmp	r0, r5
 8004db6:	d003      	beq.n	8004dc0 <TIM_OC2_SetConfig+0x68>
 8004db8:	f505 6580 	add.w	r5, r5, #1024	; 0x400
 8004dbc:	42a8      	cmp	r0, r5
 8004dbe:	d106      	bne.n	8004dce <TIM_OC2_SetConfig+0x76>
 8004dc0:	f424 6540 	bic.w	r5, r4, #3072	; 0xc00
 8004dc4:	e9d1 4605 	ldrd	r4, r6, [r1, #20]
 8004dc8:	4334      	orrs	r4, r6
 8004dca:	ea45 0484 	orr.w	r4, r5, r4, lsl #2
 8004dce:	6044      	str	r4, [r0, #4]
 8004dd0:	6182      	str	r2, [r0, #24]
 8004dd2:	684a      	ldr	r2, [r1, #4]
 8004dd4:	6382      	str	r2, [r0, #56]	; 0x38
 8004dd6:	6203      	str	r3, [r0, #32]
 8004dd8:	bd70      	pop	{r4, r5, r6, pc}
 8004dda:	bf00      	nop
 8004ddc:	40012c00 	.word	0x40012c00
 8004de0:	40014000 	.word	0x40014000

08004de4 <HAL_TIM_PWM_ConfigChannel>:
 8004de4:	b570      	push	{r4, r5, r6, lr}
 8004de6:	f890 303c 	ldrb.w	r3, [r0, #60]	; 0x3c
 8004dea:	2b01      	cmp	r3, #1
 8004dec:	4605      	mov	r5, r0
 8004dee:	d074      	beq.n	8004eda <HAL_TIM_PWM_ConfigChannel+0xf6>
 8004df0:	2301      	movs	r3, #1
 8004df2:	2a0c      	cmp	r2, #12
 8004df4:	f880 303c 	strb.w	r3, [r0, #60]	; 0x3c
 8004df8:	d04f      	beq.n	8004e9a <HAL_TIM_PWM_ConfigChannel+0xb6>
 8004dfa:	d809      	bhi.n	8004e10 <HAL_TIM_PWM_ConfigChannel+0x2c>
 8004dfc:	2a04      	cmp	r2, #4
 8004dfe:	d02c      	beq.n	8004e5a <HAL_TIM_PWM_ConfigChannel+0x76>
 8004e00:	2a08      	cmp	r2, #8
 8004e02:	d03a      	beq.n	8004e7a <HAL_TIM_PWM_ConfigChannel+0x96>
 8004e04:	b1c2      	cbz	r2, 8004e38 <HAL_TIM_PWM_ConfigChannel+0x54>
 8004e06:	4618      	mov	r0, r3
 8004e08:	2300      	movs	r3, #0
 8004e0a:	f885 303c 	strb.w	r3, [r5, #60]	; 0x3c
 8004e0e:	bd70      	pop	{r4, r5, r6, pc}
 8004e10:	2a10      	cmp	r2, #16
 8004e12:	d052      	beq.n	8004eba <HAL_TIM_PWM_ConfigChannel+0xd6>
 8004e14:	2a14      	cmp	r2, #20
 8004e16:	d1f6      	bne.n	8004e06 <HAL_TIM_PWM_ConfigChannel+0x22>
 8004e18:	6800      	ldr	r0, [r0, #0]
 8004e1a:	f7ff fd89 	bl	8004930 <TIM_OC6_SetConfig>
 8004e1e:	6d03      	ldr	r3, [r0, #80]	; 0x50
 8004e20:	690a      	ldr	r2, [r1, #16]
 8004e22:	f443 6300 	orr.w	r3, r3, #2048	; 0x800
 8004e26:	6503      	str	r3, [r0, #80]	; 0x50
 8004e28:	6d03      	ldr	r3, [r0, #80]	; 0x50
 8004e2a:	f423 6380 	bic.w	r3, r3, #1024	; 0x400
 8004e2e:	6503      	str	r3, [r0, #80]	; 0x50
 8004e30:	6d03      	ldr	r3, [r0, #80]	; 0x50
 8004e32:	ea43 2302 	orr.w	r3, r3, r2, lsl #8
 8004e36:	e04e      	b.n	8004ed6 <HAL_TIM_PWM_ConfigChannel+0xf2>
 8004e38:	6800      	ldr	r0, [r0, #0]
 8004e3a:	f7ff fc6f 	bl	800471c <TIM_OC1_SetConfig>
 8004e3e:	6983      	ldr	r3, [r0, #24]
 8004e40:	690a      	ldr	r2, [r1, #16]
 8004e42:	f043 0308 	orr.w	r3, r3, #8
 8004e46:	6183      	str	r3, [r0, #24]
 8004e48:	6983      	ldr	r3, [r0, #24]
 8004e4a:	f023 0304 	bic.w	r3, r3, #4
 8004e4e:	6183      	str	r3, [r0, #24]
 8004e50:	6983      	ldr	r3, [r0, #24]
 8004e52:	4313      	orrs	r3, r2
 8004e54:	6183      	str	r3, [r0, #24]
 8004e56:	2000      	movs	r0, #0
 8004e58:	e7d6      	b.n	8004e08 <HAL_TIM_PWM_ConfigChannel+0x24>
 8004e5a:	6800      	ldr	r0, [r0, #0]
 8004e5c:	f7ff ff7c 	bl	8004d58 <TIM_OC2_SetConfig>
 8004e60:	6983      	ldr	r3, [r0, #24]
 8004e62:	690a      	ldr	r2, [r1, #16]
 8004e64:	f443 6300 	orr.w	r3, r3, #2048	; 0x800
 8004e68:	6183      	str	r3, [r0, #24]
 8004e6a:	6983      	ldr	r3, [r0, #24]
 8004e6c:	f423 6380 	bic.w	r3, r3, #1024	; 0x400
 8004e70:	6183      	str	r3, [r0, #24]
 8004e72:	6983      	ldr	r3, [r0, #24]
 8004e74:	ea43 2302 	orr.w	r3, r3, r2, lsl #8
 8004e78:	e7ec      	b.n	8004e54 <HAL_TIM_PWM_ConfigChannel+0x70>
 8004e7a:	6800      	ldr	r0, [r0, #0]
 8004e7c:	f7ff fc9a 	bl	80047b4 <TIM_OC3_SetConfig>
 8004e80:	69c3      	ldr	r3, [r0, #28]
 8004e82:	690a      	ldr	r2, [r1, #16]
 8004e84:	f043 0308 	orr.w	r3, r3, #8
 8004e88:	61c3      	str	r3, [r0, #28]
 8004e8a:	69c3      	ldr	r3, [r0, #28]
 8004e8c:	f023 0304 	bic.w	r3, r3, #4
 8004e90:	61c3      	str	r3, [r0, #28]
 8004e92:	69c3      	ldr	r3, [r0, #28]
 8004e94:	4313      	orrs	r3, r2
 8004e96:	61c3      	str	r3, [r0, #28]
 8004e98:	e7dd      	b.n	8004e56 <HAL_TIM_PWM_ConfigChannel+0x72>
 8004e9a:	6800      	ldr	r0, [r0, #0]
 8004e9c:	f7ff fcce 	bl	800483c <TIM_OC4_SetConfig>
 8004ea0:	69c3      	ldr	r3, [r0, #28]
 8004ea2:	690a      	ldr	r2, [r1, #16]
 8004ea4:	f443 6300 	orr.w	r3, r3, #2048	; 0x800
 8004ea8:	61c3      	str	r3, [r0, #28]
 8004eaa:	69c3      	ldr	r3, [r0, #28]
 8004eac:	f423 6380 	bic.w	r3, r3, #1024	; 0x400
 8004eb0:	61c3      	str	r3, [r0, #28]
 8004eb2:	69c3      	ldr	r3, [r0, #28]
 8004eb4:	ea43 2302 	orr.w	r3, r3, r2, lsl #8
 8004eb8:	e7ed      	b.n	8004e96 <HAL_TIM_PWM_ConfigChannel+0xb2>
 8004eba:	6800      	ldr	r0, [r0, #0]
 8004ebc:	f7ff fd04 	bl	80048c8 <TIM_OC5_SetConfig>
 8004ec0:	6d03      	ldr	r3, [r0, #80]	; 0x50
 8004ec2:	690a      	ldr	r2, [r1, #16]
 8004ec4:	f043 0308 	orr.w	r3, r3, #8
 8004ec8:	6503      	str	r3, [r0, #80]	; 0x50
 8004eca:	6d03      	ldr	r3, [r0, #80]	; 0x50
 8004ecc:	f023 0304 	bic.w	r3, r3, #4
 8004ed0:	6503      	str	r3, [r0, #80]	; 0x50
 8004ed2:	6d03      	ldr	r3, [r0, #80]	; 0x50
 8004ed4:	4313      	orrs	r3, r2
 8004ed6:	6503      	str	r3, [r0, #80]	; 0x50
 8004ed8:	e7bd      	b.n	8004e56 <HAL_TIM_PWM_ConfigChannel+0x72>
 8004eda:	2002      	movs	r0, #2
 8004edc:	e797      	b.n	8004e0e <HAL_TIM_PWM_ConfigChannel+0x2a>

08004ede <TIM_ETR_SetConfig>:
 8004ede:	b510      	push	{r4, lr}
 8004ee0:	6884      	ldr	r4, [r0, #8]
 8004ee2:	4311      	orrs	r1, r2
 8004ee4:	f424 447f 	bic.w	r4, r4, #65280	; 0xff00
 8004ee8:	ea41 2303 	orr.w	r3, r1, r3, lsl #8
 8004eec:	4323      	orrs	r3, r4
 8004eee:	6083      	str	r3, [r0, #8]
 8004ef0:	bd10      	pop	{r4, pc}
	...

08004ef4 <HAL_TIM_ConfigClockSource>:
 8004ef4:	b538      	push	{r3, r4, r5, lr}
 8004ef6:	f890 303c 	ldrb.w	r3, [r0, #60]	; 0x3c
 8004efa:	2b01      	cmp	r3, #1
 8004efc:	4604      	mov	r4, r0
 8004efe:	f04f 0302 	mov.w	r3, #2
 8004f02:	f000 80aa 	beq.w	800505a <HAL_TIM_ConfigClockSource+0x166>
 8004f06:	2201      	movs	r2, #1
 8004f08:	f880 303d 	strb.w	r3, [r0, #61]	; 0x3d
 8004f0c:	f880 203c 	strb.w	r2, [r0, #60]	; 0x3c
 8004f10:	6800      	ldr	r0, [r0, #0]
 8004f12:	4b53      	ldr	r3, [pc, #332]	; (8005060 <HAL_TIM_ConfigClockSource+0x16c>)
 8004f14:	6885      	ldr	r5, [r0, #8]
 8004f16:	402b      	ands	r3, r5
 8004f18:	6083      	str	r3, [r0, #8]
 8004f1a:	680b      	ldr	r3, [r1, #0]
 8004f1c:	2b70      	cmp	r3, #112	; 0x70
 8004f1e:	d056      	beq.n	8004fce <HAL_TIM_ConfigClockSource+0xda>
 8004f20:	d83c      	bhi.n	8004f9c <HAL_TIM_ConfigClockSource+0xa8>
 8004f22:	2b50      	cmp	r3, #80	; 0x50
 8004f24:	d067      	beq.n	8004ff6 <HAL_TIM_ConfigClockSource+0x102>
 8004f26:	d81d      	bhi.n	8004f64 <HAL_TIM_ConfigClockSource+0x70>
 8004f28:	2b40      	cmp	r3, #64	; 0x40
 8004f2a:	d07d      	beq.n	8005028 <HAL_TIM_ConfigClockSource+0x134>
 8004f2c:	d806      	bhi.n	8004f3c <HAL_TIM_ConfigClockSource+0x48>
 8004f2e:	2b20      	cmp	r3, #32
 8004f30:	d00e      	beq.n	8004f50 <HAL_TIM_ConfigClockSource+0x5c>
 8004f32:	d80b      	bhi.n	8004f4c <HAL_TIM_ConfigClockSource+0x58>
 8004f34:	f033 0210 	bics.w	r2, r3, #16
 8004f38:	d00a      	beq.n	8004f50 <HAL_TIM_ConfigClockSource+0x5c>
 8004f3a:	2201      	movs	r2, #1
 8004f3c:	2301      	movs	r3, #1
 8004f3e:	f884 303d 	strb.w	r3, [r4, #61]	; 0x3d
 8004f42:	2300      	movs	r3, #0
 8004f44:	f884 303c 	strb.w	r3, [r4, #60]	; 0x3c
 8004f48:	4610      	mov	r0, r2
 8004f4a:	bd38      	pop	{r3, r4, r5, pc}
 8004f4c:	2b30      	cmp	r3, #48	; 0x30
 8004f4e:	d1f4      	bne.n	8004f3a <HAL_TIM_ConfigClockSource+0x46>
 8004f50:	6882      	ldr	r2, [r0, #8]
 8004f52:	f422 1240 	bic.w	r2, r2, #3145728	; 0x300000
 8004f56:	f022 0270 	bic.w	r2, r2, #112	; 0x70
 8004f5a:	431a      	orrs	r2, r3
 8004f5c:	f042 0207 	orr.w	r2, r2, #7
 8004f60:	6082      	str	r2, [r0, #8]
 8004f62:	e03d      	b.n	8004fe0 <HAL_TIM_ConfigClockSource+0xec>
 8004f64:	2b60      	cmp	r3, #96	; 0x60
 8004f66:	d1e9      	bne.n	8004f3c <HAL_TIM_ConfigClockSource+0x48>
 8004f68:	6a03      	ldr	r3, [r0, #32]
 8004f6a:	684d      	ldr	r5, [r1, #4]
 8004f6c:	68c9      	ldr	r1, [r1, #12]
 8004f6e:	f023 0310 	bic.w	r3, r3, #16
 8004f72:	6203      	str	r3, [r0, #32]
 8004f74:	6982      	ldr	r2, [r0, #24]
 8004f76:	6a03      	ldr	r3, [r0, #32]
 8004f78:	f422 4270 	bic.w	r2, r2, #61440	; 0xf000
 8004f7c:	f023 03a0 	bic.w	r3, r3, #160	; 0xa0
 8004f80:	ea43 1305 	orr.w	r3, r3, r5, lsl #4
 8004f84:	ea42 3201 	orr.w	r2, r2, r1, lsl #12
 8004f88:	6182      	str	r2, [r0, #24]
 8004f8a:	6203      	str	r3, [r0, #32]
 8004f8c:	6883      	ldr	r3, [r0, #8]
 8004f8e:	f423 1340 	bic.w	r3, r3, #3145728	; 0x300000
 8004f92:	f023 0370 	bic.w	r3, r3, #112	; 0x70
 8004f96:	f043 0367 	orr.w	r3, r3, #103	; 0x67
 8004f9a:	e020      	b.n	8004fde <HAL_TIM_ConfigClockSource+0xea>
 8004f9c:	f5b3 5f00 	cmp.w	r3, #8192	; 0x2000
 8004fa0:	d020      	beq.n	8004fe4 <HAL_TIM_ConfigClockSource+0xf0>
 8004fa2:	d804      	bhi.n	8004fae <HAL_TIM_ConfigClockSource+0xba>
 8004fa4:	f5b3 5280 	subs.w	r2, r3, #4096	; 0x1000
 8004fa8:	bf18      	it	ne
 8004faa:	2201      	movne	r2, #1
 8004fac:	e7c6      	b.n	8004f3c <HAL_TIM_ConfigClockSource+0x48>
 8004fae:	492d      	ldr	r1, [pc, #180]	; (8005064 <HAL_TIM_ConfigClockSource+0x170>)
 8004fb0:	428b      	cmp	r3, r1
 8004fb2:	d0cd      	beq.n	8004f50 <HAL_TIM_ConfigClockSource+0x5c>
 8004fb4:	d806      	bhi.n	8004fc4 <HAL_TIM_ConfigClockSource+0xd0>
 8004fb6:	f1b3 1f10 	cmp.w	r3, #1048592	; 0x100010
 8004fba:	d0c9      	beq.n	8004f50 <HAL_TIM_ConfigClockSource+0x5c>
 8004fbc:	3910      	subs	r1, #16
 8004fbe:	428b      	cmp	r3, r1
 8004fc0:	d0c6      	beq.n	8004f50 <HAL_TIM_ConfigClockSource+0x5c>
 8004fc2:	e7bb      	b.n	8004f3c <HAL_TIM_ConfigClockSource+0x48>
 8004fc4:	4928      	ldr	r1, [pc, #160]	; (8005068 <HAL_TIM_ConfigClockSource+0x174>)
 8004fc6:	428b      	cmp	r3, r1
 8004fc8:	d0c2      	beq.n	8004f50 <HAL_TIM_ConfigClockSource+0x5c>
 8004fca:	3130      	adds	r1, #48	; 0x30
 8004fcc:	e7f7      	b.n	8004fbe <HAL_TIM_ConfigClockSource+0xca>
 8004fce:	68cb      	ldr	r3, [r1, #12]
 8004fd0:	e9d1 2101 	ldrd	r2, r1, [r1, #4]
 8004fd4:	f7ff ff83 	bl	8004ede <TIM_ETR_SetConfig>
 8004fd8:	6883      	ldr	r3, [r0, #8]
 8004fda:	f043 0377 	orr.w	r3, r3, #119	; 0x77
 8004fde:	6083      	str	r3, [r0, #8]
 8004fe0:	2200      	movs	r2, #0
 8004fe2:	e7ab      	b.n	8004f3c <HAL_TIM_ConfigClockSource+0x48>
 8004fe4:	68cb      	ldr	r3, [r1, #12]
 8004fe6:	e9d1 2101 	ldrd	r2, r1, [r1, #4]
 8004fea:	f7ff ff78 	bl	8004ede <TIM_ETR_SetConfig>
 8004fee:	6883      	ldr	r3, [r0, #8]
 8004ff0:	f443 4380 	orr.w	r3, r3, #16384	; 0x4000
 8004ff4:	e7f3      	b.n	8004fde <HAL_TIM_ConfigClockSource+0xea>
 8004ff6:	684a      	ldr	r2, [r1, #4]
 8004ff8:	68cd      	ldr	r5, [r1, #12]
 8004ffa:	6a01      	ldr	r1, [r0, #32]
 8004ffc:	6a03      	ldr	r3, [r0, #32]
 8004ffe:	f023 0301 	bic.w	r3, r3, #1
 8005002:	6203      	str	r3, [r0, #32]
 8005004:	6983      	ldr	r3, [r0, #24]
 8005006:	f021 010a 	bic.w	r1, r1, #10
 800500a:	f023 03f0 	bic.w	r3, r3, #240	; 0xf0
 800500e:	ea43 1305 	orr.w	r3, r3, r5, lsl #4
 8005012:	430a      	orrs	r2, r1
 8005014:	6183      	str	r3, [r0, #24]
 8005016:	6202      	str	r2, [r0, #32]
 8005018:	6883      	ldr	r3, [r0, #8]
 800501a:	f423 1340 	bic.w	r3, r3, #3145728	; 0x300000
 800501e:	f023 0370 	bic.w	r3, r3, #112	; 0x70
 8005022:	f043 0357 	orr.w	r3, r3, #87	; 0x57
 8005026:	e7da      	b.n	8004fde <HAL_TIM_ConfigClockSource+0xea>
 8005028:	684a      	ldr	r2, [r1, #4]
 800502a:	68cd      	ldr	r5, [r1, #12]
 800502c:	6a01      	ldr	r1, [r0, #32]
 800502e:	6a03      	ldr	r3, [r0, #32]
 8005030:	f023 0301 	bic.w	r3, r3, #1
 8005034:	6203      	str	r3, [r0, #32]
 8005036:	6983      	ldr	r3, [r0, #24]
 8005038:	f021 010a 	bic.w	r1, r1, #10
 800503c:	f023 03f0 	bic.w	r3, r3, #240	; 0xf0
 8005040:	ea43 1305 	orr.w	r3, r3, r5, lsl #4
 8005044:	430a      	orrs	r2, r1
 8005046:	6183      	str	r3, [r0, #24]
 8005048:	6202      	str	r2, [r0, #32]
 800504a:	6883      	ldr	r3, [r0, #8]
 800504c:	f423 1340 	bic.w	r3, r3, #3145728	; 0x300000
 8005050:	f023 0370 	bic.w	r3, r3, #112	; 0x70
 8005054:	f043 0347 	orr.w	r3, r3, #71	; 0x47
 8005058:	e7c1      	b.n	8004fde <HAL_TIM_ConfigClockSource+0xea>
 800505a:	461a      	mov	r2, r3
 800505c:	e774      	b.n	8004f48 <HAL_TIM_ConfigClockSource+0x54>
 800505e:	bf00      	nop
 8005060:	ffce0088 	.word	0xffce0088
 8005064:	00100030 	.word	0x00100030
 8005068:	00100040 	.word	0x00100040

0800506c <HAL_TIMEx_MasterConfigSynchronization>:
 800506c:	b530      	push	{r4, r5, lr}
 800506e:	f890 303c 	ldrb.w	r3, [r0, #60]	; 0x3c
 8005072:	2b01      	cmp	r3, #1
 8005074:	f04f 0302 	mov.w	r3, #2
 8005078:	d037      	beq.n	80050ea <HAL_TIMEx_MasterConfigSynchronization+0x7e>
 800507a:	f880 303d 	strb.w	r3, [r0, #61]	; 0x3d
 800507e:	4d1c      	ldr	r5, [pc, #112]	; (80050f0 <HAL_TIMEx_MasterConfigSynchronization+0x84>)
 8005080:	6803      	ldr	r3, [r0, #0]
 8005082:	42ab      	cmp	r3, r5
 8005084:	685a      	ldr	r2, [r3, #4]
 8005086:	689c      	ldr	r4, [r3, #8]
 8005088:	d003      	beq.n	8005092 <HAL_TIMEx_MasterConfigSynchronization+0x26>
 800508a:	f505 6500 	add.w	r5, r5, #2048	; 0x800
 800508e:	42ab      	cmp	r3, r5
 8005090:	d103      	bne.n	800509a <HAL_TIMEx_MasterConfigSynchronization+0x2e>
 8005092:	684d      	ldr	r5, [r1, #4]
 8005094:	f422 0270 	bic.w	r2, r2, #15728640	; 0xf00000
 8005098:	432a      	orrs	r2, r5
 800509a:	680d      	ldr	r5, [r1, #0]
 800509c:	f022 7200 	bic.w	r2, r2, #33554432	; 0x2000000
 80050a0:	f022 0270 	bic.w	r2, r2, #112	; 0x70
 80050a4:	432a      	orrs	r2, r5
 80050a6:	605a      	str	r2, [r3, #4]
 80050a8:	4a11      	ldr	r2, [pc, #68]	; (80050f0 <HAL_TIMEx_MasterConfigSynchronization+0x84>)
 80050aa:	4293      	cmp	r3, r2
 80050ac:	d012      	beq.n	80050d4 <HAL_TIMEx_MasterConfigSynchronization+0x68>
 80050ae:	f1b3 4f80 	cmp.w	r3, #1073741824	; 0x40000000
 80050b2:	d00f      	beq.n	80050d4 <HAL_TIMEx_MasterConfigSynchronization+0x68>
 80050b4:	f5a2 3294 	sub.w	r2, r2, #75776	; 0x12800
 80050b8:	4293      	cmp	r3, r2
 80050ba:	d00b      	beq.n	80050d4 <HAL_TIMEx_MasterConfigSynchronization+0x68>
 80050bc:	f502 6280 	add.w	r2, r2, #1024	; 0x400
 80050c0:	4293      	cmp	r3, r2
 80050c2:	d007      	beq.n	80050d4 <HAL_TIMEx_MasterConfigSynchronization+0x68>
 80050c4:	f502 3296 	add.w	r2, r2, #76800	; 0x12c00
 80050c8:	4293      	cmp	r3, r2
 80050ca:	d003      	beq.n	80050d4 <HAL_TIMEx_MasterConfigSynchronization+0x68>
 80050cc:	f502 6240 	add.w	r2, r2, #3072	; 0xc00
 80050d0:	4293      	cmp	r3, r2
 80050d2:	d104      	bne.n	80050de <HAL_TIMEx_MasterConfigSynchronization+0x72>
 80050d4:	6889      	ldr	r1, [r1, #8]
 80050d6:	f024 0280 	bic.w	r2, r4, #128	; 0x80
 80050da:	430a      	orrs	r2, r1
 80050dc:	609a      	str	r2, [r3, #8]
 80050de:	2301      	movs	r3, #1
 80050e0:	f880 303d 	strb.w	r3, [r0, #61]	; 0x3d
 80050e4:	2300      	movs	r3, #0
 80050e6:	f880 303c 	strb.w	r3, [r0, #60]	; 0x3c
 80050ea:	4618      	mov	r0, r3
 80050ec:	bd30      	pop	{r4, r5, pc}
 80050ee:	bf00      	nop
 80050f0:	40012c00 	.word	0x40012c00

080050f4 <HAL_TIMEx_ConfigBreakDeadTime>:
 80050f4:	b530      	push	{r4, r5, lr}
 80050f6:	f890 303c 	ldrb.w	r3, [r0, #60]	; 0x3c
 80050fa:	2b01      	cmp	r3, #1
 80050fc:	d045      	beq.n	800518a <HAL_TIMEx_ConfigBreakDeadTime+0x96>
 80050fe:	68cb      	ldr	r3, [r1, #12]
 8005100:	688a      	ldr	r2, [r1, #8]
 8005102:	4c23      	ldr	r4, [pc, #140]	; (8005190 <HAL_TIMEx_ConfigBreakDeadTime+0x9c>)
 8005104:	f423 7340 	bic.w	r3, r3, #768	; 0x300
 8005108:	4313      	orrs	r3, r2
 800510a:	684a      	ldr	r2, [r1, #4]
 800510c:	f423 6380 	bic.w	r3, r3, #1024	; 0x400
 8005110:	4313      	orrs	r3, r2
 8005112:	680a      	ldr	r2, [r1, #0]
 8005114:	f423 6300 	bic.w	r3, r3, #2048	; 0x800
 8005118:	4313      	orrs	r3, r2
 800511a:	690a      	ldr	r2, [r1, #16]
 800511c:	f423 5380 	bic.w	r3, r3, #4096	; 0x1000
 8005120:	4313      	orrs	r3, r2
 8005122:	694a      	ldr	r2, [r1, #20]
 8005124:	f423 5300 	bic.w	r3, r3, #8192	; 0x2000
 8005128:	4313      	orrs	r3, r2
 800512a:	6b0a      	ldr	r2, [r1, #48]	; 0x30
 800512c:	f423 4380 	bic.w	r3, r3, #16384	; 0x4000
 8005130:	4313      	orrs	r3, r2
 8005132:	698a      	ldr	r2, [r1, #24]
 8005134:	f423 2370 	bic.w	r3, r3, #983040	; 0xf0000
 8005138:	ea43 4302 	orr.w	r3, r3, r2, lsl #16
 800513c:	6802      	ldr	r2, [r0, #0]
 800513e:	42a2      	cmp	r2, r4
 8005140:	d002      	beq.n	8005148 <HAL_TIMEx_ConfigBreakDeadTime+0x54>
 8005142:	4d14      	ldr	r5, [pc, #80]	; (8005194 <HAL_TIMEx_ConfigBreakDeadTime+0xa0>)
 8005144:	42aa      	cmp	r2, r5
 8005146:	d11a      	bne.n	800517e <HAL_TIMEx_ConfigBreakDeadTime+0x8a>
 8005148:	69cd      	ldr	r5, [r1, #28]
 800514a:	f023 5380 	bic.w	r3, r3, #268435456	; 0x10000000
 800514e:	42a2      	cmp	r2, r4
 8005150:	ea43 0305 	orr.w	r3, r3, r5
 8005154:	d002      	beq.n	800515c <HAL_TIMEx_ConfigBreakDeadTime+0x68>
 8005156:	4c0f      	ldr	r4, [pc, #60]	; (8005194 <HAL_TIMEx_ConfigBreakDeadTime+0xa0>)
 8005158:	42a2      	cmp	r2, r4
 800515a:	d110      	bne.n	800517e <HAL_TIMEx_ConfigBreakDeadTime+0x8a>
 800515c:	6a8c      	ldr	r4, [r1, #40]	; 0x28
 800515e:	f423 0370 	bic.w	r3, r3, #15728640	; 0xf00000
 8005162:	ea43 5304 	orr.w	r3, r3, r4, lsl #20
 8005166:	6a0c      	ldr	r4, [r1, #32]
 8005168:	f023 7380 	bic.w	r3, r3, #16777216	; 0x1000000
 800516c:	4323      	orrs	r3, r4
 800516e:	6a4c      	ldr	r4, [r1, #36]	; 0x24
 8005170:	6ac9      	ldr	r1, [r1, #44]	; 0x2c
 8005172:	f023 7300 	bic.w	r3, r3, #33554432	; 0x2000000
 8005176:	4323      	orrs	r3, r4
 8005178:	f023 5300 	bic.w	r3, r3, #536870912	; 0x20000000
 800517c:	430b      	orrs	r3, r1
 800517e:	6453      	str	r3, [r2, #68]	; 0x44
 8005180:	2300      	movs	r3, #0
 8005182:	f880 303c 	strb.w	r3, [r0, #60]	; 0x3c
 8005186:	4618      	mov	r0, r3
 8005188:	bd30      	pop	{r4, r5, pc}
 800518a:	2002      	movs	r0, #2
 800518c:	e7fc      	b.n	8005188 <HAL_TIMEx_ConfigBreakDeadTime+0x94>
 800518e:	bf00      	nop
 8005190:	40012c00 	.word	0x40012c00
 8005194:	40013400 	.word	0x40013400

08005198 <HAL_TIMEx_CommutCallback>:
 8005198:	4770      	bx	lr

0800519a <HAL_TIMEx_BreakCallback>:
 800519a:	4770      	bx	lr

0800519c <HAL_TIMEx_Break2Callback>:
 800519c:	4770      	bx	lr

0800519e <HAL_TIMEx_EncoderIndexCallback>:
 800519e:	4770      	bx	lr

080051a0 <HAL_TIMEx_DirectionChangeCallback>:
 80051a0:	4770      	bx	lr

080051a2 <HAL_TIMEx_IndexErrorCallback>:
 80051a2:	4770      	bx	lr

080051a4 <HAL_TIMEx_TransitionErrorCallback>:
 80051a4:	4770      	bx	lr
	...

080051a8 <UART_EndRxTransfer>:
 80051a8:	b510      	push	{r4, lr}
 80051aa:	6802      	ldr	r2, [r0, #0]
 80051ac:	e852 3f00 	ldrex	r3, [r2]
 80051b0:	f423 7390 	bic.w	r3, r3, #288	; 0x120
 80051b4:	e842 3100 	strex	r1, r3, [r2]
 80051b8:	6802      	ldr	r2, [r0, #0]
 80051ba:	2900      	cmp	r1, #0
 80051bc:	d1f5      	bne.n	80051aa <UART_EndRxTransfer+0x2>
 80051be:	4c0f      	ldr	r4, [pc, #60]	; (80051fc <UART_EndRxTransfer+0x54>)
 80051c0:	f102 0308 	add.w	r3, r2, #8
 80051c4:	e853 3f00 	ldrex	r3, [r3]
 80051c8:	4023      	ands	r3, r4
 80051ca:	f102 0c08 	add.w	ip, r2, #8
 80051ce:	e84c 3100 	strex	r1, r3, [ip]
 80051d2:	2900      	cmp	r1, #0
 80051d4:	d1f4      	bne.n	80051c0 <UART_EndRxTransfer+0x18>
 80051d6:	6ec3      	ldr	r3, [r0, #108]	; 0x6c
 80051d8:	2b01      	cmp	r3, #1
 80051da:	d107      	bne.n	80051ec <UART_EndRxTransfer+0x44>
 80051dc:	e852 3f00 	ldrex	r3, [r2]
 80051e0:	f023 0310 	bic.w	r3, r3, #16
 80051e4:	e842 3100 	strex	r1, r3, [r2]
 80051e8:	2900      	cmp	r1, #0
 80051ea:	d1f7      	bne.n	80051dc <UART_EndRxTransfer+0x34>
 80051ec:	2320      	movs	r3, #32
 80051ee:	f8c0 3088 	str.w	r3, [r0, #136]	; 0x88
 80051f2:	2300      	movs	r3, #0
 80051f4:	66c3      	str	r3, [r0, #108]	; 0x6c
 80051f6:	6703      	str	r3, [r0, #112]	; 0x70
 80051f8:	bd10      	pop	{r4, pc}
 80051fa:	bf00      	nop
 80051fc:	effffffe 	.word	0xeffffffe

08005200 <HAL_UART_TxCpltCallback>:
 8005200:	4770      	bx	lr

08005202 <HAL_UART_ErrorCallback>:
 8005202:	4770      	bx	lr

08005204 <UART_DMAAbortOnError>:
 8005204:	b508      	push	{r3, lr}
 8005206:	6a80      	ldr	r0, [r0, #40]	; 0x28
 8005208:	2300      	movs	r3, #0
 800520a:	f8a0 305e 	strh.w	r3, [r0, #94]	; 0x5e
 800520e:	f8a0 3056 	strh.w	r3, [r0, #86]	; 0x56
 8005212:	f7ff fff6 	bl	8005202 <HAL_UART_ErrorCallback>
 8005216:	bd08      	pop	{r3, pc}

08005218 <HAL_UARTEx_RxEventCallback>:
 8005218:	4770      	bx	lr
	...

0800521c <HAL_UART_IRQHandler>:
 800521c:	6803      	ldr	r3, [r0, #0]
 800521e:	69d9      	ldr	r1, [r3, #28]
 8005220:	681a      	ldr	r2, [r3, #0]
 8005222:	e92d 41f0 	stmdb	sp!, {r4, r5, r6, r7, r8, lr}
 8005226:	f640 060f 	movw	r6, #2063	; 0x80f
 800522a:	4231      	tst	r1, r6
 800522c:	689d      	ldr	r5, [r3, #8]
 800522e:	4604      	mov	r4, r0
 8005230:	d110      	bne.n	8005254 <HAL_UART_IRQHandler+0x38>
 8005232:	068e      	lsls	r6, r1, #26
 8005234:	f140 8094 	bpl.w	8005360 <HAL_UART_IRQHandler+0x144>
 8005238:	f002 0620 	and.w	r6, r2, #32
 800523c:	f005 5780 	and.w	r7, r5, #268435456	; 0x10000000
 8005240:	433e      	orrs	r6, r7
 8005242:	f000 808d 	beq.w	8005360 <HAL_UART_IRQHandler+0x144>
 8005246:	6f03      	ldr	r3, [r0, #112]	; 0x70
 8005248:	2b00      	cmp	r3, #0
 800524a:	f000 8082 	beq.w	8005352 <HAL_UART_IRQHandler+0x136>
 800524e:	e8bd 41f0 	ldmia.w	sp!, {r4, r5, r6, r7, r8, lr}
 8005252:	4718      	bx	r3
 8005254:	4ea6      	ldr	r6, [pc, #664]	; (80054f0 <HAL_UART_IRQHandler+0x2d4>)
 8005256:	48a7      	ldr	r0, [pc, #668]	; (80054f4 <HAL_UART_IRQHandler+0x2d8>)
 8005258:	402e      	ands	r6, r5
 800525a:	4010      	ands	r0, r2
 800525c:	4330      	orrs	r0, r6
 800525e:	d07f      	beq.n	8005360 <HAL_UART_IRQHandler+0x144>
 8005260:	07cf      	lsls	r7, r1, #31
 8005262:	d509      	bpl.n	8005278 <HAL_UART_IRQHandler+0x5c>
 8005264:	05d0      	lsls	r0, r2, #23
 8005266:	d507      	bpl.n	8005278 <HAL_UART_IRQHandler+0x5c>
 8005268:	2001      	movs	r0, #1
 800526a:	6218      	str	r0, [r3, #32]
 800526c:	f8d4 008c 	ldr.w	r0, [r4, #140]	; 0x8c
 8005270:	f040 0001 	orr.w	r0, r0, #1
 8005274:	f8c4 008c 	str.w	r0, [r4, #140]	; 0x8c
 8005278:	078f      	lsls	r7, r1, #30
 800527a:	d509      	bpl.n	8005290 <HAL_UART_IRQHandler+0x74>
 800527c:	07e8      	lsls	r0, r5, #31
 800527e:	d507      	bpl.n	8005290 <HAL_UART_IRQHandler+0x74>
 8005280:	2002      	movs	r0, #2
 8005282:	6218      	str	r0, [r3, #32]
 8005284:	f8d4 008c 	ldr.w	r0, [r4, #140]	; 0x8c
 8005288:	f040 0004 	orr.w	r0, r0, #4
 800528c:	f8c4 008c 	str.w	r0, [r4, #140]	; 0x8c
 8005290:	074f      	lsls	r7, r1, #29
 8005292:	d509      	bpl.n	80052a8 <HAL_UART_IRQHandler+0x8c>
 8005294:	07e8      	lsls	r0, r5, #31
 8005296:	d507      	bpl.n	80052a8 <HAL_UART_IRQHandler+0x8c>
 8005298:	2004      	movs	r0, #4
 800529a:	6218      	str	r0, [r3, #32]
 800529c:	f8d4 008c 	ldr.w	r0, [r4, #140]	; 0x8c
 80052a0:	f040 0002 	orr.w	r0, r0, #2
 80052a4:	f8c4 008c 	str.w	r0, [r4, #140]	; 0x8c
 80052a8:	070f      	lsls	r7, r1, #28
 80052aa:	d50b      	bpl.n	80052c4 <HAL_UART_IRQHandler+0xa8>
 80052ac:	f002 0020 	and.w	r0, r2, #32
 80052b0:	4330      	orrs	r0, r6
 80052b2:	d007      	beq.n	80052c4 <HAL_UART_IRQHandler+0xa8>
 80052b4:	2008      	movs	r0, #8
 80052b6:	6218      	str	r0, [r3, #32]
 80052b8:	f8d4 008c 	ldr.w	r0, [r4, #140]	; 0x8c
 80052bc:	f040 0008 	orr.w	r0, r0, #8
 80052c0:	f8c4 008c 	str.w	r0, [r4, #140]	; 0x8c
 80052c4:	050e      	lsls	r6, r1, #20
 80052c6:	d50a      	bpl.n	80052de <HAL_UART_IRQHandler+0xc2>
 80052c8:	0150      	lsls	r0, r2, #5
 80052ca:	d508      	bpl.n	80052de <HAL_UART_IRQHandler+0xc2>
 80052cc:	f44f 6000 	mov.w	r0, #2048	; 0x800
 80052d0:	6218      	str	r0, [r3, #32]
 80052d2:	f8d4 308c 	ldr.w	r3, [r4, #140]	; 0x8c
 80052d6:	f043 0320 	orr.w	r3, r3, #32
 80052da:	f8c4 308c 	str.w	r3, [r4, #140]	; 0x8c
 80052de:	f8d4 308c 	ldr.w	r3, [r4, #140]	; 0x8c
 80052e2:	2b00      	cmp	r3, #0
 80052e4:	d035      	beq.n	8005352 <HAL_UART_IRQHandler+0x136>
 80052e6:	068b      	lsls	r3, r1, #26
 80052e8:	d509      	bpl.n	80052fe <HAL_UART_IRQHandler+0xe2>
 80052ea:	f002 0220 	and.w	r2, r2, #32
 80052ee:	f005 5580 	and.w	r5, r5, #268435456	; 0x10000000
 80052f2:	432a      	orrs	r2, r5
 80052f4:	d003      	beq.n	80052fe <HAL_UART_IRQHandler+0xe2>
 80052f6:	6f23      	ldr	r3, [r4, #112]	; 0x70
 80052f8:	b10b      	cbz	r3, 80052fe <HAL_UART_IRQHandler+0xe2>
 80052fa:	4620      	mov	r0, r4
 80052fc:	4798      	blx	r3
 80052fe:	6826      	ldr	r6, [r4, #0]
 8005300:	f8d4 208c 	ldr.w	r2, [r4, #140]	; 0x8c
 8005304:	68b3      	ldr	r3, [r6, #8]
 8005306:	f002 0228 	and.w	r2, r2, #40	; 0x28
 800530a:	f003 0340 	and.w	r3, r3, #64	; 0x40
 800530e:	ea53 0502 	orrs.w	r5, r3, r2
 8005312:	4620      	mov	r0, r4
 8005314:	d01f      	beq.n	8005356 <HAL_UART_IRQHandler+0x13a>
 8005316:	f7ff ff47 	bl	80051a8 <UART_EndRxTransfer>
 800531a:	68b3      	ldr	r3, [r6, #8]
 800531c:	065f      	lsls	r7, r3, #25
 800531e:	d515      	bpl.n	800534c <HAL_UART_IRQHandler+0x130>
 8005320:	6822      	ldr	r2, [r4, #0]
 8005322:	f102 0308 	add.w	r3, r2, #8
 8005326:	e853 3f00 	ldrex	r3, [r3]
 800532a:	f023 0340 	bic.w	r3, r3, #64	; 0x40
 800532e:	3208      	adds	r2, #8
 8005330:	e842 3100 	strex	r1, r3, [r2]
 8005334:	2900      	cmp	r1, #0
 8005336:	d1f3      	bne.n	8005320 <HAL_UART_IRQHandler+0x104>
 8005338:	6fe0      	ldr	r0, [r4, #124]	; 0x7c
 800533a:	b138      	cbz	r0, 800534c <HAL_UART_IRQHandler+0x130>
 800533c:	4b6e      	ldr	r3, [pc, #440]	; (80054f8 <HAL_UART_IRQHandler+0x2dc>)
 800533e:	6383      	str	r3, [r0, #56]	; 0x38
 8005340:	f7fd fdba 	bl	8002eb8 <HAL_DMA_Abort_IT>
 8005344:	b128      	cbz	r0, 8005352 <HAL_UART_IRQHandler+0x136>
 8005346:	6fe0      	ldr	r0, [r4, #124]	; 0x7c
 8005348:	6b83      	ldr	r3, [r0, #56]	; 0x38
 800534a:	e780      	b.n	800524e <HAL_UART_IRQHandler+0x32>
 800534c:	4620      	mov	r0, r4
 800534e:	f7ff ff58 	bl	8005202 <HAL_UART_ErrorCallback>
 8005352:	e8bd 81f0 	ldmia.w	sp!, {r4, r5, r6, r7, r8, pc}
 8005356:	f7ff ff54 	bl	8005202 <HAL_UART_ErrorCallback>
 800535a:	f8c4 508c 	str.w	r5, [r4, #140]	; 0x8c
 800535e:	e7f8      	b.n	8005352 <HAL_UART_IRQHandler+0x136>
 8005360:	6ee0      	ldr	r0, [r4, #108]	; 0x6c
 8005362:	2801      	cmp	r0, #1
 8005364:	f040 8081 	bne.w	800546a <HAL_UART_IRQHandler+0x24e>
 8005368:	06ce      	lsls	r6, r1, #27
 800536a:	d57e      	bpl.n	800546a <HAL_UART_IRQHandler+0x24e>
 800536c:	06d0      	lsls	r0, r2, #27
 800536e:	d57c      	bpl.n	800546a <HAL_UART_IRQHandler+0x24e>
 8005370:	2210      	movs	r2, #16
 8005372:	621a      	str	r2, [r3, #32]
 8005374:	689a      	ldr	r2, [r3, #8]
 8005376:	0651      	lsls	r1, r2, #25
 8005378:	d547      	bpl.n	800540a <HAL_UART_IRQHandler+0x1ee>
 800537a:	6fe2      	ldr	r2, [r4, #124]	; 0x7c
 800537c:	6811      	ldr	r1, [r2, #0]
 800537e:	684a      	ldr	r2, [r1, #4]
 8005380:	b292      	uxth	r2, r2
 8005382:	2a00      	cmp	r2, #0
 8005384:	d0e5      	beq.n	8005352 <HAL_UART_IRQHandler+0x136>
 8005386:	f8b4 005c 	ldrh.w	r0, [r4, #92]	; 0x5c
 800538a:	4290      	cmp	r0, r2
 800538c:	d9e1      	bls.n	8005352 <HAL_UART_IRQHandler+0x136>
 800538e:	f8a4 205e 	strh.w	r2, [r4, #94]	; 0x5e
 8005392:	680a      	ldr	r2, [r1, #0]
 8005394:	0692      	lsls	r2, r2, #26
 8005396:	d42e      	bmi.n	80053f6 <HAL_UART_IRQHandler+0x1da>
 8005398:	e853 2f00 	ldrex	r2, [r3]
 800539c:	f422 7280 	bic.w	r2, r2, #256	; 0x100
 80053a0:	e843 2100 	strex	r1, r2, [r3]
 80053a4:	2900      	cmp	r1, #0
 80053a6:	d1f7      	bne.n	8005398 <HAL_UART_IRQHandler+0x17c>
 80053a8:	f103 0208 	add.w	r2, r3, #8
 80053ac:	e852 2f00 	ldrex	r2, [r2]
 80053b0:	f022 0201 	bic.w	r2, r2, #1
 80053b4:	f103 0008 	add.w	r0, r3, #8
 80053b8:	e840 2100 	strex	r1, r2, [r0]
 80053bc:	2900      	cmp	r1, #0
 80053be:	d1f3      	bne.n	80053a8 <HAL_UART_IRQHandler+0x18c>
 80053c0:	f103 0208 	add.w	r2, r3, #8
 80053c4:	e852 2f00 	ldrex	r2, [r2]
 80053c8:	f022 0240 	bic.w	r2, r2, #64	; 0x40
 80053cc:	f103 0008 	add.w	r0, r3, #8
 80053d0:	e840 2100 	strex	r1, r2, [r0]
 80053d4:	2900      	cmp	r1, #0
 80053d6:	d1f3      	bne.n	80053c0 <HAL_UART_IRQHandler+0x1a4>
 80053d8:	2220      	movs	r2, #32
 80053da:	f8c4 2088 	str.w	r2, [r4, #136]	; 0x88
 80053de:	66e1      	str	r1, [r4, #108]	; 0x6c
 80053e0:	e853 2f00 	ldrex	r2, [r3]
 80053e4:	f022 0210 	bic.w	r2, r2, #16
 80053e8:	e843 2100 	strex	r1, r2, [r3]
 80053ec:	2900      	cmp	r1, #0
 80053ee:	d1f7      	bne.n	80053e0 <HAL_UART_IRQHandler+0x1c4>
 80053f0:	6fe0      	ldr	r0, [r4, #124]	; 0x7c
 80053f2:	f7fd fd2e 	bl	8002e52 <HAL_DMA_Abort>
 80053f6:	f8b4 305e 	ldrh.w	r3, [r4, #94]	; 0x5e
 80053fa:	f8b4 105c 	ldrh.w	r1, [r4, #92]	; 0x5c
 80053fe:	1ac9      	subs	r1, r1, r3
 8005400:	b289      	uxth	r1, r1
 8005402:	4620      	mov	r0, r4
 8005404:	f7ff ff08 	bl	8005218 <HAL_UARTEx_RxEventCallback>
 8005408:	e7a3      	b.n	8005352 <HAL_UART_IRQHandler+0x136>
 800540a:	f8b4 205e 	ldrh.w	r2, [r4, #94]	; 0x5e
 800540e:	f8b4 005e 	ldrh.w	r0, [r4, #94]	; 0x5e
 8005412:	f8b4 105c 	ldrh.w	r1, [r4, #92]	; 0x5c
 8005416:	b280      	uxth	r0, r0
 8005418:	b292      	uxth	r2, r2
 800541a:	2800      	cmp	r0, #0
 800541c:	d099      	beq.n	8005352 <HAL_UART_IRQHandler+0x136>
 800541e:	1a89      	subs	r1, r1, r2
 8005420:	b289      	uxth	r1, r1
 8005422:	2900      	cmp	r1, #0
 8005424:	d095      	beq.n	8005352 <HAL_UART_IRQHandler+0x136>
 8005426:	e853 2f00 	ldrex	r2, [r3]
 800542a:	f422 7290 	bic.w	r2, r2, #288	; 0x120
 800542e:	e843 2000 	strex	r0, r2, [r3]
 8005432:	2800      	cmp	r0, #0
 8005434:	d1f7      	bne.n	8005426 <HAL_UART_IRQHandler+0x20a>
 8005436:	4d31      	ldr	r5, [pc, #196]	; (80054fc <HAL_UART_IRQHandler+0x2e0>)
 8005438:	f103 0208 	add.w	r2, r3, #8
 800543c:	e852 2f00 	ldrex	r2, [r2]
 8005440:	402a      	ands	r2, r5
 8005442:	f103 0608 	add.w	r6, r3, #8
 8005446:	e846 2000 	strex	r0, r2, [r6]
 800544a:	2800      	cmp	r0, #0
 800544c:	d1f4      	bne.n	8005438 <HAL_UART_IRQHandler+0x21c>
 800544e:	2220      	movs	r2, #32
 8005450:	f8c4 2088 	str.w	r2, [r4, #136]	; 0x88
 8005454:	6720      	str	r0, [r4, #112]	; 0x70
 8005456:	66e0      	str	r0, [r4, #108]	; 0x6c
 8005458:	e853 2f00 	ldrex	r2, [r3]
 800545c:	f022 0210 	bic.w	r2, r2, #16
 8005460:	e843 2000 	strex	r0, r2, [r3]
 8005464:	2800      	cmp	r0, #0
 8005466:	d1f7      	bne.n	8005458 <HAL_UART_IRQHandler+0x23c>
 8005468:	e7cb      	b.n	8005402 <HAL_UART_IRQHandler+0x1e6>
 800546a:	02cf      	lsls	r7, r1, #11
 800546c:	d509      	bpl.n	8005482 <HAL_UART_IRQHandler+0x266>
 800546e:	026e      	lsls	r6, r5, #9
 8005470:	d507      	bpl.n	8005482 <HAL_UART_IRQHandler+0x266>
 8005472:	f44f 1280 	mov.w	r2, #1048576	; 0x100000
 8005476:	4620      	mov	r0, r4
 8005478:	621a      	str	r2, [r3, #32]
 800547a:	e8bd 41f0 	ldmia.w	sp!, {r4, r5, r6, r7, r8, lr}
 800547e:	f000 bac7 	b.w	8005a10 <HAL_UARTEx_WakeupCallback>
 8005482:	0608      	lsls	r0, r1, #24
 8005484:	d50b      	bpl.n	800549e <HAL_UART_IRQHandler+0x282>
 8005486:	f002 0080 	and.w	r0, r2, #128	; 0x80
 800548a:	f405 0500 	and.w	r5, r5, #8388608	; 0x800000
 800548e:	4328      	orrs	r0, r5
 8005490:	d005      	beq.n	800549e <HAL_UART_IRQHandler+0x282>
 8005492:	6f63      	ldr	r3, [r4, #116]	; 0x74
 8005494:	2b00      	cmp	r3, #0
 8005496:	f43f af5c 	beq.w	8005352 <HAL_UART_IRQHandler+0x136>
 800549a:	4620      	mov	r0, r4
 800549c:	e6d7      	b.n	800524e <HAL_UART_IRQHandler+0x32>
 800549e:	064f      	lsls	r7, r1, #25
 80054a0:	d511      	bpl.n	80054c6 <HAL_UART_IRQHandler+0x2aa>
 80054a2:	0656      	lsls	r6, r2, #25
 80054a4:	d50f      	bpl.n	80054c6 <HAL_UART_IRQHandler+0x2aa>
 80054a6:	e853 2f00 	ldrex	r2, [r3]
 80054aa:	f022 0240 	bic.w	r2, r2, #64	; 0x40
 80054ae:	e843 2100 	strex	r1, r2, [r3]
 80054b2:	2900      	cmp	r1, #0
 80054b4:	d1f7      	bne.n	80054a6 <HAL_UART_IRQHandler+0x28a>
 80054b6:	2320      	movs	r3, #32
 80054b8:	f8c4 3084 	str.w	r3, [r4, #132]	; 0x84
 80054bc:	6761      	str	r1, [r4, #116]	; 0x74
 80054be:	4620      	mov	r0, r4
 80054c0:	f7ff fe9e 	bl	8005200 <HAL_UART_TxCpltCallback>
 80054c4:	e745      	b.n	8005352 <HAL_UART_IRQHandler+0x136>
 80054c6:	020d      	lsls	r5, r1, #8
 80054c8:	d506      	bpl.n	80054d8 <HAL_UART_IRQHandler+0x2bc>
 80054ca:	0050      	lsls	r0, r2, #1
 80054cc:	d504      	bpl.n	80054d8 <HAL_UART_IRQHandler+0x2bc>
 80054ce:	4620      	mov	r0, r4
 80054d0:	e8bd 41f0 	ldmia.w	sp!, {r4, r5, r6, r7, r8, lr}
 80054d4:	f000 ba9e 	b.w	8005a14 <HAL_UARTEx_TxFifoEmptyCallback>
 80054d8:	01cb      	lsls	r3, r1, #7
 80054da:	f57f af3a 	bpl.w	8005352 <HAL_UART_IRQHandler+0x136>
 80054de:	2a00      	cmp	r2, #0
 80054e0:	f6bf af37 	bge.w	8005352 <HAL_UART_IRQHandler+0x136>
 80054e4:	4620      	mov	r0, r4
 80054e6:	e8bd 41f0 	ldmia.w	sp!, {r4, r5, r6, r7, r8, lr}
 80054ea:	f000 ba92 	b.w	8005a12 <HAL_UARTEx_RxFifoFullCallback>
 80054ee:	bf00      	nop
 80054f0:	10000001 	.word	0x10000001
 80054f4:	04000120 	.word	0x04000120
 80054f8:	08005205 	.word	0x08005205
 80054fc:	effffffe 	.word	0xeffffffe

08005500 <UART_SetConfig>:
 8005500:	b538      	push	{r3, r4, r5, lr}
 8005502:	4604      	mov	r4, r0
 8005504:	6803      	ldr	r3, [r0, #0]
 8005506:	6921      	ldr	r1, [r4, #16]
 8005508:	68a2      	ldr	r2, [r4, #8]
 800550a:	681d      	ldr	r5, [r3, #0]
 800550c:	69c0      	ldr	r0, [r0, #28]
 800550e:	430a      	orrs	r2, r1
 8005510:	6961      	ldr	r1, [r4, #20]
 8005512:	430a      	orrs	r2, r1
 8005514:	4993      	ldr	r1, [pc, #588]	; (8005764 <UART_SetConfig+0x264>)
 8005516:	4302      	orrs	r2, r0
 8005518:	4029      	ands	r1, r5
 800551a:	430a      	orrs	r2, r1
 800551c:	601a      	str	r2, [r3, #0]
 800551e:	685a      	ldr	r2, [r3, #4]
 8005520:	68e1      	ldr	r1, [r4, #12]
 8005522:	f422 5240 	bic.w	r2, r2, #12288	; 0x3000
 8005526:	430a      	orrs	r2, r1
 8005528:	605a      	str	r2, [r3, #4]
 800552a:	4a8f      	ldr	r2, [pc, #572]	; (8005768 <UART_SetConfig+0x268>)
 800552c:	69a1      	ldr	r1, [r4, #24]
 800552e:	4293      	cmp	r3, r2
 8005530:	bf1c      	itt	ne
 8005532:	6a22      	ldrne	r2, [r4, #32]
 8005534:	4311      	orrne	r1, r2
 8005536:	689a      	ldr	r2, [r3, #8]
 8005538:	f022 426e 	bic.w	r2, r2, #3992977408	; 0xee000000
 800553c:	f422 6230 	bic.w	r2, r2, #2816	; 0xb00
 8005540:	430a      	orrs	r2, r1
 8005542:	609a      	str	r2, [r3, #8]
 8005544:	6ada      	ldr	r2, [r3, #44]	; 0x2c
 8005546:	6a61      	ldr	r1, [r4, #36]	; 0x24
 8005548:	f022 020f 	bic.w	r2, r2, #15
 800554c:	430a      	orrs	r2, r1
 800554e:	62da      	str	r2, [r3, #44]	; 0x2c
 8005550:	4a86      	ldr	r2, [pc, #536]	; (800576c <UART_SetConfig+0x26c>)
 8005552:	4293      	cmp	r3, r2
 8005554:	d117      	bne.n	8005586 <UART_SetConfig+0x86>
 8005556:	4b86      	ldr	r3, [pc, #536]	; (8005770 <UART_SetConfig+0x270>)
 8005558:	f8d3 3088 	ldr.w	r3, [r3, #136]	; 0x88
 800555c:	f003 0303 	and.w	r3, r3, #3
 8005560:	3b01      	subs	r3, #1
 8005562:	2b02      	cmp	r3, #2
 8005564:	f200 80da 	bhi.w	800571c <UART_SetConfig+0x21c>
 8005568:	4a82      	ldr	r2, [pc, #520]	; (8005774 <UART_SetConfig+0x274>)
 800556a:	5cd3      	ldrb	r3, [r2, r3]
 800556c:	f5b0 4f00 	cmp.w	r0, #32768	; 0x8000
 8005570:	f040 80af 	bne.w	80056d2 <UART_SetConfig+0x1d2>
 8005574:	2b08      	cmp	r3, #8
 8005576:	d822      	bhi.n	80055be <UART_SetConfig+0xbe>
 8005578:	e8df f003 	tbb	[pc, r3]
 800557c:	21a9d38a 	.word	0x21a9d38a
 8005580:	212121cd 	.word	0x212121cd
 8005584:	8e          	.byte	0x8e
 8005585:	00          	.byte	0x00
 8005586:	4a7c      	ldr	r2, [pc, #496]	; (8005778 <UART_SetConfig+0x278>)
 8005588:	4293      	cmp	r3, r2
 800558a:	d106      	bne.n	800559a <UART_SetConfig+0x9a>
 800558c:	4b78      	ldr	r3, [pc, #480]	; (8005770 <UART_SetConfig+0x270>)
 800558e:	4a7b      	ldr	r2, [pc, #492]	; (800577c <UART_SetConfig+0x27c>)
 8005590:	f8d3 3088 	ldr.w	r3, [r3, #136]	; 0x88
 8005594:	f003 030c 	and.w	r3, r3, #12
 8005598:	e7e7      	b.n	800556a <UART_SetConfig+0x6a>
 800559a:	4a79      	ldr	r2, [pc, #484]	; (8005780 <UART_SetConfig+0x280>)
 800559c:	4293      	cmp	r3, r2
 800559e:	d118      	bne.n	80055d2 <UART_SetConfig+0xd2>
 80055a0:	4b73      	ldr	r3, [pc, #460]	; (8005770 <UART_SetConfig+0x270>)
 80055a2:	f8d3 3088 	ldr.w	r3, [r3, #136]	; 0x88
 80055a6:	f003 0330 	and.w	r3, r3, #48	; 0x30
 80055aa:	2b20      	cmp	r3, #32
 80055ac:	f000 80bc 	beq.w	8005728 <UART_SetConfig+0x228>
 80055b0:	d807      	bhi.n	80055c2 <UART_SetConfig+0xc2>
 80055b2:	2b00      	cmp	r3, #0
 80055b4:	f000 80bd 	beq.w	8005732 <UART_SetConfig+0x232>
 80055b8:	2b10      	cmp	r3, #16
 80055ba:	f000 80a9 	beq.w	8005710 <UART_SetConfig+0x210>
 80055be:	2001      	movs	r0, #1
 80055c0:	e037      	b.n	8005632 <UART_SetConfig+0x132>
 80055c2:	2b30      	cmp	r3, #48	; 0x30
 80055c4:	d1fb      	bne.n	80055be <UART_SetConfig+0xbe>
 80055c6:	f5b0 4f00 	cmp.w	r0, #32768	; 0x8000
 80055ca:	d065      	beq.n	8005698 <UART_SetConfig+0x198>
 80055cc:	f44f 4000 	mov.w	r0, #32768	; 0x8000
 80055d0:	e0b7      	b.n	8005742 <UART_SetConfig+0x242>
 80055d2:	4a6c      	ldr	r2, [pc, #432]	; (8005784 <UART_SetConfig+0x284>)
 80055d4:	4293      	cmp	r3, r2
 80055d6:	d10f      	bne.n	80055f8 <UART_SetConfig+0xf8>
 80055d8:	4b65      	ldr	r3, [pc, #404]	; (8005770 <UART_SetConfig+0x270>)
 80055da:	f8d3 3088 	ldr.w	r3, [r3, #136]	; 0x88
 80055de:	f003 03c0 	and.w	r3, r3, #192	; 0xc0
 80055e2:	2b80      	cmp	r3, #128	; 0x80
 80055e4:	f000 80a0 	beq.w	8005728 <UART_SetConfig+0x228>
 80055e8:	d804      	bhi.n	80055f4 <UART_SetConfig+0xf4>
 80055ea:	2b00      	cmp	r3, #0
 80055ec:	f000 80a1 	beq.w	8005732 <UART_SetConfig+0x232>
 80055f0:	2b40      	cmp	r3, #64	; 0x40
 80055f2:	e7e2      	b.n	80055ba <UART_SetConfig+0xba>
 80055f4:	2bc0      	cmp	r3, #192	; 0xc0
 80055f6:	e7e5      	b.n	80055c4 <UART_SetConfig+0xc4>
 80055f8:	4a5b      	ldr	r2, [pc, #364]	; (8005768 <UART_SetConfig+0x268>)
 80055fa:	4293      	cmp	r3, r2
 80055fc:	d1df      	bne.n	80055be <UART_SetConfig+0xbe>
 80055fe:	4b5c      	ldr	r3, [pc, #368]	; (8005770 <UART_SetConfig+0x270>)
 8005600:	f8d3 3088 	ldr.w	r3, [r3, #136]	; 0x88
 8005604:	f403 6340 	and.w	r3, r3, #3072	; 0xc00
 8005608:	f5b3 6f00 	cmp.w	r3, #2048	; 0x800
 800560c:	d018      	beq.n	8005640 <UART_SetConfig+0x140>
 800560e:	d806      	bhi.n	800561e <UART_SetConfig+0x11e>
 8005610:	b15b      	cbz	r3, 800562a <UART_SetConfig+0x12a>
 8005612:	f5b3 6f80 	cmp.w	r3, #1024	; 0x400
 8005616:	d1d2      	bne.n	80055be <UART_SetConfig+0xbe>
 8005618:	f7fe fa9a 	bl	8003b50 <HAL_RCC_GetSysClockFreq>
 800561c:	e007      	b.n	800562e <UART_SetConfig+0x12e>
 800561e:	f5b3 6f40 	cmp.w	r3, #3072	; 0xc00
 8005622:	d1cc      	bne.n	80055be <UART_SetConfig+0xbe>
 8005624:	f44f 4000 	mov.w	r0, #32768	; 0x8000
 8005628:	e00b      	b.n	8005642 <UART_SetConfig+0x142>
 800562a:	f7fe fbaf 	bl	8003d8c <HAL_RCC_GetPCLK1Freq>
 800562e:	b940      	cbnz	r0, 8005642 <UART_SetConfig+0x142>
 8005630:	2000      	movs	r0, #0
 8005632:	f04f 1301 	mov.w	r3, #65537	; 0x10001
 8005636:	66a3      	str	r3, [r4, #104]	; 0x68
 8005638:	2300      	movs	r3, #0
 800563a:	e9c4 331c 	strd	r3, r3, [r4, #112]	; 0x70
 800563e:	bd38      	pop	{r3, r4, r5, pc}
 8005640:	4851      	ldr	r0, [pc, #324]	; (8005788 <UART_SetConfig+0x288>)
 8005642:	6865      	ldr	r5, [r4, #4]
 8005644:	4b51      	ldr	r3, [pc, #324]	; (800578c <UART_SetConfig+0x28c>)
 8005646:	6a62      	ldr	r2, [r4, #36]	; 0x24
 8005648:	eb05 0145 	add.w	r1, r5, r5, lsl #1
 800564c:	f833 2012 	ldrh.w	r2, [r3, r2, lsl #1]
 8005650:	fbb0 f3f2 	udiv	r3, r0, r2
 8005654:	4299      	cmp	r1, r3
 8005656:	d8b2      	bhi.n	80055be <UART_SetConfig+0xbe>
 8005658:	ebb3 3f05 	cmp.w	r3, r5, lsl #12
 800565c:	d8af      	bhi.n	80055be <UART_SetConfig+0xbe>
 800565e:	2300      	movs	r3, #0
 8005660:	4619      	mov	r1, r3
 8005662:	f7fa fdd9 	bl	8000218 <__aeabi_uldivmod>
 8005666:	0209      	lsls	r1, r1, #8
 8005668:	ea41 6110 	orr.w	r1, r1, r0, lsr #24
 800566c:	086b      	lsrs	r3, r5, #1
 800566e:	0200      	lsls	r0, r0, #8
 8005670:	18c0      	adds	r0, r0, r3
 8005672:	462a      	mov	r2, r5
 8005674:	f04f 0300 	mov.w	r3, #0
 8005678:	f141 0100 	adc.w	r1, r1, #0
 800567c:	f7fa fdcc 	bl	8000218 <__aeabi_uldivmod>
 8005680:	4b43      	ldr	r3, [pc, #268]	; (8005790 <UART_SetConfig+0x290>)
 8005682:	f5a0 7240 	sub.w	r2, r0, #768	; 0x300
 8005686:	429a      	cmp	r2, r3
 8005688:	d899      	bhi.n	80055be <UART_SetConfig+0xbe>
 800568a:	6823      	ldr	r3, [r4, #0]
 800568c:	60d8      	str	r0, [r3, #12]
 800568e:	e7cf      	b.n	8005630 <UART_SetConfig+0x130>
 8005690:	f7fe fb7c 	bl	8003d8c <HAL_RCC_GetPCLK1Freq>
 8005694:	2800      	cmp	r0, #0
 8005696:	d0cb      	beq.n	8005630 <UART_SetConfig+0x130>
 8005698:	6861      	ldr	r1, [r4, #4]
 800569a:	4b3c      	ldr	r3, [pc, #240]	; (800578c <UART_SetConfig+0x28c>)
 800569c:	6a62      	ldr	r2, [r4, #36]	; 0x24
 800569e:	f833 2012 	ldrh.w	r2, [r3, r2, lsl #1]
 80056a2:	fbb0 f2f2 	udiv	r2, r0, r2
 80056a6:	084b      	lsrs	r3, r1, #1
 80056a8:	eb03 0342 	add.w	r3, r3, r2, lsl #1
 80056ac:	f64f 72ef 	movw	r2, #65519	; 0xffef
 80056b0:	fbb3 f3f1 	udiv	r3, r3, r1
 80056b4:	f1a3 0110 	sub.w	r1, r3, #16
 80056b8:	4291      	cmp	r1, r2
 80056ba:	d880      	bhi.n	80055be <UART_SetConfig+0xbe>
 80056bc:	f023 020f 	bic.w	r2, r3, #15
 80056c0:	6821      	ldr	r1, [r4, #0]
 80056c2:	b292      	uxth	r2, r2
 80056c4:	f3c3 0342 	ubfx	r3, r3, #1, #3
 80056c8:	4313      	orrs	r3, r2
 80056ca:	60cb      	str	r3, [r1, #12]
 80056cc:	e7b0      	b.n	8005630 <UART_SetConfig+0x130>
 80056ce:	482e      	ldr	r0, [pc, #184]	; (8005788 <UART_SetConfig+0x288>)
 80056d0:	e7e2      	b.n	8005698 <UART_SetConfig+0x198>
 80056d2:	2b08      	cmp	r3, #8
 80056d4:	f63f af73 	bhi.w	80055be <UART_SetConfig+0xbe>
 80056d8:	a201      	add	r2, pc, #4	; (adr r2, 80056e0 <UART_SetConfig+0x1e0>)
 80056da:	f852 f023 	ldr.w	pc, [r2, r3, lsl #2]
 80056de:	bf00      	nop
 80056e0:	08005739 	.word	0x08005739
 80056e4:	08005705 	.word	0x08005705
 80056e8:	0800572f 	.word	0x0800572f
 80056ec:	080055bf 	.word	0x080055bf
 80056f0:	0800570b 	.word	0x0800570b
 80056f4:	080055bf 	.word	0x080055bf
 80056f8:	080055bf 	.word	0x080055bf
 80056fc:	080055bf 	.word	0x080055bf
 8005700:	080055cd 	.word	0x080055cd
 8005704:	f7fe fb54 	bl	8003db0 <HAL_RCC_GetPCLK2Freq>
 8005708:	e018      	b.n	800573c <UART_SetConfig+0x23c>
 800570a:	f7fe fa21 	bl	8003b50 <HAL_RCC_GetSysClockFreq>
 800570e:	e015      	b.n	800573c <UART_SetConfig+0x23c>
 8005710:	f5b0 4f00 	cmp.w	r0, #32768	; 0x8000
 8005714:	d1f9      	bne.n	800570a <UART_SetConfig+0x20a>
 8005716:	f7fe fa1b 	bl	8003b50 <HAL_RCC_GetSysClockFreq>
 800571a:	e7bb      	b.n	8005694 <UART_SetConfig+0x194>
 800571c:	f5b0 4f00 	cmp.w	r0, #32768	; 0x8000
 8005720:	d1f0      	bne.n	8005704 <UART_SetConfig+0x204>
 8005722:	f7fe fb45 	bl	8003db0 <HAL_RCC_GetPCLK2Freq>
 8005726:	e7b5      	b.n	8005694 <UART_SetConfig+0x194>
 8005728:	f5b0 4f00 	cmp.w	r0, #32768	; 0x8000
 800572c:	d0cf      	beq.n	80056ce <UART_SetConfig+0x1ce>
 800572e:	4816      	ldr	r0, [pc, #88]	; (8005788 <UART_SetConfig+0x288>)
 8005730:	e007      	b.n	8005742 <UART_SetConfig+0x242>
 8005732:	f5b0 4f00 	cmp.w	r0, #32768	; 0x8000
 8005736:	d0ab      	beq.n	8005690 <UART_SetConfig+0x190>
 8005738:	f7fe fb28 	bl	8003d8c <HAL_RCC_GetPCLK1Freq>
 800573c:	2800      	cmp	r0, #0
 800573e:	f43f af77 	beq.w	8005630 <UART_SetConfig+0x130>
 8005742:	6863      	ldr	r3, [r4, #4]
 8005744:	6a61      	ldr	r1, [r4, #36]	; 0x24
 8005746:	4a11      	ldr	r2, [pc, #68]	; (800578c <UART_SetConfig+0x28c>)
 8005748:	f832 2011 	ldrh.w	r2, [r2, r1, lsl #1]
 800574c:	fbb0 f0f2 	udiv	r0, r0, r2
 8005750:	eb00 0053 	add.w	r0, r0, r3, lsr #1
 8005754:	fbb0 f0f3 	udiv	r0, r0, r3
 8005758:	f64f 73ef 	movw	r3, #65519	; 0xffef
 800575c:	f1a0 0210 	sub.w	r2, r0, #16
 8005760:	e791      	b.n	8005686 <UART_SetConfig+0x186>
 8005762:	bf00      	nop
 8005764:	cfff69f3 	.word	0xcfff69f3
 8005768:	40008000 	.word	0x40008000
 800576c:	40013800 	.word	0x40013800
 8005770:	40021000 	.word	0x40021000
 8005774:	08005b64 	.word	0x08005b64
 8005778:	40004400 	.word	0x40004400
 800577c:	08005b67 	.word	0x08005b67
 8005780:	40004800 	.word	0x40004800
 8005784:	40004c00 	.word	0x40004c00
 8005788:	00f42400 	.word	0x00f42400
 800578c:	08005b74 	.word	0x08005b74
 8005790:	000ffcff 	.word	0x000ffcff

08005794 <UART_AdvFeatureConfig>:
 8005794:	6a83      	ldr	r3, [r0, #40]	; 0x28
 8005796:	07da      	lsls	r2, r3, #31
 8005798:	b510      	push	{r4, lr}
 800579a:	d506      	bpl.n	80057aa <UART_AdvFeatureConfig+0x16>
 800579c:	6801      	ldr	r1, [r0, #0]
 800579e:	6ac4      	ldr	r4, [r0, #44]	; 0x2c
 80057a0:	684a      	ldr	r2, [r1, #4]
 80057a2:	f422 3200 	bic.w	r2, r2, #131072	; 0x20000
 80057a6:	4322      	orrs	r2, r4
 80057a8:	604a      	str	r2, [r1, #4]
 80057aa:	079c      	lsls	r4, r3, #30
 80057ac:	d506      	bpl.n	80057bc <UART_AdvFeatureConfig+0x28>
 80057ae:	6801      	ldr	r1, [r0, #0]
 80057b0:	6b04      	ldr	r4, [r0, #48]	; 0x30
 80057b2:	684a      	ldr	r2, [r1, #4]
 80057b4:	f422 3280 	bic.w	r2, r2, #65536	; 0x10000
 80057b8:	4322      	orrs	r2, r4
 80057ba:	604a      	str	r2, [r1, #4]
 80057bc:	0759      	lsls	r1, r3, #29
 80057be:	d506      	bpl.n	80057ce <UART_AdvFeatureConfig+0x3a>
 80057c0:	6801      	ldr	r1, [r0, #0]
 80057c2:	6b44      	ldr	r4, [r0, #52]	; 0x34
 80057c4:	684a      	ldr	r2, [r1, #4]
 80057c6:	f422 2280 	bic.w	r2, r2, #262144	; 0x40000
 80057ca:	4322      	orrs	r2, r4
 80057cc:	604a      	str	r2, [r1, #4]
 80057ce:	071a      	lsls	r2, r3, #28
 80057d0:	d506      	bpl.n	80057e0 <UART_AdvFeatureConfig+0x4c>
 80057d2:	6801      	ldr	r1, [r0, #0]
 80057d4:	6b84      	ldr	r4, [r0, #56]	; 0x38
 80057d6:	684a      	ldr	r2, [r1, #4]
 80057d8:	f422 4200 	bic.w	r2, r2, #32768	; 0x8000
 80057dc:	4322      	orrs	r2, r4
 80057de:	604a      	str	r2, [r1, #4]
 80057e0:	06dc      	lsls	r4, r3, #27
 80057e2:	d506      	bpl.n	80057f2 <UART_AdvFeatureConfig+0x5e>
 80057e4:	6801      	ldr	r1, [r0, #0]
 80057e6:	6bc4      	ldr	r4, [r0, #60]	; 0x3c
 80057e8:	688a      	ldr	r2, [r1, #8]
 80057ea:	f422 5280 	bic.w	r2, r2, #4096	; 0x1000
 80057ee:	4322      	orrs	r2, r4
 80057f0:	608a      	str	r2, [r1, #8]
 80057f2:	0699      	lsls	r1, r3, #26
 80057f4:	d506      	bpl.n	8005804 <UART_AdvFeatureConfig+0x70>
 80057f6:	6801      	ldr	r1, [r0, #0]
 80057f8:	6c04      	ldr	r4, [r0, #64]	; 0x40
 80057fa:	688a      	ldr	r2, [r1, #8]
 80057fc:	f422 5200 	bic.w	r2, r2, #8192	; 0x2000
 8005800:	4322      	orrs	r2, r4
 8005802:	608a      	str	r2, [r1, #8]
 8005804:	065a      	lsls	r2, r3, #25
 8005806:	d50f      	bpl.n	8005828 <UART_AdvFeatureConfig+0x94>
 8005808:	6801      	ldr	r1, [r0, #0]
 800580a:	6c44      	ldr	r4, [r0, #68]	; 0x44
 800580c:	684a      	ldr	r2, [r1, #4]
 800580e:	f422 1280 	bic.w	r2, r2, #1048576	; 0x100000
 8005812:	4322      	orrs	r2, r4
 8005814:	f5b4 1f80 	cmp.w	r4, #1048576	; 0x100000
 8005818:	604a      	str	r2, [r1, #4]
 800581a:	d105      	bne.n	8005828 <UART_AdvFeatureConfig+0x94>
 800581c:	684a      	ldr	r2, [r1, #4]
 800581e:	6c84      	ldr	r4, [r0, #72]	; 0x48
 8005820:	f422 02c0 	bic.w	r2, r2, #6291456	; 0x600000
 8005824:	4322      	orrs	r2, r4
 8005826:	604a      	str	r2, [r1, #4]
 8005828:	061b      	lsls	r3, r3, #24
 800582a:	d506      	bpl.n	800583a <UART_AdvFeatureConfig+0xa6>
 800582c:	6802      	ldr	r2, [r0, #0]
 800582e:	6cc1      	ldr	r1, [r0, #76]	; 0x4c
 8005830:	6853      	ldr	r3, [r2, #4]
 8005832:	f423 2300 	bic.w	r3, r3, #524288	; 0x80000
 8005836:	430b      	orrs	r3, r1
 8005838:	6053      	str	r3, [r2, #4]
 800583a:	bd10      	pop	{r4, pc}

0800583c <UART_WaitOnFlagUntilTimeout>:
 800583c:	e92d 41f0 	stmdb	sp!, {r4, r5, r6, r7, r8, lr}
 8005840:	f8dd 8018 	ldr.w	r8, [sp, #24]
 8005844:	4604      	mov	r4, r0
 8005846:	460e      	mov	r6, r1
 8005848:	4615      	mov	r5, r2
 800584a:	461f      	mov	r7, r3
 800584c:	6822      	ldr	r2, [r4, #0]
 800584e:	69d3      	ldr	r3, [r2, #28]
 8005850:	ea36 0303 	bics.w	r3, r6, r3
 8005854:	bf0c      	ite	eq
 8005856:	2301      	moveq	r3, #1
 8005858:	2300      	movne	r3, #0
 800585a:	42ab      	cmp	r3, r5
 800585c:	d001      	beq.n	8005862 <UART_WaitOnFlagUntilTimeout+0x26>
 800585e:	2000      	movs	r0, #0
 8005860:	e027      	b.n	80058b2 <UART_WaitOnFlagUntilTimeout+0x76>
 8005862:	f1b8 3fff 	cmp.w	r8, #4294967295
 8005866:	d0f2      	beq.n	800584e <UART_WaitOnFlagUntilTimeout+0x12>
 8005868:	f7fc fa80 	bl	8001d6c <HAL_GetTick>
 800586c:	1bc0      	subs	r0, r0, r7
 800586e:	4540      	cmp	r0, r8
 8005870:	6820      	ldr	r0, [r4, #0]
 8005872:	d802      	bhi.n	800587a <UART_WaitOnFlagUntilTimeout+0x3e>
 8005874:	f1b8 0f00 	cmp.w	r8, #0
 8005878:	d11d      	bne.n	80058b6 <UART_WaitOnFlagUntilTimeout+0x7a>
 800587a:	e850 3f00 	ldrex	r3, [r0]
 800587e:	f423 73d0 	bic.w	r3, r3, #416	; 0x1a0
 8005882:	e840 3200 	strex	r2, r3, [r0]
 8005886:	2a00      	cmp	r2, #0
 8005888:	d1f7      	bne.n	800587a <UART_WaitOnFlagUntilTimeout+0x3e>
 800588a:	f100 0308 	add.w	r3, r0, #8
 800588e:	e853 3f00 	ldrex	r3, [r3]
 8005892:	f023 0301 	bic.w	r3, r3, #1
 8005896:	f100 0108 	add.w	r1, r0, #8
 800589a:	e841 3200 	strex	r2, r3, [r1]
 800589e:	2a00      	cmp	r2, #0
 80058a0:	d1f3      	bne.n	800588a <UART_WaitOnFlagUntilTimeout+0x4e>
 80058a2:	2320      	movs	r3, #32
 80058a4:	f8c4 3084 	str.w	r3, [r4, #132]	; 0x84
 80058a8:	f8c4 3088 	str.w	r3, [r4, #136]	; 0x88
 80058ac:	f884 2080 	strb.w	r2, [r4, #128]	; 0x80
 80058b0:	2003      	movs	r0, #3
 80058b2:	e8bd 81f0 	ldmia.w	sp!, {r4, r5, r6, r7, r8, pc}
 80058b6:	6803      	ldr	r3, [r0, #0]
 80058b8:	075a      	lsls	r2, r3, #29
 80058ba:	d5c7      	bpl.n	800584c <UART_WaitOnFlagUntilTimeout+0x10>
 80058bc:	69c3      	ldr	r3, [r0, #28]
 80058be:	051b      	lsls	r3, r3, #20
 80058c0:	d5c4      	bpl.n	800584c <UART_WaitOnFlagUntilTimeout+0x10>
 80058c2:	f44f 6300 	mov.w	r3, #2048	; 0x800
 80058c6:	6203      	str	r3, [r0, #32]
 80058c8:	e850 3f00 	ldrex	r3, [r0]
 80058cc:	f423 73d0 	bic.w	r3, r3, #416	; 0x1a0
 80058d0:	e840 3200 	strex	r2, r3, [r0]
 80058d4:	2a00      	cmp	r2, #0
 80058d6:	d1f7      	bne.n	80058c8 <UART_WaitOnFlagUntilTimeout+0x8c>
 80058d8:	f100 0308 	add.w	r3, r0, #8
 80058dc:	e853 3f00 	ldrex	r3, [r3]
 80058e0:	f023 0301 	bic.w	r3, r3, #1
 80058e4:	f100 0108 	add.w	r1, r0, #8
 80058e8:	e841 3200 	strex	r2, r3, [r1]
 80058ec:	2a00      	cmp	r2, #0
 80058ee:	d1f3      	bne.n	80058d8 <UART_WaitOnFlagUntilTimeout+0x9c>
 80058f0:	2320      	movs	r3, #32
 80058f2:	f8c4 3084 	str.w	r3, [r4, #132]	; 0x84
 80058f6:	f8c4 3088 	str.w	r3, [r4, #136]	; 0x88
 80058fa:	f8c4 308c 	str.w	r3, [r4, #140]	; 0x8c
 80058fe:	e7d5      	b.n	80058ac <UART_WaitOnFlagUntilTimeout+0x70>

08005900 <UART_CheckIdleState>:
 8005900:	b530      	push	{r4, r5, lr}
 8005902:	4604      	mov	r4, r0
 8005904:	2500      	movs	r5, #0
 8005906:	b085      	sub	sp, #20
 8005908:	f8c0 508c 	str.w	r5, [r0, #140]	; 0x8c
 800590c:	f7fc fa2e 	bl	8001d6c <HAL_GetTick>
 8005910:	6822      	ldr	r2, [r4, #0]
 8005912:	6812      	ldr	r2, [r2, #0]
 8005914:	0711      	lsls	r1, r2, #28
 8005916:	4603      	mov	r3, r0
 8005918:	d417      	bmi.n	800594a <UART_CheckIdleState+0x4a>
 800591a:	6822      	ldr	r2, [r4, #0]
 800591c:	6812      	ldr	r2, [r2, #0]
 800591e:	0752      	lsls	r2, r2, #29
 8005920:	d509      	bpl.n	8005936 <UART_CheckIdleState+0x36>
 8005922:	f06f 427e 	mvn.w	r2, #4261412864	; 0xfe000000
 8005926:	9200      	str	r2, [sp, #0]
 8005928:	f44f 0180 	mov.w	r1, #4194304	; 0x400000
 800592c:	2200      	movs	r2, #0
 800592e:	4620      	mov	r0, r4
 8005930:	f7ff ff84 	bl	800583c <UART_WaitOnFlagUntilTimeout>
 8005934:	b9b0      	cbnz	r0, 8005964 <UART_CheckIdleState+0x64>
 8005936:	2320      	movs	r3, #32
 8005938:	2000      	movs	r0, #0
 800593a:	f8c4 3084 	str.w	r3, [r4, #132]	; 0x84
 800593e:	f884 0080 	strb.w	r0, [r4, #128]	; 0x80
 8005942:	f8c4 3088 	str.w	r3, [r4, #136]	; 0x88
 8005946:	66e0      	str	r0, [r4, #108]	; 0x6c
 8005948:	e00d      	b.n	8005966 <UART_CheckIdleState+0x66>
 800594a:	f06f 427e 	mvn.w	r2, #4261412864	; 0xfe000000
 800594e:	9200      	str	r2, [sp, #0]
 8005950:	9003      	str	r0, [sp, #12]
 8005952:	462a      	mov	r2, r5
 8005954:	f44f 1100 	mov.w	r1, #2097152	; 0x200000
 8005958:	4620      	mov	r0, r4
 800595a:	f7ff ff6f 	bl	800583c <UART_WaitOnFlagUntilTimeout>
 800595e:	9b03      	ldr	r3, [sp, #12]
 8005960:	2800      	cmp	r0, #0
 8005962:	d0da      	beq.n	800591a <UART_CheckIdleState+0x1a>
 8005964:	2003      	movs	r0, #3
 8005966:	b005      	add	sp, #20
 8005968:	bd30      	pop	{r4, r5, pc}

0800596a <HAL_UART_Init>:
 800596a:	b510      	push	{r4, lr}
 800596c:	4604      	mov	r4, r0
 800596e:	b350      	cbz	r0, 80059c6 <HAL_UART_Init+0x5c>
 8005970:	f8d0 3084 	ldr.w	r3, [r0, #132]	; 0x84
 8005974:	b91b      	cbnz	r3, 800597e <HAL_UART_Init+0x14>
 8005976:	f880 3080 	strb.w	r3, [r0, #128]	; 0x80
 800597a:	f7fc f927 	bl	8001bcc <HAL_UART_MspInit>
 800597e:	6822      	ldr	r2, [r4, #0]
 8005980:	2324      	movs	r3, #36	; 0x24
 8005982:	f8c4 3084 	str.w	r3, [r4, #132]	; 0x84
 8005986:	6813      	ldr	r3, [r2, #0]
 8005988:	f023 0301 	bic.w	r3, r3, #1
 800598c:	6013      	str	r3, [r2, #0]
 800598e:	4620      	mov	r0, r4
 8005990:	f7ff fdb6 	bl	8005500 <UART_SetConfig>
 8005994:	2801      	cmp	r0, #1
 8005996:	d016      	beq.n	80059c6 <HAL_UART_Init+0x5c>
 8005998:	6aa3      	ldr	r3, [r4, #40]	; 0x28
 800599a:	b113      	cbz	r3, 80059a2 <HAL_UART_Init+0x38>
 800599c:	4620      	mov	r0, r4
 800599e:	f7ff fef9 	bl	8005794 <UART_AdvFeatureConfig>
 80059a2:	6823      	ldr	r3, [r4, #0]
 80059a4:	685a      	ldr	r2, [r3, #4]
 80059a6:	f422 4290 	bic.w	r2, r2, #18432	; 0x4800
 80059aa:	605a      	str	r2, [r3, #4]
 80059ac:	689a      	ldr	r2, [r3, #8]
 80059ae:	f022 022a 	bic.w	r2, r2, #42	; 0x2a
 80059b2:	609a      	str	r2, [r3, #8]
 80059b4:	681a      	ldr	r2, [r3, #0]
 80059b6:	f042 0201 	orr.w	r2, r2, #1
 80059ba:	4620      	mov	r0, r4
 80059bc:	601a      	str	r2, [r3, #0]
 80059be:	e8bd 4010 	ldmia.w	sp!, {r4, lr}
 80059c2:	f7ff bf9d 	b.w	8005900 <UART_CheckIdleState>
 80059c6:	2001      	movs	r0, #1
 80059c8:	bd10      	pop	{r4, pc}
	...

080059cc <UARTEx_SetNbDataToProcess>:
 80059cc:	6e43      	ldr	r3, [r0, #100]	; 0x64
 80059ce:	b530      	push	{r4, r5, lr}
 80059d0:	b92b      	cbnz	r3, 80059de <UARTEx_SetNbDataToProcess+0x12>
 80059d2:	2301      	movs	r3, #1
 80059d4:	f8a0 306a 	strh.w	r3, [r0, #106]	; 0x6a
 80059d8:	f8a0 3068 	strh.w	r3, [r0, #104]	; 0x68
 80059dc:	bd30      	pop	{r4, r5, pc}
 80059de:	6803      	ldr	r3, [r0, #0]
 80059e0:	4d09      	ldr	r5, [pc, #36]	; (8005a08 <UARTEx_SetNbDataToProcess+0x3c>)
 80059e2:	689a      	ldr	r2, [r3, #8]
 80059e4:	6899      	ldr	r1, [r3, #8]
 80059e6:	4c09      	ldr	r4, [pc, #36]	; (8005a0c <UARTEx_SetNbDataToProcess+0x40>)
 80059e8:	0f49      	lsrs	r1, r1, #29
 80059ea:	f3c2 6242 	ubfx	r2, r2, #25, #3
 80059ee:	5c6b      	ldrb	r3, [r5, r1]
 80059f0:	5c61      	ldrb	r1, [r4, r1]
 80059f2:	00db      	lsls	r3, r3, #3
 80059f4:	fbb3 f3f1 	udiv	r3, r3, r1
 80059f8:	f8a0 306a 	strh.w	r3, [r0, #106]	; 0x6a
 80059fc:	5cab      	ldrb	r3, [r5, r2]
 80059fe:	5ca2      	ldrb	r2, [r4, r2]
 8005a00:	00db      	lsls	r3, r3, #3
 8005a02:	fbb3 f3f2 	udiv	r3, r3, r2
 8005a06:	e7e7      	b.n	80059d8 <UARTEx_SetNbDataToProcess+0xc>
 8005a08:	08005b94 	.word	0x08005b94
 8005a0c:	08005b8c 	.word	0x08005b8c

08005a10 <HAL_UARTEx_WakeupCallback>:
 8005a10:	4770      	bx	lr

08005a12 <HAL_UARTEx_RxFifoFullCallback>:
 8005a12:	4770      	bx	lr

08005a14 <HAL_UARTEx_TxFifoEmptyCallback>:
 8005a14:	4770      	bx	lr

08005a16 <HAL_UARTEx_DisableFifoMode>:
 8005a16:	f890 3080 	ldrb.w	r3, [r0, #128]	; 0x80
 8005a1a:	2b01      	cmp	r3, #1
 8005a1c:	d014      	beq.n	8005a48 <HAL_UARTEx_DisableFifoMode+0x32>
 8005a1e:	6802      	ldr	r2, [r0, #0]
 8005a20:	2324      	movs	r3, #36	; 0x24
 8005a22:	f8c0 3084 	str.w	r3, [r0, #132]	; 0x84
 8005a26:	6811      	ldr	r1, [r2, #0]
 8005a28:	6813      	ldr	r3, [r2, #0]
 8005a2a:	f023 0301 	bic.w	r3, r3, #1
 8005a2e:	6013      	str	r3, [r2, #0]
 8005a30:	f021 5100 	bic.w	r1, r1, #536870912	; 0x20000000
 8005a34:	2300      	movs	r3, #0
 8005a36:	6643      	str	r3, [r0, #100]	; 0x64
 8005a38:	6011      	str	r1, [r2, #0]
 8005a3a:	2220      	movs	r2, #32
 8005a3c:	f8c0 2084 	str.w	r2, [r0, #132]	; 0x84
 8005a40:	f880 3080 	strb.w	r3, [r0, #128]	; 0x80
 8005a44:	4618      	mov	r0, r3
 8005a46:	4770      	bx	lr
 8005a48:	2002      	movs	r0, #2
 8005a4a:	4770      	bx	lr

08005a4c <HAL_UARTEx_SetTxFifoThreshold>:
 8005a4c:	b570      	push	{r4, r5, r6, lr}
 8005a4e:	f890 3080 	ldrb.w	r3, [r0, #128]	; 0x80
 8005a52:	2b01      	cmp	r3, #1
 8005a54:	4604      	mov	r4, r0
 8005a56:	d017      	beq.n	8005a88 <HAL_UARTEx_SetTxFifoThreshold+0x3c>
 8005a58:	6805      	ldr	r5, [r0, #0]
 8005a5a:	2324      	movs	r3, #36	; 0x24
 8005a5c:	f8c0 3084 	str.w	r3, [r0, #132]	; 0x84
 8005a60:	682e      	ldr	r6, [r5, #0]
 8005a62:	682b      	ldr	r3, [r5, #0]
 8005a64:	f023 0301 	bic.w	r3, r3, #1
 8005a68:	602b      	str	r3, [r5, #0]
 8005a6a:	68ab      	ldr	r3, [r5, #8]
 8005a6c:	f023 4360 	bic.w	r3, r3, #3758096384	; 0xe0000000
 8005a70:	4319      	orrs	r1, r3
 8005a72:	60a9      	str	r1, [r5, #8]
 8005a74:	f7ff ffaa 	bl	80059cc <UARTEx_SetNbDataToProcess>
 8005a78:	2320      	movs	r3, #32
 8005a7a:	602e      	str	r6, [r5, #0]
 8005a7c:	f8c0 3084 	str.w	r3, [r0, #132]	; 0x84
 8005a80:	2000      	movs	r0, #0
 8005a82:	f884 0080 	strb.w	r0, [r4, #128]	; 0x80
 8005a86:	bd70      	pop	{r4, r5, r6, pc}
 8005a88:	2002      	movs	r0, #2
 8005a8a:	e7fc      	b.n	8005a86 <HAL_UARTEx_SetTxFifoThreshold+0x3a>

08005a8c <HAL_UARTEx_SetRxFifoThreshold>:
 8005a8c:	b570      	push	{r4, r5, r6, lr}
 8005a8e:	f890 3080 	ldrb.w	r3, [r0, #128]	; 0x80
 8005a92:	2b01      	cmp	r3, #1
 8005a94:	4604      	mov	r4, r0
 8005a96:	d017      	beq.n	8005ac8 <HAL_UARTEx_SetRxFifoThreshold+0x3c>
 8005a98:	6805      	ldr	r5, [r0, #0]
 8005a9a:	2324      	movs	r3, #36	; 0x24
 8005a9c:	f8c0 3084 	str.w	r3, [r0, #132]	; 0x84
 8005aa0:	682e      	ldr	r6, [r5, #0]
 8005aa2:	682b      	ldr	r3, [r5, #0]
 8005aa4:	f023 0301 	bic.w	r3, r3, #1
 8005aa8:	602b      	str	r3, [r5, #0]
 8005aaa:	68ab      	ldr	r3, [r5, #8]
 8005aac:	f023 6360 	bic.w	r3, r3, #234881024	; 0xe000000
 8005ab0:	4319      	orrs	r1, r3
 8005ab2:	60a9      	str	r1, [r5, #8]
 8005ab4:	f7ff ff8a 	bl	80059cc <UARTEx_SetNbDataToProcess>
 8005ab8:	2320      	movs	r3, #32
 8005aba:	602e      	str	r6, [r5, #0]
 8005abc:	f8c0 3084 	str.w	r3, [r0, #132]	; 0x84
 8005ac0:	2000      	movs	r0, #0
 8005ac2:	f884 0080 	strb.w	r0, [r4, #128]	; 0x80
 8005ac6:	bd70      	pop	{r4, r5, r6, pc}
 8005ac8:	2002      	movs	r0, #2
 8005aca:	e7fc      	b.n	8005ac6 <HAL_UARTEx_SetRxFifoThreshold+0x3a>

08005acc <memset>:
 8005acc:	4402      	add	r2, r0
 8005ace:	4603      	mov	r3, r0
 8005ad0:	4293      	cmp	r3, r2
 8005ad2:	d100      	bne.n	8005ad6 <memset+0xa>
 8005ad4:	4770      	bx	lr
 8005ad6:	f803 1b01 	strb.w	r1, [r3], #1
 8005ada:	e7f9      	b.n	8005ad0 <memset+0x4>

08005adc <__libc_init_array>:
 8005adc:	b570      	push	{r4, r5, r6, lr}
 8005ade:	4d0d      	ldr	r5, [pc, #52]	; (8005b14 <__libc_init_array+0x38>)
 8005ae0:	4c0d      	ldr	r4, [pc, #52]	; (8005b18 <__libc_init_array+0x3c>)
 8005ae2:	1b64      	subs	r4, r4, r5
 8005ae4:	10a4      	asrs	r4, r4, #2
 8005ae6:	2600      	movs	r6, #0
 8005ae8:	42a6      	cmp	r6, r4
 8005aea:	d109      	bne.n	8005b00 <__libc_init_array+0x24>
 8005aec:	4d0b      	ldr	r5, [pc, #44]	; (8005b1c <__libc_init_array+0x40>)
 8005aee:	4c0c      	ldr	r4, [pc, #48]	; (8005b20 <__libc_init_array+0x44>)
 8005af0:	f000 f818 	bl	8005b24 <_init>
 8005af4:	1b64      	subs	r4, r4, r5
 8005af6:	10a4      	asrs	r4, r4, #2
 8005af8:	2600      	movs	r6, #0
 8005afa:	42a6      	cmp	r6, r4
 8005afc:	d105      	bne.n	8005b0a <__libc_init_array+0x2e>
 8005afe:	bd70      	pop	{r4, r5, r6, pc}
 8005b00:	f855 3b04 	ldr.w	r3, [r5], #4
 8005b04:	4798      	blx	r3
 8005b06:	3601      	adds	r6, #1
 8005b08:	e7ee      	b.n	8005ae8 <__libc_init_array+0xc>
 8005b0a:	f855 3b04 	ldr.w	r3, [r5], #4
 8005b0e:	4798      	blx	r3
 8005b10:	3601      	adds	r6, #1
 8005b12:	e7f2      	b.n	8005afa <__libc_init_array+0x1e>
 8005b14:	08005ba4 	.word	0x08005ba4
 8005b18:	08005ba4 	.word	0x08005ba4
 8005b1c:	08005ba4 	.word	0x08005ba4
 8005b20:	08005ba8 	.word	0x08005ba8

08005b24 <_init>:
 8005b24:	b5f8      	push	{r3, r4, r5, r6, r7, lr}
 8005b26:	bf00      	nop
 8005b28:	bcf8      	pop	{r3, r4, r5, r6, r7}
 8005b2a:	bc08      	pop	{r3}
 8005b2c:	469e      	mov	lr, r3
 8005b2e:	4770      	bx	lr

08005b30 <_fini>:
 8005b30:	b5f8      	push	{r3, r4, r5, r6, r7, lr}
 8005b32:	bf00      	nop
 8005b34:	bcf8      	pop	{r3, r4, r5, r6, r7}
 8005b36:	bc08      	pop	{r3}
 8005b38:	469e      	mov	lr, r3
 8005b3a:	4770      	bx	lr
